

HI-TECH Software LITE Macro Assembler (PIC18) V9.66 build 8870 
                                                       Sat Apr 20 08:14:09 2013

HI-TECH Software Omniscient Code Generator build 8870
     1  000000                     opt subtitle "HI-TECH Software Omniscient Code G
                                 enerator build 8870"
     2                           
     3                           	processor	18F4525
     4  000000                     porta	equ	0F80h
     5  000000                     portb	equ	0F81h
     6  000000                     portc	equ	0F82h
     7  000000                     portd	equ	0F83h
     8  000000                     porte	equ	0F84h
     9  000000                     lata	equ	0F89h
    10  000000                     latb	equ	0F8Ah
    11  000000                     latc	equ	0F8Bh
    12  000000                     latd	equ	0F8Ch
    13  000000                     late	equ	0F8Dh
    14  000000                     trisa	equ	0F92h
    15  000000                     trisb	equ	0F93h
    16  000000                     trisc	equ	0F94h
    17  000000                     trisd	equ	0F95h
    18  000000                     trise	equ	0F96h
    19  000000                     pie1	equ	0F9Dh
    20  000000                     pir1	equ	0F9Eh
    21  000000                     ipr1	equ	0F9Fh
    22  000000                     pie2	equ	0FA0h
    23  000000                     pir2	equ	0FA1h
    24  000000                     ipr2	equ	0FA2h
    25  000000                     t3con	equ	0FB1h
    26  000000                     tmr3l	equ	0FB2h
    27  000000                     tmr3h	equ	0FB3h
    28  000000                     ccp1con	equ	0FBDh
    29  000000                     ccpr1l	equ	0FBEh
    30  000000                     ccpr1h	equ	0FBFh
    31  000000                     adcon1	equ	0FC1h
    32  000000                     adcon0	equ	0FC2h
    33  000000                     adresl	equ	0FC3h
    34  000000                     adresh	equ	0FC4h
    35  000000                     sspcon2	equ	0FC5h
    36  000000                     sspcon1	equ	0FC6h
    37  000000                     sspstat	equ	0FC7h
    38  000000                     sspadd	equ	0FC8h
    39  000000                     sspbuf	equ	0FC9h
    40  000000                     t2con	equ	0FCAh
    41  000000                     pr2	equ	0FCBh
    42  000000                     tmr2	equ	0FCCh
    43  000000                     t1con	equ	0FCDh
    44  000000                     tmr1l	equ	0FCEh
    45  000000                     tmr1h	equ	0FCFh
    46  000000                     rcon	equ	0FD0h
    47  000000                     wdtcon	equ	0FD1h
    48  000000                     lvdcon	equ	0FD2h
    49  000000                     osccon	equ	0FD3h
    50  000000                     t0con	equ	0FD5h
    51  000000                     tmr0l	equ	0FD6h
    52  000000                     tmr0h	equ	0FD7h
    53  000000                     status	equ	0FD8h
    54  000000                     fsr2	equ	0FD9h
    55  000000                     fsr2l	equ	0FD9h
    56  000000                     fsr2h	equ	0FDAh
    57  000000                     plusw2	equ	0FDBh
    58  000000                     preinc2	equ	0FDCh
    59  000000                     postdec2	equ	0FDDh
    60  000000                     postinc2	equ	0FDEh
    61  000000                     indf2	equ	0FDFh
    62  000000                     bsr	equ	0FE0h
    63  000000                     fsr1	equ	0FE1h
    64  000000                     fsr1l	equ	0FE1h
    65  000000                     fsr1h	equ	0FE2h
    66  000000                     plusw1	equ	0FE3h
    67  000000                     preinc1	equ	0FE4h
    68  000000                     postdec1	equ	0FE5h
    69  000000                     postinc1	equ	0FE6h
    70  000000                     indf1	equ	0FE7h
    71  000000                     wreg	equ	0FE8h
    72  000000                     fsr0	equ	0FE9h
    73  000000                     fsr0l	equ	0FE9h
    74  000000                     fsr0h	equ	0FEAh
    75  000000                     plusw0	equ	0FEBh
    76  000000                     preinc0	equ	0FECh
    77  000000                     postdec0	equ	0FEDh
    78  000000                     postinc0	equ	0FEEh
    79  000000                     indf0	equ	0FEFh
    80  000000                     intcon3	equ	0FF0h
    81  000000                     intcon2	equ	0FF1h
    82  000000                     intcon	equ	0FF2h
    83  000000                     prod	equ	0FF3h
    84  000000                     prodl	equ	0FF3h
    85  000000                     prodh	equ	0FF4h
    86  000000                     tablat	equ	0FF5h
    87  000000                     tblptr	equ	0FF6h
    88  000000                     tblptrl	equ	0FF6h
    89  000000                     tblptrh	equ	0FF7h
    90  000000                     tblptru	equ	0FF8h
    91  000000                     pcl	equ	0FF9h
    92  000000                     pclat	equ	0FFAh
    93  000000                     pclath	equ	0FFAh
    94  000000                     pclatu	equ	0FFBh
    95  000000                     stkptr	equ	0FFCh
    96  000000                     tosl	equ	0FFDh
    97  000000                     tosh	equ	0FFEh
    98  000000                     tosu	equ	0FFFh
    99                           	global	__ramtop
   100                           	global	__accesstop
   101                           # 15 "C:\Users\tab\Desktop\electronics\micro_mou
                                 se\WORKING_SAC\main.c"
   102                           	global __config1 ;#
   103                           # 15 "C:\Users\tab\Desktop\electronics\micro_mou
                                 se\WORKING_SAC\main.c"
   104  000000                     	__config1 equ 0xFDFF & 0xFFFF & 0xFFFF ;#
   105                           # 16 "C:\Users\tab\Desktop\electronics\micro_mou
                                 se\WORKING_SAC\main.c"
   106                           	global __config2 ;#
   107                           # 16 "C:\Users\tab\Desktop\electronics\micro_mou
                                 se\WORKING_SAC\main.c"
   108  000000                     	__config2 equ 0xFFFF & 0xFFF9 & 0xFEFF ;#
   109                           # 17 "C:\Users\tab\Desktop\electronics\micro_mou
                                 se\WORKING_SAC\main.c"
   110                           	global __config3 ;#
   111                           # 17 "C:\Users\tab\Desktop\electronics\micro_mou
                                 se\WORKING_SAC\main.c"
   112  000000                     	__config3 equ 0xFDFF & 0xFFFF & 0xFFFF ;#
   113                           # 18 "C:\Users\tab\Desktop\electronics\micro_mou
                                 se\WORKING_SAC\main.c"
   114                           	global __config4 ;#
   115                           # 18 "C:\Users\tab\Desktop\electronics\micro_mou
                                 se\WORKING_SAC\main.c"
   116  000000                     	__config4 equ 0xFFFE & 0xFFFB & 0xFFFF & 0xFF7F
                                  ;#
   117                           # 19 "C:\Users\tab\Desktop\electronics\micro_mou
                                 se\WORKING_SAC\main.c"
   118                           	global __config5 ;#
   119                           # 19 "C:\Users\tab\Desktop\electronics\micro_mou
                                 se\WORKING_SAC\main.c"
   120  000000                     	__config5 equ 0xFFFF & 0xFFFF & 0xFFFF & 0xFFFF
                                  & 0xFFFF ;#
   121                           # 20 "C:\Users\tab\Desktop\electronics\micro_mou
                                 se\WORKING_SAC\main.c"
   122                           	global __config6 ;#
   123                           # 20 "C:\Users\tab\Desktop\electronics\micro_mou
                                 se\WORKING_SAC\main.c"
   124  000000                     	__config6 equ 0xFFFF & 0xFFFF & 0xFFFF & 0xFFFF
                                  & 0xFFFF & 0xFFFF ;#
   125                           # 21 "C:\Users\tab\Desktop\electronics\micro_mou
                                 se\WORKING_SAC\main.c"
   126                           	global __config7 ;#
   127                           # 21 "C:\Users\tab\Desktop\electronics\micro_mou
                                 se\WORKING_SAC\main.c"
   128  000000                     	__config7 equ 0xFFFF & 0xFFFF & 0xFFFF & 0xFFFF
                                  ;#
   129                           	GLOBAL	__activetblptr
   130  000000                     __activetblptr	EQU	0
   131                           	GLOBAL	__smallconst,__Lsmallconst
   132  000000                     __smallconst	EQU	__Lsmallconst
   133                           	GLOBAL	__mediumconst,__Lmediumconst
   134  000000                     __mediumconst	EQU	__Lmediumconst
   135                           	GLOBAL	__Ldata
   136  000000                     __Ldata	EQU	2061
   137  000000                     main@runFlag	equ	??_main+0
   138                           	global	main@runFlag
   139  000000                     main@i_111	equ	??_main+2
   140                           	global	main@i_111
   141  000000                     main@buttonCount	equ	??_main+4
   142                           	global	main@buttonCount
   143  000000                     main@i	equ	??_main+6
   144                           	global	main@i
   145  000000                     main@buttonCount_110	equ	??_main+8
   146                           	global	main@buttonCount_110
   147  000000                     MazeSetup@i	equ	??_MazeSetup+0
   148                           	global	MazeSetup@i
   149  000000                     MazeSetup@j	equ	??_MazeSetup+2
   150                           	global	MazeSetup@j
   151  000000                     SolveMaze@tempDir	equ	??_SolveMaze+0
   152                           	global	SolveMaze@tempDir
   153  000000                     SolveMaze@tempDir_134	equ	??_SolveMaze+2
   154                           	global	SolveMaze@tempDir_134
   155  000000                     SolveMaze@tempVar_133	equ	??_SolveMaze+4
   156                           	global	SolveMaze@tempVar_133
   157  000000                     SolveMaze@a	equ	??_SolveMaze+6
   158                           	global	SolveMaze@a
   159  000000                     SolveMaze@a_128	equ	??_SolveMaze+8
   160                           	global	SolveMaze@a_128
   161  000000                     SolveMaze@a_130	equ	??_SolveMaze+10
   162                           	global	SolveMaze@a_130
   163  000000                     SolveMaze@a_131	equ	??_SolveMaze+12
   164                           	global	SolveMaze@a_131
   165  000000                     SolveMaze@b	equ	??_SolveMaze+14
   166                           	global	SolveMaze@b
   167  000000                     SolveMaze@b_132	equ	??_SolveMaze+16
   168                           	global	SolveMaze@b_132
   169  000000                     TurnToDirection@dirCount	equ	??_TurnToDirection+
                                 0
   170                           	global	TurnToDirection@dirCount
   171  000000                     TurnToDirection@fixedDir	equ	??_TurnToDirection+
                                 2
   172                           	global	TurnToDirection@fixedDir
   173  000000                     TurnToDirection@dir	equ	?_TurnToDirection+0
   174                           	global	TurnToDirection@dir
   175  000000                     RestoreMaze@i	equ	??_RestoreMaze+0
   176                           	global	RestoreMaze@i
   177  000000                     RestoreMaze@i_170	equ	??_RestoreMaze+2
   178                           	global	RestoreMaze@i_170
   179  000000                     RestoreMaze@j	equ	??_RestoreMaze+4
   180                           	global	RestoreMaze@j
   181  000000                     RestoreMaze@j_171	equ	??_RestoreMaze+6
   182                           	global	RestoreMaze@j_171
   183  000000                     EndMaze@i	equ	??_EndMaze+0
   184                           	global	EndMaze@i
   185  000000                     EndMaze@bsVar	equ	??_EndMaze+2
   186                           	global	EndMaze@bsVar
   187  000000                     CheckAdjacentCells@bottomSquare	equ	??_CheckAdja
                                 centCells+0
   188                           	global	CheckAdjacentCells@bottomSquare
   189  000000                     CheckAdjacentCells@holdVar	equ	??_CheckAdjacentC
                                 ells+2
   190                           	global	CheckAdjacentCells@holdVar
   191  000000                     CheckAdjacentCells@leftSquare	equ	??_CheckAdjace
                                 ntCells+4
   192                           	global	CheckAdjacentCells@leftSquare
   193  000000                     CheckAdjacentCells@rightSquare	equ	??_CheckAdjac
                                 entCells+6
   194                           	global	CheckAdjacentCells@rightSquare
   195  000000                     CheckAdjacentCells@topSquare	equ	??_CheckAdjacen
                                 tCells+8
   196                           	global	CheckAdjacentCells@topSquare
   197  000000                     CheckAdjacentCells@lowestSquare	equ	??_CheckAdja
                                 centCells+10
   198                           	global	CheckAdjacentCells@lowestSquare
   199  000000                     CheckAdjacentCells@lowestFound	equ	??_CheckAdjac
                                 entCells+12
   200                           	global	CheckAdjacentCells@lowestFound
   201  000000                     CheckAdjacentCells@adjacentSquares	equ	??_CheckA
                                 djacentCells+14
   202                           	global	CheckAdjacentCells@adjacentSquares
   203  000000                     CheckAdjacentCells@j	equ	??_CheckAdjacentCells+2
                                 2
   204                           	global	CheckAdjacentCells@j
   205  000000                     CheckAdjacentCells@i_152	equ	??_CheckAdjacentCel
                                 ls+24
   206                           	global	CheckAdjacentCells@i_152
   207  000000                     CheckAdjacentCells@i	equ	??_CheckAdjacentCells+2
                                 6
   208                           	global	CheckAdjacentCells@i
   209  000000                     CheckAdjacentCells@y	equ	?_CheckAdjacentCells+0
   210                           	global	CheckAdjacentCells@y
   211  000000                     CheckAdjacentCells@x	equ	?_CheckAdjacentCells+2
   212                           	global	CheckAdjacentCells@x
   213  000000                     ClearMaze@i	equ	??_ClearMaze+0
   214                           	global	ClearMaze@i
   215  000000                     ClearMaze@i_158	equ	??_ClearMaze+2
   216                           	global	ClearMaze@i_158
   217  000000                     ClearMaze@i_160	equ	??_ClearMaze+4
   218                           	global	ClearMaze@i_160
   219  000000                     ClearMaze@j	equ	??_ClearMaze+6
   220                           	global	ClearMaze@j
   221  000000                     ClearMaze@j_161	equ	??_ClearMaze+8
   222                           	global	ClearMaze@j_161
   223  000000                     ClearMaze@clearRunTime	equ	?_ClearMaze+0
   224                           	global	ClearMaze@clearRunTime
   225  000000                     ClearMaze@clearEeprom	equ	?_ClearMaze+2
   226                           	global	ClearMaze@clearEeprom
   227  000000                     SaveMaze@i	equ	??_SaveMaze+0
   228                           	global	SaveMaze@i
   229  000000                     SaveMaze@i_165	equ	??_SaveMaze+2
   230                           	global	SaveMaze@i_165
   231  000000                     SaveMaze@j	equ	??_SaveMaze+4
   232                           	global	SaveMaze@j
   233  000000                     SaveMaze@j_166	equ	??_SaveMaze+6
   234                           	global	SaveMaze@j_166
   235  000000                     MOVE@j	equ	??_MOVE+0
   236                           	global	MOVE@j
   237  000000                     ___awmod@sign	equ	??___awmod+0
   238                           	global	___awmod@sign
   239  000000                     ___awmod@counter	equ	??___awmod+1
   240                           	global	___awmod@counter
   241  000000                     ___awmod@dividend	equ	?___awmod+0
   242                           	global	___awmod@dividend
   243  000000                     ___awmod@divisor	equ	?___awmod+2
   244                           	global	___awmod@divisor
   245  000000                     ___wmul@product	equ	??___wmul+0
   246                           	global	___wmul@product
   247  000000                     ___wmul@multiplier	equ	?___wmul+0
   248                           	global	___wmul@multiplier
   249  000000                     ___wmul@multiplicand	equ	?___wmul+2
   250                           	global	___wmul@multiplicand
   251  000000                     eeprom_read@addr	equ	?_eeprom_read+0
   252                           	global	eeprom_read@addr
   253  000000                     LED@led	equ	?_LED+0
   254                           	global	LED@led
   255  000000                     eeprom_write@addr	equ	?_eeprom_write+0
   256                           	global	eeprom_write@addr
   257  000000                     eeprom_write@value	equ	?_eeprom_write+2
   258                           	global	eeprom_write@value
   259  000000                     DelayMs@i	equ	??_DelayMs+0
   260                           	global	DelayMs@i
   261  000000                     DelayMs@_dcnt	equ	??_DelayMs+1
   262                           	global	DelayMs@_dcnt
   263  000000                     DelayMs@cnt	equ	?_DelayMs+0
   264                           	global	DelayMs@cnt
   265                           ;Data sizes: Strings 0, constant 0, data 16, bss
                                  0, persistent 0 stack 103
   266                           	global	_main
   267                           	global	??_main
   268                           	global	?_main
   269                           
   270                           ; *************** function _main ***************
                                 **
   271                           ; Defined at:
   272                           ;		line 106 in file "C:\Users\tab\Desktop\electr
                                 onics\micro_mouse\WORKING_SAC\main.c"
   273                           ; Parameters:
   274                           ;		None
   275                           ; Auto variables:
   276                           ;		runFlag     	       	type: short 
   277                           ;		i           	       	type: int 
   278                           ;		buttonCount 	       	type: int 
   279                           ;		i           	       	type: int 
   280                           ;		buttonCount 	       	type: int 
   281                           ; Return value:
   282                           ;		type: void 
   283                           ;		size: 0
   284                           ; Registers used:
   285                           ;		wreg, fsr0l, fsr0h, fsr1l, fsr1h, status,2, s
                                 tatus,0, cstack
   286                           ; Tracked objects:
   287                           ;		On entry : 0/0
   288                           ;		On exit  : 0/0
   289                           ;		Unchanged: 0/0
   290                           ; Data sizes:
   291                           ;		Autos:   10
   292                           ;		Params:   0
   293                           ;		Temp:     2
   294                           ;		Total:   12
   295                           ; This function calls:
   296                           ;		_LED
   297                           ;		_DelayMs
   298                           ;		_MazeSetup
   299                           ;		_ClearMaze
   300                           ;		_ConfigureInterrupts
   301                           ;		_DisableInterrupts
   302                           ;		_SolveMaze
   303                           ; This function is called by:
   304                           ;		Startup code after reset
   305                           ; This function uses a non-reentrant model
   306                           ; 
   307                                   psect   text0,class=CODE,space=0,reloc=2
   308                           
   309                           	opt lm
   310                           	file	"C:\Users\tab\Desktop\electronics\micro_mo
                                 use\WORKING_SAC\main.c"
   311                           	line	106
   312  000000                     	__size_of_main	equ	__end_of_main-_main
   313                                   psect   text0
   314                           ;main.c: 15: asm("\tglobal __config" "1"); asm("
                                 \t__config" "1" " equ " "0xFDFF & 0xFFFF & 0xFFF
                                 F");
   315                           ;main.c: 16: asm("\tglobal __config" "2"); asm("
                                 \t__config" "2" " equ " "0xFFFF & 0xFFF9 & 0xFEF
                                 F");
   316                           ;main.c: 17: asm("\tglobal __config" "3"); asm("
                                 \t__config" "3" " equ " "0xFDFF & 0xFFFF & 0xFFF
                                 F");
   317                           ;main.c: 18: asm("\tglobal __config" "4"); asm("
                                 \t__config" "4" " equ " "0xFFFE & 0xFFFB & 0xFFF
                                 F & 0xFF7F");
   318                           ;main.c: 19: asm("\tglobal __config" "5"); asm("
                                 \t__config" "5" " equ " "0xFFFF & 0xFFFF & 0xFFF
                                 F & 0xFFFF & 0xFFFF");
   319                           	
   320  003F36                     _main:		; BSR set to: ?
   321                           
   322                           	opt stack 30
   323                           	line	108
   324                           ;main.c: 108: RBPU = 0;
   325  003F36  9EF1               	bcf	c:(32655/8),(32655)&7	;volatile
   326                           	line	111
   327                           ;main.c: 111: TRISB = 0xFF;
   328  003F38  6893               	setf	((c:3987)),c	;volatile
   329                           	line	113
   330                           ;main.c: 113: TRISD = 0b00010000;
   331  003F3A  0E10               	movlw	low(010h)
   332  003F3C  6E95               	movwf	((c:3989)),c	;volatile
   333                           	line	115
   334                           ;main.c: 115: LATD = 0b11100000;
   335  003F3E  0EE0               	movlw	low(0E0h)
   336  003F40  6E8C               	movwf	((c:3980)),c	;volatile
   337                           	line	120
   338                           ;main.c: 120: LED(runTimeMode);
   339  003F42  C819 F930          	movff	(2073),(?_LED)
   340  003F46  C81A F931          	movff	(2073+1),(?_LED+1)
   341  003F4A  EC5B  F030         	call	_LED	;wreg free
   342                           	line	121
   343                           ;main.c: 121: short runFlag = 0;
   344  003F4E  0E00               	movlw	low(0)
   345  003F50  0109               	movlb	9	; () banked
   346  003F52  0109               	movlb	9	; () banked
   347  003F54  6F00               	movwf	((main@runFlag))&0ffh
   348  003F56  0E00               	movlw	high(0)
   349  003F58  0109               	movlb	9	; () banked
   350  003F5A  6F01               	movwf	((main@runFlag+1))&0ffh
   351                           	line	122
   352                           ;main.c: 122: switchPosition = RB5;
   353  003F5C  0E00               	movlw	0
   354  003F5E  BA81               	btfsc	c:(31757/8),(31757)&7	;volatile
   355  003F60  0E01               	movlw	1
   356  003F62  0108               	movlb	8	; () banked
   357  003F64  0108               	movlb	8	; () banked
   358  003F66  6F1B               	movwf	((2075))&0ffh
   359  003F68  0108               	movlb	8	; () banked
   360  003F6A  6B1C               	clrf	((2075+1))&0ffh
   361                           	line	123
   362                           ;main.c: 123: for(;;){
   363                           	
   364  003F6C                     l410:		; BSR set to: ?
   365                           
   366                           	line	124
   367                           ;main.c: 124: for(int buttonCount = 0; buttonCou
                                 nt <=1;){
   368  003F6C  0E00               	movlw	low(0)
   369  003F6E  0109               	movlb	9	; () banked
   370  003F70  0109               	movlb	9	; () banked
   371  003F72  6F04               	movwf	((main@buttonCount))&0ffh
   372  003F74  0E00               	movlw	high(0)
   373  003F76  0109               	movlb	9	; () banked
   374  003F78  6F05               	movwf	((main@buttonCount+1))&0ffh
   375  003F7A  0109               	movlb	9	; () banked
   376  003F7C  0109               	movlb	9	; () banked
   377  003F7E  5105               	movf	((main@buttonCount+1))&0ffh,w
   378  003F80  0A80               	xorlw	80h
   379  003F82  0F80               	addlw	-((0)^80h)
   380  003F84  0E02               	movlw	02h
   381  003F86  B4D8               	btfsc	status,2
   382  003F88  5D04               	subwf	((main@buttonCount))&0ffh,w
   383  003F8A  A0D8               	btfss	status,0
   384  003F8C  EFCA  F01F         	goto	u7381
   385  003F90  EFCC  F01F         	goto	u7380
   386  003F94                     u7381:
   387  003F94  EFCE  F01F         	goto	l413
   388  003F98                     u7380:
   389  003F98  EF1C  F020         	goto	l414
   390                           	
   391  003F9C                     l413:		; BSR set to: ?
   392                           
   393                           	line	125
   394                           ;main.c: 125: DelayMs(1000);
   395  003F9C  0109               	movlb	9	; () banked
   396  003F9E  6F0A               	movwf	(??_main+10+0)&0ffh
   397  003FA0  0EE8               	movlw	low(0E8h)
   398  003FA2  0109               	movlb	9	; () banked
   399  003FA4  0109               	movlb	9	; () banked
   400  003FA6  6F35               	movwf	((?_DelayMs))&0ffh
   401  003FA8  0109               	movlb	9	; () banked
   402  003FAA  510A               	movf	(??_main+10+0)&0ffh,w
   403  003FAC  ECD9  F02F         	call	_DelayMs	;wreg free
   404                           	line	126
   405                           ;main.c: 126: if(RD4 == 0)
   406  003FB0  B883               	btfsc	c:(31772/8),(31772)&7	;volatile
   407  003FB2  EFDD  F01F         	goto	u7391
   408  003FB6  EFDF  F01F         	goto	u7390
   409  003FBA                     u7391:
   410  003FBA  EFE5  F01F         	goto	l416
   411  003FBE                     u7390:
   412                           	line	127
   413                           ;main.c: 127: buttonCount++;
   414  003FBE  0109               	movlb	9	; () banked
   415  003FC0  0109               	movlb	9	; () banked
   416  003FC2  4B04               	infsnz	((main@buttonCount))&0ffh
   417  003FC4  2B05               	incf	((main@buttonCount+1))&0ffh
   418  003FC6  EFEC  F01F         	goto	l417
   419                           	line	128
   420                           	
   421  003FCA                     l416:		; BSR set to: ?
   422                           
   423                           	line	129
   424                           ;main.c: 128: else
   425                           ;main.c: 129: buttonCount = 0;
   426  003FCA  0E00               	movlw	low(0)
   427  003FCC  0109               	movlb	9	; () banked
   428  003FCE  0109               	movlb	9	; () banked
   429+ 003FD0  6F04               	movwf	((main@buttonCount))&0ffh
   430  003FD2  0E00               	movlw	high(0)
   431  003FD4  0109               	movlb	9	; () banked
   432  003FD6  6F05               	movwf	((main@buttonCount+1))&0ffh
   433                           	
   434  003FD8                     l417:		; BSR set to: ?
   435                           
   436                           	line	131
   437                           ;main.c: 131: if(switchPosition != RB5){
   438  003FD8  0E00               	movlw	0
   439  003FDA  BA81               	btfsc	c:(31757/8),(31757)&7	;volatile
   440  003FDC  0E01               	movlw	1
   441  003FDE  0109               	movlb	9	; () banked
   442  003FE0  6F0A               	movwf	(??_main+10+0)&0ffh
   443  003FE2  6B0B               	clrf	(??_main+10+0+1)&0ffh
   444  003FE4  0108               	movlb	8	; () banked
   445  003FE6  0108               	movlb	8	; () banked
   446  003FE8  511C               	movf	((2075+1))&0ffh,w
   447  003FEA  0109               	movlb	9	; () banked
   448  003FEC  190B               	xorwf	(??_main+10+1)&0ffh,w
   449  003FEE  E105               	bnz	u7405
   450  003FF0  0108               	movlb	8	; () banked
   451  003FF2  0108               	movlb	8	; () banked
   452  003FF4  511B               	movf	((2075))&0ffh,w
   453  003FF6  0109               	movlb	9	; () banked
   454  003FF8  190A               	xorwf	(??_main+10+0)&0ffh,w
   455  003FFA                     u7405:
   456                           
   457  003FFA  B4D8               	btfsc	status,2
   458  003FFC  EF02  F020         	goto	u7401
   459  004000  EF04  F020         	goto	u7400
   460  004004                     u7401:
   461  004004  EF0D  F020         	goto	l418
   462  004008                     u7400:
   463                           	line	132
   464                           ;main.c: 132: runFlag = 1;
   465  004008  0E01               	movlw	low(01h)
   466  00400A  0109               	movlb	9	; () banked
   467  00400C  0109               	movlb	9	; () banked
   468  00400E  6F00               	movwf	((main@runFlag))&0ffh
   469  004010  0E00               	movlw	high(01h)
   470  004012  0109               	movlb	9	; () banked
   471  004014  6F01               	movwf	((main@runFlag+1))&0ffh
   472                           	line	133
   473                           ;main.c: 133: break;
   474  004016  EF1C  F020         	goto	l414
   475                           	line	134
   476                           	
   477  00401A                     l418:		; BSR set to: ?
   478                           
   479                           	line	124
   480  00401A  0109               	movlb	9	; () banked
   481  00401C  0109               	movlb	9	; () banked
   482  00401E  5105               	movf	((main@buttonCount+1))&0ffh,w
   483  004020  0A80               	xorlw	80h
   484  004022  0F80               	addlw	-((0)^80h)
   485  004024  0E02               	movlw	02h
   486  004026  B4D8               	btfsc	status,2
   487  004028  5D04               	subwf	((main@buttonCount))&0ffh,w
   488  00402A  A0D8               	btfss	status,0
   489  00402C  EF1A  F020         	goto	u7411
   490  004030  EF1C  F020         	goto	u7410
   491  004034                     u7411:
   492  004034  EFCE  F01F         	goto	l413
   493  004038                     u7410:
   494                           	
   495  004038                     l414:		; BSR set to: ?
   496                           
   497                           	line	136
   498                           ;main.c: 134: }
   499                           ;main.c: 135: }
   500                           ;main.c: 136: if(runFlag == 0)
   501  004038  0109               	movlb	9	; () banked
   502  00403A  0109               	movlb	9	; () banked
   503  00403C  5101               	movf	((main@runFlag+1))&0ffh,w
   504  00403E  1100               	iorwf ((main@runFlag))&0ffh,w
   505                           
   506  004040  A4D8               	btfss	status,2
   507  004042  EF25  F020         	goto	u7421
   508  004046  EF27  F020         	goto	u7420
   509  00404A                     u7421:
   510  00404A  EF2B  F020         	goto	l419
   511  00404E                     u7420:
   512                           	line	137
   513                           ;main.c: 137: runTimeMode++;
   514  00404E  0108               	movlb	8	; () banked
   515  004050  0108               	movlb	8	; () banked
   516  004052  4B19               	infsnz	((2073))&0ffh
   517  004054  2B1A               	incf	((2073+1))&0ffh
   518                           	
   519  004056                     l419:		; BSR set to: ?
   520                           
   521                           	line	138
   522                           ;main.c: 138: if(runTimeMode > 3)
   523  004056  0108               	movlb	8	; () banked
   524  004058  0108               	movlb	8	; () banked
   525  00405A  511A               	movf	((2073+1))&0ffh,w
   526  00405C  0A80               	xorlw	80h
   527  00405E  0F80               	addlw	-((0)^80h)
   528  004060  0E04               	movlw	04h
   529  004062  B4D8               	btfsc	status,2
   530  004064  5D19               	subwf	((2073))&0ffh,w
   531  004066  A0D8               	btfss	status,0
   532  004068  EF38  F020         	goto	u7431
   533  00406C  EF3A  F020         	goto	u7430
   534  004070                     u7431:
   535  004070  EF41  F020         	goto	l420
   536  004074                     u7430:
   537                           	line	139
   538                           ;main.c: 139: runTimeMode = 1;
   539  004074  0E01               	movlw	low(01h)
   540  004076  0108               	movlb	8	; () banked
   541  004078  0108               	movlb	8	; () banked
   542  00407A  6F19               	movwf	((2073))&0ffh
   543  00407C  0E00               	movlw	high(01h)
   544  00407E  0108               	movlb	8	; () banked
   545  004080  6F1A               	movwf	((2073+1))&0ffh
   546                           	
   547  004082                     l420:		; BSR set to: ?
   548                           
   549                           	line	141
   550                           ;main.c: 141: LED(runTimeMode);
   551  004082  C819 F930          	movff	(2073),(?_LED)
   552  004086  C81A F931          	movff	(2073+1),(?_LED+1)
   553  00408A  EC5B  F030         	call	_LED	;wreg free
   554                           	line	144
   555                           ;main.c: 144: if(runTimeMode == 3){
   556  00408E  0108               	movlb	8	; () banked
   557  004090  0108               	movlb	8	; () banked
   558  004092  5119               	movf	((2073))&0ffh,w
   559  004094  0A03               	xorlw	3
   560  004096  111A               	iorwf ((2073+1))&0ffh,w
   561                           
   562  004098  A4D8               	btfss	status,2
   563  00409A  EF51  F020         	goto	u7441
   564  00409E  EF53  F020         	goto	u7440
   565  0040A2                     u7441:
   566  0040A2  EFA1  F020         	goto	l421
   567  0040A6                     u7440:
   568                           	line	145
   569                           ;main.c: 145: for(int i = 0; i < 10; i++){
   570  0040A6  0E00               	movlw	low(0)
   571  0040A8  0109               	movlb	9	; () banked
   572  0040AA  0109               	movlb	9	; () banked
   573  0040AC  6F06               	movwf	((main@i))&0ffh
   574  0040AE  0E00               	movlw	high(0)
   575  0040B0  0109               	movlb	9	; () banked
   576  0040B2  6F07               	movwf	((main@i+1))&0ffh
   577  0040B4  0109               	movlb	9	; () banked
   578  0040B6  0109               	movlb	9	; () banked
   579  0040B8  5107               	movf	((main@i+1))&0ffh,w
   580  0040BA  0A80               	xorlw	80h
   581  0040BC  0F80               	addlw	-((0)^80h)
   582  0040BE  0E0A               	movlw	0Ah
   583  0040C0  B4D8               	btfsc	status,2
   584  0040C2  5D06               	subwf	((main@i))&0ffh,w
   585  0040C4  A0D8               	btfss	status,0
   586  0040C6  EF67  F020         	goto	u7451
   587  0040CA  EF69  F020         	goto	u7450
   588  0040CE                     u7451:
   589  0040CE  EF6B  F020         	goto	l422
   590  0040D2                     u7450:
   591  0040D2  EFA1  F020         	goto	l421
   592                           	
   593  0040D6                     l422:		; BSR set to: ?
   594                           
   595                           	line	146
   596                           ;main.c: 146: LED(0);
   597  0040D6  0E00               	movlw	low(0)
   598  0040D8  0109               	movlb	9	; () banked
   599  0040DA  0109               	movlb	9	; () banked
   600  0040DC  6F30               	movwf	((?_LED))&0ffh
   601  0040DE  0E00               	movlw	high(0)
   602  0040E0  0109               	movlb	9	; () banked
   603  0040E2  6F31               	movwf	((?_LED+1))&0ffh
   604  0040E4  EC5B  F030         	call	_LED	;wreg free
   605                           	line	147
   606                           ;main.c: 147: DelayMs(1000);
   607  0040E8  0109               	movlb	9	; () banked
   608  0040EA  6F0A               	movwf	(??_main+10+0)&0ffh
   609  0040EC  0EE8               	movlw	low(0E8h)
   610  0040EE  0109               	movlb	9	; () banked
   611  0040F0  0109               	movlb	9	; () banked
   612  0040F2  6F35               	movwf	((?_DelayMs))&0ffh
   613  0040F4  0109               	movlb	9	; () banked
   614  0040F6  510A               	movf	(??_main+10+0)&0ffh,w
   615  0040F8  ECD9  F02F         	call	_DelayMs	;wreg free
   616                           	line	148
   617                           ;main.c: 148: LED(runTimeMode);
   618  0040FC  C819 F930          	movff	(2073),(?_LED)
   619  004100  C81A F931          	movff	(2073+1),(?_LED+1)
   620  004104  EC5B  F030         	call	_LED	;wreg free
   621                           	line	149
   622                           ;main.c: 149: DelayMs(10000);
   623  004108  0109               	movlb	9	; () banked
   624  00410A  6F0A               	movwf	(??_main+10+0)&0ffh
   625  00410C  0E10               	movlw	low(010h)
   626  00410E  0109               	movlb	9	; () banked
   627  004110  0109               	movlb	9	; () banked
   628  004112  6F35               	movwf	((?_DelayMs))&0ffh
   629  004114  0109               	movlb	9	; () banked
   630  004116  510A               	movf	(??_main+10+0)&0ffh,w
   631  004118  ECD9  F02F         	call	_DelayMs	;wreg free
   632                           	line	145
   633  00411C  0109               	movlb	9	; () banked
   634  00411E  0109               	movlb	9	; () banked
   635  004120  4B06               	infsnz	((main@i))&0ffh
   636  004122  2B07               	incf	((main@i+1))&0ffh
   637  004124  0109               	movlb	9	; () banked
   638  004126  0109               	movlb	9	; () banked
   639  004128  5107               	movf	((main@i+1))&0ffh,w
   640  00412A  0A80               	xorlw	80h
   641  00412C  0F80               	addlw	-((0)^80h)
   642  00412E  0E0A               	movlw	0Ah
   643  004130  B4D8               	btfsc	status,2
   644  004132  5D06               	subwf	((main@i))&0ffh,w
   645  004134  A0D8               	btfss	status,0
   646  004136  EF9F  F020         	goto	u7461
   647  00413A  EFA1  F020         	goto	u7460
   648  00413E                     u7461:
   649  00413E  EF6B  F020         	goto	l422
   650  004142                     u7460:
   651                           	
   652  004142                     l423:		; BSR set to: ?
   653                           
   654                           	line	151
   655                           	
   656  004142                     l421:		; BSR set to: ?
   657                           
   658                           	line	152
   659                           ;main.c: 150: }
   660                           ;main.c: 151: }
   661                           ;main.c: 152: if(switchPosition != RB5)
   662  004142  0E00               	movlw	0
   663  004144  BA81               	btfsc	c:(31757/8),(31757)&7	;volatile
   664  004146  0E01               	movlw	1
   665  004148  0109               	movlb	9	; () banked
   666  00414A  6F0A               	movwf	(??_main+10+0)&0ffh
   667  00414C  6B0B               	clrf	(??_main+10+0+1)&0ffh
   668  00414E  0108               	movlb	8	; () banked
   669  004150  0108               	movlb	8	; () banked
   670  004152  511C               	movf	((2075+1))&0ffh,w
   671  004154  0109               	movlb	9	; () banked
   672  004156  190B               	xorwf	(??_main+10+1)&0ffh,w
   673  004158  E105               	bnz	u7475
   674  00415A  0108               	movlb	8	; () banked
   675  00415C  0108               	movlb	8	; () banked
   676  00415E  511B               	movf	((2075))&0ffh,w
   677  004160  0109               	movlb	9	; () banked
   678  004162  190A               	xorwf	(??_main+10+0)&0ffh,w
   679  004164                     u7475:
   680                           
   681  004164  B4D8               	btfsc	status,2
   682  004166  EFB7  F020         	goto	u7471
   683  00416A  EFB9  F020         	goto	u7470
   684  00416E                     u7471:
   685  00416E  EFBB  F020         	goto	l425
   686  004172                     u7470:
   687                           	line	153
   688                           ;main.c: 153: break;
   689  004172  EFBD  F020         	goto	l411
   690                           	
   691  004176                     l425:		; BSR set to: ?
   692                           
   693                           	line	154
   694                           ;main.c: 154: }
   695  004176  EFB6  F01F         	goto	l410
   696                           	
   697  00417A                     l411:		; BSR set to: ?
   698                           
   699                           	line	155
   700                           ;main.c: 155: runFlag = 0;
   701  00417A  0E00               	movlw	low(0)
   702  00417C  0109               	movlb	9	; () banked
   703  00417E  0109               	movlb	9	; () banked
   704  004180  6F00               	movwf	((main@runFlag))&0ffh
   705  004182  0E00               	movlw	high(0)
   706  004184  0109               	movlb	9	; () banked
   707  004186  6F01               	movwf	((main@runFlag+1))&0ffh
   708                           	line	159
   709                           ;main.c: 159: switch (runTimeMode){
   710  004188  EFEC  F021         	goto	l427
   711                           	line	160
   712                           ;main.c: 160: case 1:
   713                           	
   714  00418C                     l428:		; BSR set to: ?
   715                           
   716                           	line	161
   717                           ;main.c: 161: MazeSetup();
   718  00418C  EC40  F022         	call	_MazeSetup	;wreg free
   719                           	line	162
   720                           ;main.c: 162: break;
   721  004190  EF07  F022         	goto	l426
   722                           	line	163
   723                           ;main.c: 163: case 2:
   724                           	
   725  004194                     l429:		; BSR set to: ?
   726                           
   727                           	line	164
   728                           ;main.c: 164: MazeSetup();
   729  004194  EC40  F022         	call	_MazeSetup	;wreg free
   730                           	line	168
   731                           ;main.c: 168: LED(mazeStart);
   732  004198  C817 F930          	movff	(2071),(?_LED)
   733  00419C  C818 F931          	movff	(2071+1),(?_LED+1)
   734  0041A0  EC5B  F030         	call	_LED	;wreg free
   735                           	line	169
   736                           ;main.c: 169: switchPosition = RB5;
   737  0041A4  0E00               	movlw	0
   738  0041A6  BA81               	btfsc	c:(31757/8),(31757)&7	;volatile
   739  0041A8  0E01               	movlw	1
   740  0041AA  0108               	movlb	8	; () banked
   741  0041AC  0108               	movlb	8	; () banked
   742  0041AE  6F1B               	movwf	((2075))&0ffh
   743  0041B0  0108               	movlb	8	; () banked
   744  0041B2  6B1C               	clrf	((2075+1))&0ffh
   745                           	line	170
   746                           ;main.c: 170: for(;;){
   747                           	
   748  0041B4                     l430:		; BSR set to: ?
   749                           
   750                           	line	171
   751                           ;main.c: 171: for(int buttonCount = 0; buttonCou
                                 nt <=1;){
   752  0041B4  0E00               	movlw	low(0)
   753  0041B6  0109               	movlb	9	; () banked
   754  0041B8  0109               	movlb	9	; () banked
   755  0041BA  6F08               	movwf	((main@buttonCount_110))&0ffh
   756  0041BC  0E00               	movlw	high(0)
   757  0041BE  0109               	movlb	9	; () banked
   758  0041C0  6F09               	movwf	((main@buttonCount_110+1))&0ffh
   759  0041C2  0109               	movlb	9	; () banked
   760  0041C4  0109               	movlb	9	; () banked
   761  0041C6  5109               	movf	((main@buttonCount_110+1))&0ffh,w
   762  0041C8  0A80               	xorlw	80h
   763  0041CA  0F80               	addlw	-((0)^80h)
   764  0041CC  0E02               	movlw	02h
   765  0041CE  B4D8               	btfsc	status,2
   766  0041D0  5D08               	subwf	((main@buttonCount_110))&0ffh,w
   767  0041D2  A0D8               	btfss	status,0
   768  0041D4  EFEE  F020         	goto	u7481
   769  0041D8  EFF0  F020         	goto	u7480
   770  0041DC                     u7481:
   771  0041DC  EFF2  F020         	goto	l433
   772  0041E0                     u7480:
   773  0041E0  EF40  F021         	goto	l434
   774                           	
   775  0041E4                     l433:		; BSR set to: ?
   776                           
   777                           	line	172
   778                           ;main.c: 172: DelayMs(1000);
   779  0041E4  0109               	movlb	9	; () banked
   780  0041E6  6F0A               	movwf	(??_main+10+0)&0ffh
   781  0041E8  0EE8               	movlw	low(0E8h)
   782  0041EA  0109               	movlb	9	; () banked
   783  0041EC  0109               	movlb	9	; () banked
   784  0041EE  6F35               	movwf	((?_DelayMs))&0ffh
   785  0041F0  0109               	movlb	9	; () banked
   786  0041F2  510A               	movf	(??_main+10+0)&0ffh,w
   787  0041F4  ECD9  F02F         	call	_DelayMs	;wreg free
   788                           	line	173
   789                           ;main.c: 173: if(RD4 == 0)
   790  0041F8  B883               	btfsc	c:(31772/8),(31772)&7	;volatile
   791  0041FA  EF01  F021         	goto	u7491
   792  0041FE  EF03  F021         	goto	u7490
   793  004202                     u7491:
   794  004202  EF09  F021         	goto	l436
   795  004206                     u7490:
   796                           	line	174
   797                           ;main.c: 174: buttonCount++;
   798  004206  0109               	movlb	9	; () banked
   799  004208  0109               	movlb	9	; () banked
   800  00420A  4B08               	infsnz	((main@buttonCount_110))&0ffh
   801  00420C  2B09               	incf	((main@buttonCount_110+1))&0ffh
   802  00420E  EF10  F021         	goto	l437
   803                           	line	175
   804                           	
   805  004212                     l436:		; BSR set to: ?
   806                           
   807                           	line	176
   808                           ;main.c: 175: else
   809                           ;main.c: 176: buttonCount = 0;
   810  004212  0E00               	movlw	low(0)
   811  004214  0109               	movlb	9	; () banked
   812  004216  0109               	movlb	9	; () banked
   813  004218  6F08               	movwf	((main@buttonCount_110))&0ffh
   814  00421A  0E00               	movlw	high(0)
   815  00421C  0109               	movlb	9	; () banked
   816  00421E  6F09               	movwf	((main@buttonCount_110+1))&0ffh
   817                           	
   818  004220                     l437:		; BSR set to: ?
   819                           
   820                           	line	178
   821                           ;main.c: 178: if(switchPosition != RB5){
   822  004220  0E00               	movlw	0
   823  004222  BA81               	btfsc	c:(31757/8),(31757)&7	;volatile
   824  004224  0E01               	movlw	1
   825  004226  0109               	movlb	9	; () banked
   826  004228  6F0A               	movwf	(??_main+10+0)&0ffh
   827  00422A  6B0B               	clrf	(??_main+10+0+1)&0ffh
   828  00422C  0108               	movlb	8	; () banked
   829  00422E  0108               	movlb	8	; () banked
   830  004230  511C               	movf	((2075+1))&0ffh,w
   831  004232  0109               	movlb	9	; () banked
   832  004234  190B               	xorwf	(??_main+10+1)&0ffh,w
   833  004236  E105               	bnz	u7505
   834  004238  0108               	movlb	8	; () banked
   835  00423A  0108               	movlb	8	; () banked
   836  00423C  511B               	movf	((2075))&0ffh,w
   837  00423E  0109               	movlb	9	; () banked
   838  004240  190A               	xorwf	(??_main+10+0)&0ffh,w
   839  004242                     u7505:
   840                           
   841  004242  B4D8               	btfsc	status,2
   842  004244  EF26  F021         	goto	u7501
   843  004248  EF28  F021         	goto	u7500
   844  00424C                     u7501:
   845  00424C  EF31  F021         	goto	l438
   846  004250                     u7500:
   847                           	line	179
   848                           ;main.c: 179: runFlag = 1;
   849  004250  0E01               	movlw	low(01h)
   850  004252  0109               	movlb	9	; () banked
   851  004254  0109               	movlb	9	; () banked
   852  004256  6F00               	movwf	((main@runFlag))&0ffh
   853  004258  0E00               	movlw	high(01h)
   854  00425A  0109               	movlb	9	; () banked
   855  00425C  6F01               	movwf	((main@runFlag+1))&0ffh
   856                           	line	180
   857                           ;main.c: 180: break;
   858  00425E  EF40  F021         	goto	l434
   859                           	line	181
   860                           	
   861  004262                     l438:		; BSR set to: ?
   862                           
   863                           	line	171
   864  004262  0109               	movlb	9	; () banked
   865  004264  0109               	movlb	9	; () banked
   866  004266  5109               	movf	((main@buttonCount_110+1))&0ffh,w
   867  004268  0A80               	xorlw	80h
   868  00426A  0F80               	addlw	-((0)^80h)
   869  00426C  0E02               	movlw	02h
   870  00426E  B4D8               	btfsc	status,2
   871  004270  5D08               	subwf	((main@buttonCount_110))&0ffh,w
   872  004272  A0D8               	btfss	status,0
   873  004274  EF3E  F021         	goto	u7511
   874  004278  EF40  F021         	goto	u7510
   875  00427C                     u7511:
   876  00427C  EFF2  F020         	goto	l433
   877  004280                     u7510:
   878                           	
   879  004280                     l434:		; BSR set to: ?
   880                           
   881                           	line	183
   882                           ;main.c: 181: }
   883                           ;main.c: 182: }
   884                           ;main.c: 183: if(runFlag == 0)
   885  004280  0109               	movlb	9	; () banked
   886  004282  0109               	movlb	9	; () banked
   887  004284  5101               	movf	((main@runFlag+1))&0ffh,w
   888  004286  1100               	iorwf ((main@runFlag))&0ffh,w
   889                           
   890  004288  A4D8               	btfss	status,2
   891  00428A  EF49  F021         	goto	u7521
   892  00428E  EF4B  F021         	goto	u7520
   893  004292                     u7521:
   894  004292  EF4F  F021         	goto	l439
   895  004296                     u7520:
   896                           	line	184
   897                           ;main.c: 184: mazeStart++;
   898  004296  0108               	movlb	8	; () banked
   899  004298  0108               	movlb	8	; () banked
   900  00429A  4B17               	infsnz	((2071))&0ffh
   901  00429C  2B18               	incf	((2071+1))&0ffh
   902                           	
   903  00429E                     l439:		; BSR set to: ?
   904                           
   905                           	line	186
   906                           ;main.c: 186: if(mazeStart > 4)
   907  00429E  0108               	movlb	8	; () banked
   908  0042A0  0108               	movlb	8	; () banked
   909  0042A2  5118               	movf	((2071+1))&0ffh,w
   910  0042A4  0A80               	xorlw	80h
   911  0042A6  0F80               	addlw	-((0)^80h)
   912  0042A8  0E05               	movlw	05h
   913  0042AA  B4D8               	btfsc	status,2
   914  0042AC  5D17               	subwf	((2071))&0ffh,w
   915  0042AE  A0D8               	btfss	status,0
   916  0042B0  EF5C  F021         	goto	u7531
   917  0042B4  EF5E  F021         	goto	u7530
   918  0042B8                     u7531:
   919  0042B8  EF65  F021         	goto	l440
   920  0042BC                     u7530:
   921                           	line	187
   922                           ;main.c: 187: mazeStart = 1;
   923  0042BC  0E01               	movlw	low(01h)
   924  0042BE  0108               	movlb	8	; () banked
   925  0042C0  0108               	movlb	8	; () banked
   926  0042C2  6F17               	movwf	((2071))&0ffh
   927  0042C4  0E00               	movlw	high(01h)
   928  0042C6  0108               	movlb	8	; () banked
   929  0042C8  6F18               	movwf	((2071+1))&0ffh
   930                           	
   931  0042CA                     l440:		; BSR set to: ?
   932                           
   933                           	line	189
   934                           ;main.c: 189: LED(mazeStart);
   935  0042CA  C817 F930          	movff	(2071),(?_LED)
   936  0042CE  C818 F931          	movff	(2071+1),(?_LED+1)
   937  0042D2  EC5B  F030         	call	_LED	;wreg free
   938                           	line	190
   939                           ;main.c: 190: if(switchPosition != RB5)
   940  0042D6  0E00               	movlw	0
   941  0042D8  BA81               	btfsc	c:(31757/8),(31757)&7	;volatile
   942  0042DA  0E01               	movlw	1
   943  0042DC  0109               	movlb	9	; () banked
   944  0042DE  6F0A               	movwf	(??_main+10+0)&0ffh
   945  0042E0  6B0B               	clrf	(??_main+10+0+1)&0ffh
   946  0042E2  0108               	movlb	8	; () banked
   947  0042E4  0108               	movlb	8	; () banked
   948  0042E6  511C               	movf	((2075+1))&0ffh,w
   949  0042E8  0109               	movlb	9	; () banked
   950  0042EA  190B               	xorwf	(??_main+10+1)&0ffh,w
   951  0042EC  E105               	bnz	u7545
   952  0042EE  0108               	movlb	8	; () banked
   953  0042F0  0108               	movlb	8	; () banked
   954  0042F2  511B               	movf	((2075))&0ffh,w
   955  0042F4  0109               	movlb	9	; () banked
   956  0042F6  190A               	xorwf	(??_main+10+0)&0ffh,w
   957  0042F8                     u7545:
   958                           
   959  0042F8  B4D8               	btfsc	status,2
   960  0042FA  EF81  F021         	goto	u7541
   961  0042FE  EF83  F021         	goto	u7540
   962  004302                     u7541:
   963  004302  EF85  F021         	goto	l441
   964  004306                     u7540:
   965                           	line	191
   966                           ;main.c: 191: break;
   967  004306  EF87  F021         	goto	l431
   968                           	
   969  00430A                     l441:		; BSR set to: ?
   970                           
   971                           	line	192
   972                           ;main.c: 192: }
   973  00430A  EFDA  F020         	goto	l430
   974                           	
   975  00430E                     l431:		; BSR set to: ?
   976                           
   977                           	line	194
   978                           ;main.c: 194: break;
   979  00430E  EF07  F022         	goto	l426
   980                           	line	195
   981                           ;main.c: 195: case 3:
   982                           	
   983  004312                     l442:		; BSR set to: ?
   984                           
   985                           	line	196
   986                           ;main.c: 196: ClearMaze(1,1);
   987  004312  0E01               	movlw	low(01h)
   988  004314  0109               	movlb	9	; () banked
   989  004316  0109               	movlb	9	; () banked
   990  004318  6F1C               	movwf	(0+(?_ClearMaze+02h))&0ffh
   991  00431A  0E00               	movlw	high(01h)
   992  00431C  0109               	movlb	9	; () banked
   993  00431E  6F1D               	movwf	(1+(?_ClearMaze+02h))&0ffh
   994  004320  0E01               	movlw	low(01h)
   995  004322  0109               	movlb	9	; () banked
   996  004324  0109               	movlb	9	; () banked
   997  004326  6F1A               	movwf	((?_ClearMaze))&0ffh
   998  004328  0E00               	movlw	high(01h)
   999  00432A  0109               	movlb	9	; () banked
  1000  00432C  6F1B               	movwf	((?_ClearMaze+1))&0ffh
  1001  00432E  EC8B  F029         	call	_ClearMaze	;wreg free
  1002                           	line	197
  1003                           ;main.c: 197: for(int i = 0;i < 1000;i++){
  1004  004332  0E00               	movlw	low(0)
  1005  004334  0109               	movlb	9	; () banked
  1006  004336  0109               	movlb	9	; () banked
  1007  004338  6F02               	movwf	((main@i_111))&0ffh
  1008  00433A  0E00               	movlw	high(0)
  1009  00433C  0109               	movlb	9	; () banked
  1010  00433E  6F03               	movwf	((main@i_111+1))&0ffh
  1011  004340  0109               	movlb	9	; () banked
  1012  004342  0109               	movlb	9	; () banked
  1013  004344  5103               	movf	((main@i_111+1))&0ffh,w
  1014  004346  0A80               	xorlw	80h
  1015  004348  0F7D               	addlw	-((03h)^80h)
  1016  00434A  0EE8               	movlw	0E8h
  1017  00434C  B4D8               	btfsc	status,2
  1018  00434E  5D02               	subwf	((main@i_111))&0ffh,w
  1019  004350  A0D8               	btfss	status,0
  1020  004352  EFAD  F021         	goto	u7551
  1021  004356  EFAF  F021         	goto	u7550
  1022  00435A                     u7551:
  1023  00435A  EFB1  F021         	goto	l443
  1024  00435E                     u7550:
  1025  00435E  EF87  F021         	goto	l431
  1026                           	
  1027  004362                     l443:		; BSR set to: ?
  1028                           
  1029                           	line	198
  1030                           ;main.c: 198: LED(7);
  1031  004362  0E07               	movlw	low(07h)
  1032  004364  0109               	movlb	9	; () banked
  1033  004366  0109               	movlb	9	; () banked
  1034  004368  6F30               	movwf	((?_LED))&0ffh
  1035  00436A  0E00               	movlw	high(07h)
  1036  00436C  0109               	movlb	9	; () banked
  1037  00436E  6F31               	movwf	((?_LED+1))&0ffh
  1038  004370  EC5B  F030         	call	_LED	;wreg free
  1039                           	line	199
  1040                           ;main.c: 199: DelayMs(1000);
  1041  004374  0109               	movlb	9	; () banked
  1042  004376  6F0A               	movwf	(??_main+10+0)&0ffh
  1043  004378  0EE8               	movlw	low(0E8h)
  1044  00437A  0109               	movlb	9	; () banked
  1045  00437C  0109               	movlb	9	; () banked
  1046  00437E  6F35               	movwf	((?_DelayMs))&0ffh
  1047  004380  0109               	movlb	9	; () banked
  1048  004382  510A               	movf	(??_main+10+0)&0ffh,w
  1049  004384  ECD9  F02F         	call	_DelayMs	;wreg free
  1050                           	line	200
  1051                           ;main.c: 200: LED(0);
  1052  004388  0E00               	movlw	low(0)
  1053  00438A  0109               	movlb	9	; () banked
  1054  00438C  0109               	movlb	9	; () banked
  1055  00438E  6F30               	movwf	((?_LED))&0ffh
  1056  004390  0E00               	movlw	high(0)
  1057  004392  0109               	movlb	9	; () banked
  1058  004394  6F31               	movwf	((?_LED+1))&0ffh
  1059  004396  EC5B  F030         	call	_LED	;wreg free
  1060                           	line	201
  1061                           ;main.c: 201: DelayMs(1000);
  1062  00439A  0109               	movlb	9	; () banked
  1063  00439C  6F0A               	movwf	(??_main+10+0)&0ffh
  1064  00439E  0EE8               	movlw	low(0E8h)
  1065  0043A0  0109               	movlb	9	; () banked
  1066  0043A2  0109               	movlb	9	; () banked
  1067  0043A4  6F35               	movwf	((?_DelayMs))&0ffh
  1068  0043A6  0109               	movlb	9	; () banked
  1069  0043A8  510A               	movf	(??_main+10+0)&0ffh,w
  1070  0043AA  ECD9  F02F         	call	_DelayMs	;wreg free
  1071                           	line	197
  1072  0043AE  0109               	movlb	9	; () banked
  1073  0043B0  0109               	movlb	9	; () banked
  1074  0043B2  4B02               	infsnz	((main@i_111))&0ffh
  1075  0043B4  2B03               	incf	((main@i_111+1))&0ffh
  1076  0043B6  0109               	movlb	9	; () banked
  1077  0043B8  0109               	movlb	9	; () banked
  1078  0043BA  5103               	movf	((main@i_111+1))&0ffh,w
  1079  0043BC  0A80               	xorlw	80h
  1080  0043BE  0F7D               	addlw	-((03h)^80h)
  1081  0043C0  0EE8               	movlw	0E8h
  1082  0043C2  B4D8               	btfsc	status,2
  1083  0043C4  5D02               	subwf	((main@i_111))&0ffh,w
  1084  0043C6  A0D8               	btfss	status,0
  1085  0043C8  EFE8  F021         	goto	u7561
  1086  0043CC  EFEA  F021         	goto	u7560
  1087  0043D0                     u7561:
  1088  0043D0  EFB1  F021         	goto	l443
  1089  0043D4                     u7560:
  1090                           	
  1091  0043D4                     l444:		; BSR set to: ?
  1092                           
  1093                           	line	203
  1094                           ;main.c: 202: }
  1095                           ;main.c: 203: break;
  1096  0043D4  EF07  F022         	goto	l426
  1097                           	line	159
  1098                           	
  1099  0043D8                     l427:		; BSR set to: ?
  1100                           
  1101  0043D8  0108               	movlb	8	; () banked
  1102  0043DA  C819 F90A          	movff	(2073),??_main+10+0
  1103  0043DE  0108               	movlb	8	; () banked
  1104  0043E0  C81A F90B          	movff	(2073+1),??_main+10+0+1
  1105  0043E4  0109               	movlb	9	; () banked
  1106  0043E6  EF01  F022         	goto	l30041
  1107  0043EA                     l30042:
  1108  0043EA  0109               	movlb	9	; () banked
  1109  0043EC  510A               	movf	(??_main+10+0)&0ffh,w
  1110  0043EE  0A01               	xorlw	1 ^ 0
  1111  0043F0  E101 D6CC          	bz	l428
  1112  0043F4  0A03               	xorlw	2 ^ 1
  1113  0043F6  E101 D6CD          	bz	l429
  1114  0043FA  0A01               	xorlw	3 ^ 2
  1115  0043FC  E08A               	bz	l442
  1116  0043FE  EF07  F022         	goto	l426
  1117                           
  1118  004402                     l30041:
  1119  004402  0109               	movlb	9	; () banked
  1120  004404  510B               	movf	(??_main+10+1)&0ffh,w
  1121  004406  0A00               	xorlw	0 ^ 0
  1122  004408  E0F0               	bz	l30042
  1123  00440A  EF07  F022         	goto	l426
  1124                           
  1125                           	line	204
  1126                           	
  1127  00440E                     l426:		; BSR set to: ?
  1128                           
  1129                           	line	208
  1130                           ;main.c: 208: ConfigureInterrupts();
  1131  00440E  EC71  F030         	call	_ConfigureInterrupts	;wreg free
  1132                           	line	211
  1133                           ;main.c: 211: mouseDirection = 3;
  1134  004412  0E03               	movlw	low(03h)
  1135  004414  0108               	movlb	8	; () banked
  1136  004416  0108               	movlb	8	; () banked
  1137  004418  6F06               	movwf	((2054))&0ffh
  1138  00441A  0E00               	movlw	high(03h)
  1139  00441C  0108               	movlb	8	; () banked
  1140  00441E  6F07               	movwf	((2054+1))&0ffh
  1141                           	line	213
  1142                           ;main.c: 213: DisableInterrupts();
  1143  004420  EC66  F030         	call	_DisableInterrupts	;wreg free
  1144                           	line	215
  1145                           ;main.c: 215: DelayMs(500);
  1146  004424  0109               	movlb	9	; () banked
  1147  004426  6F0A               	movwf	(??_main+10+0)&0ffh
  1148  004428  0EF4               	movlw	low(0F4h)
  1149  00442A  0109               	movlb	9	; () banked
  1150  00442C  0109               	movlb	9	; () banked
  1151  00442E  6F35               	movwf	((?_DelayMs))&0ffh
  1152  004430  0109               	movlb	9	; () banked
  1153  004432  510A               	movf	(??_main+10+0)&0ffh,w
  1154  004434  ECD9  F02F         	call	_DelayMs	;wreg free
  1155                           	line	216
  1156                           ;main.c: 216: DelayMs(500);
  1157  004438  0109               	movlb	9	; () banked
  1158  00443A  6F0A               	movwf	(??_main+10+0)&0ffh
  1159  00443C  0EF4               	movlw	low(0F4h)
  1160  00443E  0109               	movlb	9	; () banked
  1161  004440  0109               	movlb	9	; () banked
  1162  004442  6F35               	movwf	((?_DelayMs))&0ffh
  1163  004444  0109               	movlb	9	; () banked
  1164  004446  510A               	movf	(??_main+10+0)&0ffh,w
  1165  004448  ECD9  F02F         	call	_DelayMs	;wreg free
  1166                           	line	217
  1167                           ;main.c: 217: DelayMs(500);
  1168  00444C  0109               	movlb	9	; () banked
  1169  00444E  6F0A               	movwf	(??_main+10+0)&0ffh
  1170  004450  0EF4               	movlw	low(0F4h)
  1171  004452  0109               	movlb	9	; () banked
  1172  004454  0109               	movlb	9	; () banked
  1173  004456  6F35               	movwf	((?_DelayMs))&0ffh
  1174  004458  0109               	movlb	9	; () banked
  1175  00445A  510A               	movf	(??_main+10+0)&0ffh,w
  1176  00445C  ECD9  F02F         	call	_DelayMs	;wreg free
  1177                           	line	218
  1178                           ;main.c: 218: DelayMs(500);
  1179  004460  0109               	movlb	9	; () banked
  1180  004462  6F0A               	movwf	(??_main+10+0)&0ffh
  1181  004464  0EF4               	movlw	low(0F4h)
  1182  004466  0109               	movlb	9	; () banked
  1183  004468  0109               	movlb	9	; () banked
  1184  00446A  6F35               	movwf	((?_DelayMs))&0ffh
  1185  00446C  0109               	movlb	9	; () banked
  1186  00446E  510A               	movf	(??_main+10+0)&0ffh,w
  1187  004470  ECD9  F02F         	call	_DelayMs	;wreg free
  1188                           	line	220
  1189                           ;main.c: 220: ConfigureInterrupts();
  1190  004474  EC71  F030         	call	_ConfigureInterrupts	;wreg free
  1191                           	line	222
  1192                           ;main.c: 222: SolveMaze();
  1193  004478  ECAF  F013         	call	_SolveMaze	;wreg free
  1194                           	line	224
  1195                           ;main.c: 224: }
  1196  00447C                     l409:
  1197                           			; BSR set to: ?
  1198                           
  1199                           	global	start
  1200  00447C  EF0C  F000         	goto	start
  1201                           	opt stack 0
  1202                           GLOBAL __end_of_main
  1203  004480                     	__end_of_main:
  1204                           	FNSIZE	_main,12,0
  1205                           ; =============== function _main ends ==========
                                 ==
  1206                           
  1207                           	signat	_main,88
  1208                           	global	_MazeSetup
  1209                           	global	??_MazeSetup
  1210                           	global	?_MazeSetup
  1211                           
  1212                           ; *************** function _MazeSetup **********
                                 *******
  1213                           ; Defined at:
  1214                           ;		line 335 in file "C:\Users\tab\Desktop\electr
                                 onics\micro_mouse\WORKING_SAC\main.c"
  1215                           ; Parameters:
  1216                           ;		None
  1217                           ; Auto variables:
  1218                           ;		i           	       	type: short 
  1219                           ;		j           	       	type: short 
  1220                           ; Return value:
  1221                           ;		type: void 
  1222                           ;		size: 0
  1223                           ; Registers used:
  1224                           ;		wreg, fsr0l, fsr0h, status,2, status,0, cstac
                                 k
  1225                           ; Tracked objects:
  1226                           ;		On entry : 0/0
  1227                           ;		On exit  : 0/0
  1228                           ;		Unchanged: 0/0
  1229                           ; Data sizes:
  1230                           ;		Autos:    4
  1231                           ;		Params:   0
  1232                           ;		Temp:    10
  1233                           ;		Total:   14
  1234                           ; This function calls:
  1235                           ;		_RestoreMaze
  1236                           ;		_ClearMaze
  1237                           ; This function is called by:
  1238                           ;		_main
  1239                           ; This function uses a non-reentrant model
  1240                           ; 
  1241                                   psect   text1,class=CODE,space=0,reloc=2
  1242                           
  1243                           	opt lm
  1244                           	file	"C:\Users\tab\Desktop\electronics\micro_mo
                                 use\WORKING_SAC\main.c"
  1245                           	line	335
  1246  000000                     	__size_of_MazeSetup	equ	__end_of_MazeSetup-_Maz
                                 eSetup
  1247                           ;main.c: 335: void MazeSetup(){
  1248                           	
  1249  004480                     _MazeSetup:		; BSR set to: ?
  1250                           
  1251                           	opt stack 29
  1252                           	line	336
  1253                           ;main.c: 336: if(runTimeMode == 1)
  1254  004480  0108               	movlb	8	; () banked
  1255  004482  0108               	movlb	8	; () banked
  1256  004484  0519               	decf	((2073))&0ffh,w
  1257  004486  111A               	iorwf ((2073+1))&0ffh,w
  1258                           
  1259  004488  A4D8               	btfss	status,2
  1260  00448A  EF49  F022         	goto	u7241
  1261  00448E  EF4B  F022         	goto	u7240
  1262  004492                     u7241:
  1263  004492  EF4F  F022         	goto	l457
  1264  004496                     u7240:
  1265                           	line	337
  1266                           ;main.c: 337: RestoreMaze();
  1267  004496  EC20  F028         	call	_RestoreMaze	;wreg free
  1268  00449A  EF3B  F024         	goto	l458
  1269                           	line	339
  1270                           	
  1271  00449E                     l457:		; BSR set to: ?
  1272                           
  1273                           ;main.c: 339: else if (runTimeMode == 2){
  1274  00449E  0108               	movlb	8	; () banked
  1275  0044A0  0108               	movlb	8	; () banked
  1276  0044A2  5119               	movf	((2073))&0ffh,w
  1277  0044A4  0A02               	xorlw	2
  1278  0044A6  111A               	iorwf ((2073+1))&0ffh,w
  1279                           
  1280  0044A8  A4D8               	btfss	status,2
  1281  0044AA  EF59  F022         	goto	u7251
  1282  0044AE  EF5B  F022         	goto	u7250
  1283  0044B2                     u7251:
  1284  0044B2  EF3B  F024         	goto	l458
  1285  0044B6                     u7250:
  1286                           	line	340
  1287                           ;main.c: 340: ClearMaze(1, 0);
  1288  0044B6  0E00               	movlw	low(0)
  1289  0044B8  0109               	movlb	9	; () banked
  1290  0044BA  0109               	movlb	9	; () banked
  1291  0044BC  6F1C               	movwf	(0+(?_ClearMaze+02h))&0ffh
  1292  0044BE  0E00               	movlw	high(0)
  1293  0044C0  0109               	movlb	9	; () banked
  1294  0044C2  6F1D               	movwf	(1+(?_ClearMaze+02h))&0ffh
  1295  0044C4  0E01               	movlw	low(01h)
  1296  0044C6  0109               	movlb	9	; () banked
  1297  0044C8  0109               	movlb	9	; () banked
  1298  0044CA  6F1A               	movwf	((?_ClearMaze))&0ffh
  1299  0044CC  0E00               	movlw	high(01h)
  1300  0044CE  0109               	movlb	9	; () banked
  1301  0044D0  6F1B               	movwf	((?_ClearMaze+1))&0ffh
  1302  0044D2  EC8B  F029         	call	_ClearMaze	;wreg free
  1303                           	line	342
  1304                           ;main.c: 342: for(short i = 0; i < 16; i++){
  1305  0044D6  0E00               	movlw	low(0)
  1306  0044D8  0109               	movlb	9	; () banked
  1307  0044DA  0109               	movlb	9	; () banked
  1308  0044DC  6F0C               	movwf	((MazeSetup@i))&0ffh
  1309  0044DE  0E00               	movlw	high(0)
  1310  0044E0  0109               	movlb	9	; () banked
  1311  0044E2  6F0D               	movwf	((MazeSetup@i+1))&0ffh
  1312  0044E4  0109               	movlb	9	; () banked
  1313  0044E6  0109               	movlb	9	; () banked
  1314  0044E8  510D               	movf	((MazeSetup@i+1))&0ffh,w
  1315  0044EA  0A80               	xorlw	80h
  1316  0044EC  0F80               	addlw	-((0)^80h)
  1317  0044EE  0E10               	movlw	010h
  1318  0044F0  B4D8               	btfsc	status,2
  1319  0044F2  5D0C               	subwf	((MazeSetup@i))&0ffh,w
  1320  0044F4  A0D8               	btfss	status,0
  1321  0044F6  EF7F  F022         	goto	u7261
  1322  0044FA  EF81  F022         	goto	u7260
  1323  0044FE                     u7261:
  1324  0044FE  EF83  F022         	goto	l460
  1325  004502                     u7260:
  1326  004502  EF3B  F024         	goto	l458
  1327                           	
  1328  004506                     l460:		; BSR set to: ?
  1329                           
  1330                           	line	343
  1331                           ;main.c: 343: for(short j = 0; j < 16; j++){
  1332  004506  0E00               	movlw	low(0)
  1333  004508  0109               	movlb	9	; () banked
  1334  00450A  0109               	movlb	9	; () banked
  1335  00450C  6F0E               	movwf	((MazeSetup@j))&0ffh
  1336  00450E  0E00               	movlw	high(0)
  1337  004510  0109               	movlb	9	; () banked
  1338  004512  6F0F               	movwf	((MazeSetup@j+1))&0ffh
  1339  004514  0109               	movlb	9	; () banked
  1340  004516  0109               	movlb	9	; () banked
  1341  004518  510F               	movf	((MazeSetup@j+1))&0ffh,w
  1342  00451A  0A80               	xorlw	80h
  1343  00451C  0F80               	addlw	-((0)^80h)
  1344  00451E  0E10               	movlw	010h
  1345  004520  B4D8               	btfsc	status,2
  1346  004522  5D0E               	subwf	((MazeSetup@j))&0ffh,w
  1347  004524  A0D8               	btfss	status,0
  1348  004526  EF97  F022         	goto	u7271
  1349  00452A  EF99  F022         	goto	u7270
  1350  00452E                     u7271:
  1351  00452E  EF9B  F022         	goto	l463
  1352  004532                     u7270:
  1353  004532  EF28  F024         	goto	l464
  1354                           	
  1355  004536                     l463:		; BSR set to: ?
  1356                           
  1357                           	line	344
  1358                           ;main.c: 344: if(i < 8){
  1359  004536  0109               	movlb	9	; () banked
  1360  004538  0109               	movlb	9	; () banked
  1361  00453A  510D               	movf	((MazeSetup@i+1))&0ffh,w
  1362  00453C  0A80               	xorlw	80h
  1363  00453E  0F80               	addlw	-((0)^80h)
  1364  004540  0E08               	movlw	08h
  1365  004542  B4D8               	btfsc	status,2
  1366  004544  5D0C               	subwf	((MazeSetup@i))&0ffh,w
  1367  004546  B0D8               	btfsc	status,0
  1368  004548  EFA8  F022         	goto	u7281
  1369  00454C  EFAA  F022         	goto	u7280
  1370  004550                     u7281:
  1371  004550  EF47  F023         	goto	l466
  1372  004554                     u7280:
  1373                           	line	345
  1374                           ;main.c: 345: if(j < 8 ){
  1375  004554  0109               	movlb	9	; () banked
  1376  004556  0109               	movlb	9	; () banked
  1377  004558  510F               	movf	((MazeSetup@j+1))&0ffh,w
  1378  00455A  0A80               	xorlw	80h
  1379  00455C  0F80               	addlw	-((0)^80h)
  1380  00455E  0E08               	movlw	08h
  1381  004560  B4D8               	btfsc	status,2
  1382  004562  5D0E               	subwf	((MazeSetup@j))&0ffh,w
  1383  004564  B0D8               	btfsc	status,0
  1384  004566  EFB7  F022         	goto	u7291
  1385  00456A  EFB9  F022         	goto	u7290
  1386  00456E                     u7291:
  1387  00456E  EF04  F023         	goto	l467
  1388  004572                     u7290:
  1389                           	line	346
  1390                           ;main.c: 346: mazeMap[i][j] = 16 - 2 - j - i;
  1391  004572  0E0E               	movlw	0Eh
  1392  004574  0109               	movlb	9	; () banked
  1393  004576  6F10               	movwf	(??_MazeSetup+4+0)&0ffh
  1394  004578  6B11               	clrf	(??_MazeSetup+4+0+1)&0ffh
  1395  00457A  0109               	movlb	9	; () banked
  1396  00457C  0109               	movlb	9	; () banked
  1397  00457E  510E               	movf	((MazeSetup@j))&0ffh,w
  1398  004580  0109               	movlb	9	; () banked
  1399  004582  5F10               	subwf	(??_MazeSetup+4+0)&0ffh
  1400  004584  0109               	movlb	9	; () banked
  1401  004586  0109               	movlb	9	; () banked
  1402  004588  510F               	movf	((MazeSetup@j+1))&0ffh,w
  1403  00458A  0109               	movlb	9	; () banked
  1404  00458C  5B11               	subwfb	(??_MazeSetup+4+1)&0ffh
  1405  00458E  0109               	movlb	9	; () banked
  1406  004590  0109               	movlb	9	; () banked
  1407  004592  510C               	movf	((MazeSetup@i))&0ffh,w
  1408  004594  0109               	movlb	9	; () banked
  1409  004596  5F10               	subwf	(??_MazeSetup+4+0)&0ffh
  1410  004598  0109               	movlb	9	; () banked
  1411  00459A  0109               	movlb	9	; () banked
  1412  00459C  510D               	movf	((MazeSetup@i+1))&0ffh,w
  1413  00459E  0109               	movlb	9	; () banked
  1414  0045A0  5B11               	subwfb	(??_MazeSetup+4+1)&0ffh
  1415  0045A2  90D8               	bcf	status,0
  1416  0045A4  0109               	movlb	9	; () banked
  1417  0045A6  0109               	movlb	9	; () banked
  1418  0045A8  350E               	rlcf	((MazeSetup@j))&0ffh,w
  1419  0045AA  0109               	movlb	9	; () banked
  1420  0045AC  6F12               	movwf	(??_MazeSetup+6+0)&0ffh
  1421  0045AE  0109               	movlb	9	; () banked
  1422  0045B0  0109               	movlb	9	; () banked
  1423  0045B2  350F               	rlcf	((MazeSetup@j+1))&0ffh,w
  1424  0045B4  0109               	movlb	9	; () banked
  1425  0045B6  6F13               	movwf	1+(??_MazeSetup+6+0)&0ffh
  1426  0045B8  0109               	movlb	9	; () banked
  1427  0045BA  C90C  F914         	movff	(MazeSetup@i),??_MazeSetup+8+0
  1428  0045BE  0109               	movlb	9	; () banked
  1429  0045C0  C90D  F915         	movff	(MazeSetup@i+1),??_MazeSetup+8+0+1
  1430  0045C4  0E05               	movlw	05h
  1431  0045C6                     u7305:
  1432  0045C6  90D8               	bcf	status,0
  1433  0045C8  0109               	movlb	9	; () banked
  1434  0045CA  3714               	rlcf	(??_MazeSetup+8+0)&0ffh
  1435  0045CC  3715               	rlcf	(??_MazeSetup+8+1)&0ffh
  1436  0045CE  2EE8               	decfsz	wreg
  1437  0045D0  EFE3  F022         	goto	u7305
  1438  0045D4  0E00               	movlw	low(512)
  1439  0045D6  0109               	movlb	9	; () banked
  1440  0045D8  2514               	addwf	(??_MazeSetup+8+0)&0ffh,w
  1441  0045DA  0109               	movlb	9	; () banked
  1442  0045DC  6F16               	movwf	(??_MazeSetup+10+0)&0ffh
  1443  0045DE  0E02               	movlw	high(512)
  1444  0045E0  0109               	movlb	9	; () banked
  1445  0045E2  2115               	addwfc	(??_MazeSetup+8+1)&0ffh,w
  1446  0045E4  0109               	movlb	9	; () banked
  1447  0045E6  6F17               	movwf	1+(??_MazeSetup+10+0)&0ffh
  1448  0045E8  0109               	movlb	9	; () banked
  1449  0045EA  5112               	movf	(??_MazeSetup+6+0)&0ffh,w
  1450  0045EC  0109               	movlb	9	; () banked
  1451  0045EE  2516               	addwf	(??_MazeSetup+10+0)&0ffh,w
  1452  0045F0  6EE9               	movwf	c:fsr0l
  1453  0045F2  0109               	movlb	9	; () banked
  1454  0045F4  5113               	movf	(??_MazeSetup+6+1)&0ffh,w
  1455  0045F6  0109               	movlb	9	; () banked
  1456  0045F8  2117               	addwfc	(??_MazeSetup+10+1)&0ffh,w
  1457  0045FA  6EEA               	movwf	1+c:fsr0l
  1458  0045FC  C910  FFEE         	movff	??_MazeSetup+4+0,postinc0
  1459  004600  C911  FFED         	movff	??_MazeSetup+4+1,postdec0
  1460                           
  1461                           	line	347
  1462                           ;main.c: 347: }
  1463  004604  EF45  F023         	goto	l468
  1464                           	line	348
  1465                           	
  1466  004608                     l467:		; BSR set to: ?
  1467                           
  1468                           	line	349
  1469                           ;main.c: 348: else{
  1470                           ;main.c: 349: mazeMap[i][j] = j - i;
  1471  004608  0109               	movlb	9	; () banked
  1472  00460A  C90E  F910         	movff	(MazeSetup@j),??_MazeSetup+4+0
  1473  00460E  0109               	movlb	9	; () banked
  1474  004610  C90F  F911         	movff	(MazeSetup@j+1),??_MazeSetup+4+0+1
  1475  004614  0109               	movlb	9	; () banked
  1476  004616  0109               	movlb	9	; () banked
  1477  004618  510C               	movf	((MazeSetup@i))&0ffh,w
  1478  00461A  0109               	movlb	9	; () banked
  1479  00461C  5F10               	subwf	(??_MazeSetup+4+0)&0ffh
  1480  00461E  0109               	movlb	9	; () banked
  1481  004620  0109               	movlb	9	; () banked
  1482  004622  510D               	movf	((MazeSetup@i+1))&0ffh,w
  1483  004624  0109               	movlb	9	; () banked
  1484  004626  5B11               	subwfb	(??_MazeSetup+4+1)&0ffh
  1485  004628  90D8               	bcf	status,0
  1486  00462A  0109               	movlb	9	; () banked
  1487  00462C  0109               	movlb	9	; () banked
  1488  00462E  350E               	rlcf	((MazeSetup@j))&0ffh,w
  1489  004630  0109               	movlb	9	; () banked
  1490  004632  6F12               	movwf	(??_MazeSetup+6+0)&0ffh
  1491  004634  0109               	movlb	9	; () banked
  1492  004636  0109               	movlb	9	; () banked
  1493  004638  350F               	rlcf	((MazeSetup@j+1))&0ffh,w
  1494  00463A  0109               	movlb	9	; () banked
  1495  00463C  6F13               	movwf	1+(??_MazeSetup+6+0)&0ffh
  1496  00463E  0109               	movlb	9	; () banked
  1497  004640  C90C  F914         	movff	(MazeSetup@i),??_MazeSetup+8+0
  1498  004644  0109               	movlb	9	; () banked
  1499  004646  C90D  F915         	movff	(MazeSetup@i+1),??_MazeSetup+8+0+1
  1500  00464A  0E05               	movlw	05h
  1501  00464C                     u7315:
  1502  00464C  90D8               	bcf	status,0
  1503  00464E  0109               	movlb	9	; () banked
  1504  004650  3714               	rlcf	(??_MazeSetup+8+0)&0ffh
  1505  004652  3715               	rlcf	(??_MazeSetup+8+1)&0ffh
  1506  004654  2EE8               	decfsz	wreg
  1507  004656  EF26  F023         	goto	u7315
  1508  00465A  0E00               	movlw	low(512)
  1509  00465C  0109               	movlb	9	; () banked
  1510  00465E  2514               	addwf	(??_MazeSetup+8+0)&0ffh,w
  1511  004660  0109               	movlb	9	; () banked
  1512  004662  6F16               	movwf	(??_MazeSetup+10+0)&0ffh
  1513  004664  0E02               	movlw	high(512)
  1514  004666  0109               	movlb	9	; () banked
  1515  004668  2115               	addwfc	(??_MazeSetup+8+1)&0ffh,w
  1516  00466A  0109               	movlb	9	; () banked
  1517  00466C  6F17               	movwf	1+(??_MazeSetup+10+0)&0ffh
  1518  00466E  0109               	movlb	9	; () banked
  1519  004670  5112               	movf	(??_MazeSetup+6+0)&0ffh,w
  1520  004672  0109               	movlb	9	; () banked
  1521  004674  2516               	addwf	(??_MazeSetup+10+0)&0ffh,w
  1522  004676  6EE9               	movwf	c:fsr0l
  1523  004678  0109               	movlb	9	; () banked
  1524  00467A  5113               	movf	(??_MazeSetup+6+1)&0ffh,w
  1525  00467C  0109               	movlb	9	; () banked
  1526  00467E  2117               	addwfc	(??_MazeSetup+10+1)&0ffh,w
  1527  004680  6EEA               	movwf	1+c:fsr0l
  1528  004682  C910  FFEE         	movff	??_MazeSetup+4+0,postinc0
  1529  004686  C911  FFED         	movff	??_MazeSetup+4+1,postdec0
  1530                           
  1531                           	line	350
  1532                           	
  1533  00468A                     l468:		; BSR set to: ?
  1534                           
  1535                           	line	351
  1536                           ;main.c: 350: }
  1537                           ;main.c: 351: }
  1538  00468A  EFE4  F023         	goto	l469
  1539                           	line	352
  1540                           	
  1541  00468E                     l466:		; BSR set to: ?
  1542                           
  1543                           	line	353
  1544                           ;main.c: 352: else{
  1545                           ;main.c: 353: if(j < 8){
  1546  00468E  0109               	movlb	9	; () banked
  1547  004690  0109               	movlb	9	; () banked
  1548  004692  510F               	movf	((MazeSetup@j+1))&0ffh,w
  1549  004694  0A80               	xorlw	80h
  1550  004696  0F80               	addlw	-((0)^80h)
  1551  004698  0E08               	movlw	08h
  1552  00469A  B4D8               	btfsc	status,2
  1553  00469C  5D0E               	subwf	((MazeSetup@j))&0ffh,w
  1554  00469E  B0D8               	btfsc	status,0
  1555  0046A0  EF54  F023         	goto	u7321
  1556  0046A4  EF56  F023         	goto	u7320
  1557  0046A8                     u7321:
  1558  0046A8  EF99  F023         	goto	l470
  1559  0046AC                     u7320:
  1560                           	line	354
  1561                           ;main.c: 354: mazeMap[i][j] = i - j;
  1562  0046AC  0109               	movlb	9	; () banked
  1563  0046AE  C90C  F910         	movff	(MazeSetup@i),??_MazeSetup+4+0
  1564  0046B2  0109               	movlb	9	; () banked
  1565  0046B4  C90D  F911         	movff	(MazeSetup@i+1),??_MazeSetup+4+0+1
  1566  0046B8  0109               	movlb	9	; () banked
  1567  0046BA  0109               	movlb	9	; () banked
  1568  0046BC  510E               	movf	((MazeSetup@j))&0ffh,w
  1569  0046BE  0109               	movlb	9	; () banked
  1570  0046C0  5F10               	subwf	(??_MazeSetup+4+0)&0ffh
  1571  0046C2  0109               	movlb	9	; () banked
  1572  0046C4  0109               	movlb	9	; () banked
  1573  0046C6  510F               	movf	((MazeSetup@j+1))&0ffh,w
  1574  0046C8  0109               	movlb	9	; () banked
  1575  0046CA  5B11               	subwfb	(??_MazeSetup+4+1)&0ffh
  1576  0046CC  90D8               	bcf	status,0
  1577  0046CE  0109               	movlb	9	; () banked
  1578  0046D0  0109               	movlb	9	; () banked
  1579  0046D2  350E               	rlcf	((MazeSetup@j))&0ffh,w
  1580  0046D4  0109               	movlb	9	; () banked
  1581  0046D6  6F12               	movwf	(??_MazeSetup+6+0)&0ffh
  1582  0046D8  0109               	movlb	9	; () banked
  1583  0046DA  0109               	movlb	9	; () banked
  1584  0046DC  350F               	rlcf	((MazeSetup@j+1))&0ffh,w
  1585  0046DE  0109               	movlb	9	; () banked
  1586  0046E0  6F13               	movwf	1+(??_MazeSetup+6+0)&0ffh
  1587  0046E2  0109               	movlb	9	; () banked
  1588  0046E4  C90C  F914         	movff	(MazeSetup@i),??_MazeSetup+8+0
  1589  0046E8  0109               	movlb	9	; () banked
  1590  0046EA  C90D  F915         	movff	(MazeSetup@i+1),??_MazeSetup+8+0+1
  1591  0046EE  0E05               	movlw	05h
  1592  0046F0                     u7335:
  1593  0046F0  90D8               	bcf	status,0
  1594  0046F2  0109               	movlb	9	; () banked
  1595  0046F4  3714               	rlcf	(??_MazeSetup+8+0)&0ffh
  1596  0046F6  3715               	rlcf	(??_MazeSetup+8+1)&0ffh
  1597  0046F8  2EE8               	decfsz	wreg
  1598  0046FA  EF78  F023         	goto	u7335
  1599  0046FE  0E00               	movlw	low(512)
  1600  004700  0109               	movlb	9	; () banked
  1601  004702  2514               	addwf	(??_MazeSetup+8+0)&0ffh,w
  1602  004704  0109               	movlb	9	; () banked
  1603  004706  6F16               	movwf	(??_MazeSetup+10+0)&0ffh
  1604  004708  0E02               	movlw	high(512)
  1605  00470A  0109               	movlb	9	; () banked
  1606  00470C  2115               	addwfc	(??_MazeSetup+8+1)&0ffh,w
  1607  00470E  0109               	movlb	9	; () banked
  1608  004710  6F17               	movwf	1+(??_MazeSetup+10+0)&0ffh
  1609  004712  0109               	movlb	9	; () banked
  1610  004714  5112               	movf	(??_MazeSetup+6+0)&0ffh,w
  1611  004716  0109               	movlb	9	; () banked
  1612  004718  2516               	addwf	(??_MazeSetup+10+0)&0ffh,w
  1613  00471A  6EE9               	movwf	c:fsr0l
  1614  00471C  0109               	movlb	9	; () banked
  1615  00471E  5113               	movf	(??_MazeSetup+6+1)&0ffh,w
  1616  004720  0109               	movlb	9	; () banked
  1617  004722  2117               	addwfc	(??_MazeSetup+10+1)&0ffh,w
  1618  004724  6EEA               	movwf	1+c:fsr0l
  1619  004726  C910  FFEE         	movff	??_MazeSetup+4+0,postinc0
  1620  00472A  C911  FFED         	movff	??_MazeSetup+4+1,postdec0
  1621                           
  1622                           	line	355
  1623                           ;main.c: 355: }
  1624  00472E  EFE4  F023         	goto	l469
  1625                           	line	356
  1626                           	
  1627  004732                     l470:		; BSR set to: ?
  1628                           
  1629                           	line	357
  1630                           ;main.c: 356: else{
  1631                           ;main.c: 357: mazeMap[i][j] = (j - 7) + (i - 7);
  1632  004732  0109               	movlb	9	; () banked
  1633  004734  C90C  F910         	movff	(MazeSetup@i),??_MazeSetup+4+0
  1634  004738  0109               	movlb	9	; () banked
  1635  00473A  C90D  F911         	movff	(MazeSetup@i+1),??_MazeSetup+4+0+1
  1636  00473E  0109               	movlb	9	; () banked
  1637  004740  0109               	movlb	9	; () banked
  1638  004742  510E               	movf	((MazeSetup@j))&0ffh,w
  1639  004744  0109               	movlb	9	; () banked
  1640  004746  2710               	addwf	(??_MazeSetup+4+0)&0ffh
  1641  004748  0109               	movlb	9	; () banked
  1642  00474A  0109               	movlb	9	; () banked
  1643  00474C  510F               	movf	((MazeSetup@j+1))&0ffh,w
  1644  00474E  0109               	movlb	9	; () banked
  1645  004750  2311               	addwfc	(??_MazeSetup+4+1)&0ffh
  1646  004752  0EF2               	movlw	low(-14)
  1647  004754  0109               	movlb	9	; () banked
  1648  004756  2510               	addwf	(??_MazeSetup+4+0)&0ffh,w
  1649  004758  0109               	movlb	9	; () banked
  1650  00475A  6F12               	movwf	(??_MazeSetup+6+0)&0ffh
  1651  00475C  0EFF               	movlw	high(-14)
  1652  00475E  0109               	movlb	9	; () banked
  1653  004760  2111               	addwfc	(??_MazeSetup+4+1)&0ffh,w
  1654  004762  0109               	movlb	9	; () banked
  1655  004764  6F13               	movwf	1+(??_MazeSetup+6+0)&0ffh
  1656  004766  90D8               	bcf	status,0
  1657  004768  0109               	movlb	9	; () banked
  1658  00476A  0109               	movlb	9	; () banked
  1659  00476C  350E               	rlcf	((MazeSetup@j))&0ffh,w
  1660  00476E  0109               	movlb	9	; () banked
  1661  004770  6F14               	movwf	(??_MazeSetup+8+0)&0ffh
  1662  004772  0109               	movlb	9	; () banked
  1663  004774  0109               	movlb	9	; () banked
  1664  004776  350F               	rlcf	((MazeSetup@j+1))&0ffh,w
  1665  004778  0109               	movlb	9	; () banked
  1666  00477A  6F15               	movwf	1+(??_MazeSetup+8+0)&0ffh
  1667  00477C  0109               	movlb	9	; () banked
  1668  00477E  C90C  F916         	movff	(MazeSetup@i),??_MazeSetup+10+0
  1669  004782  0109               	movlb	9	; () banked
  1670  004784  C90D  F917         	movff	(MazeSetup@i+1),??_MazeSetup+10+0+1
  1671  004788  0E05               	movlw	05h
  1672  00478A                     u7345:
  1673  00478A  90D8               	bcf	status,0
  1674  00478C  0109               	movlb	9	; () banked
  1675  00478E  3716               	rlcf	(??_MazeSetup+10+0)&0ffh
  1676  004790  3717               	rlcf	(??_MazeSetup+10+1)&0ffh
  1677  004792  2EE8               	decfsz	wreg
  1678  004794  EFC5  F023         	goto	u7345
  1679  004798  0E00               	movlw	low(512)
  1680  00479A  0109               	movlb	9	; () banked
  1681  00479C  2516               	addwf	(??_MazeSetup+10+0)&0ffh,w
  1682  00479E  0109               	movlb	9	; () banked
  1683  0047A0  6F18               	movwf	(??_MazeSetup+12+0)&0ffh
  1684  0047A2  0E02               	movlw	high(512)
  1685  0047A4  0109               	movlb	9	; () banked
  1686  0047A6  2117               	addwfc	(??_MazeSetup+10+1)&0ffh,w
  1687  0047A8  0109               	movlb	9	; () banked
  1688  0047AA  6F19               	movwf	1+(??_MazeSetup+12+0)&0ffh
  1689  0047AC  0109               	movlb	9	; () banked
  1690  0047AE  5114               	movf	(??_MazeSetup+8+0)&0ffh,w
  1691  0047B0  0109               	movlb	9	; () banked
  1692  0047B2  2518               	addwf	(??_MazeSetup+12+0)&0ffh,w
  1693  0047B4  6EE9               	movwf	c:fsr0l
  1694  0047B6  0109               	movlb	9	; () banked
  1695  0047B8  5115               	movf	(??_MazeSetup+8+1)&0ffh,w
  1696  0047BA  0109               	movlb	9	; () banked
  1697  0047BC  2119               	addwfc	(??_MazeSetup+12+1)&0ffh,w
  1698  0047BE  6EEA               	movwf	1+c:fsr0l
  1699  0047C0  C912  FFEE         	movff	??_MazeSetup+6+0,postinc0
  1700  0047C4  C913  FFED         	movff	??_MazeSetup+6+1,postdec0
  1701                           
  1702                           	line	358
  1703                           	
  1704  0047C8                     l471:		; BSR set to: ?
  1705                           
  1706                           	line	359
  1707                           	
  1708  0047C8                     l469:		; BSR set to: ?
  1709                           
  1710                           	line	362
  1711                           ;main.c: 358: }
  1712                           ;main.c: 359: }
  1713                           ;main.c: 362: wallMap[i][j] = 1;
  1714  0047C8  90D8               	bcf	status,0
  1715  0047CA  0109               	movlb	9	; () banked
  1716  0047CC  0109               	movlb	9	; () banked
  1717  0047CE  350E               	rlcf	((MazeSetup@j))&0ffh,w
  1718  0047D0  0109               	movlb	9	; () banked
  1719  0047D2  6F10               	movwf	(??_MazeSetup+4+0)&0ffh
  1720  0047D4  0109               	movlb	9	; () banked
  1721  0047D6  0109               	movlb	9	; () banked
  1722  0047D8  350F               	rlcf	((MazeSetup@j+1))&0ffh,w
  1723  0047DA  0109               	movlb	9	; () banked
  1724  0047DC  6F11               	movwf	1+(??_MazeSetup+4+0)&0ffh
  1725  0047DE  0109               	movlb	9	; () banked
  1726  0047E0  C90C  F912         	movff	(MazeSetup@i),??_MazeSetup+6+0
  1727  0047E4  0109               	movlb	9	; () banked
  1728  0047E6  C90D  F913         	movff	(MazeSetup@i+1),??_MazeSetup+6+0+1
  1729  0047EA  0E05               	movlw	05h
  1730  0047EC                     u7355:
  1731  0047EC  90D8               	bcf	status,0
  1732  0047EE  0109               	movlb	9	; () banked
  1733  0047F0  3712               	rlcf	(??_MazeSetup+6+0)&0ffh
  1734  0047F2  3713               	rlcf	(??_MazeSetup+6+1)&0ffh
  1735  0047F4  2EE8               	decfsz	wreg
  1736  0047F6  EFF6  F023         	goto	u7355
  1737  0047FA  0E00               	movlw	low(0)
  1738  0047FC  0109               	movlb	9	; () banked
  1739  0047FE  2512               	addwf	(??_MazeSetup+6+0)&0ffh,w
  1740  004800  0109               	movlb	9	; () banked
  1741  004802  6F14               	movwf	(??_MazeSetup+8+0)&0ffh
  1742  004804  0E00               	movlw	high(0)
  1743  004806  0109               	movlb	9	; () banked
  1744  004808  2113               	addwfc	(??_MazeSetup+6+1)&0ffh,w
  1745  00480A  0109               	movlb	9	; () banked
  1746  00480C  6F15               	movwf	1+(??_MazeSetup+8+0)&0ffh
  1747  00480E  0109               	movlb	9	; () banked
  1748  004810  5110               	movf	(??_MazeSetup+4+0)&0ffh,w
  1749  004812  0109               	movlb	9	; () banked
  1750  004814  2514               	addwf	(??_MazeSetup+8+0)&0ffh,w
  1751  004816  6EE9               	movwf	c:fsr0l
  1752  004818  0109               	movlb	9	; () banked
  1753  00481A  5111               	movf	(??_MazeSetup+4+1)&0ffh,w
  1754  00481C  0109               	movlb	9	; () banked
  1755  00481E  2115               	addwfc	(??_MazeSetup+8+1)&0ffh,w
  1756  004820  6EEA               	movwf	1+c:fsr0l
  1757  004822  0E01               	movlw	low(01h)
  1758  004824  6EEE               	movwf	postinc0
  1759  004826  0E00               	movlw	high(01h)
  1760  004828  6EED               	movwf	postdec0
  1761                           	line	343
  1762  00482A  0109               	movlb	9	; () banked
  1763  00482C  0109               	movlb	9	; () banked
  1764  00482E  4B0E               	infsnz	((MazeSetup@j))&0ffh
  1765  004830  2B0F               	incf	((MazeSetup@j+1))&0ffh
  1766  004832  0109               	movlb	9	; () banked
  1767  004834  0109               	movlb	9	; () banked
  1768  004836  510F               	movf	((MazeSetup@j+1))&0ffh,w
  1769  004838  0A80               	xorlw	80h
  1770  00483A  0F80               	addlw	-((0)^80h)
  1771  00483C  0E10               	movlw	010h
  1772  00483E  B4D8               	btfsc	status,2
  1773  004840  5D0E               	subwf	((MazeSetup@j))&0ffh,w
  1774  004842  A0D8               	btfss	status,0
  1775  004844  EF26  F024         	goto	u7361
  1776  004848  EF28  F024         	goto	u7360
  1777  00484C                     u7361:
  1778  00484C  EF9B  F022         	goto	l463
  1779  004850                     u7360:
  1780                           	
  1781  004850                     l464:		; BSR set to: ?
  1782                           
  1783                           	line	342
  1784  004850  0109               	movlb	9	; () banked
  1785  004852  0109               	movlb	9	; () banked
  1786  004854  4B0C               	infsnz	((MazeSetup@i))&0ffh
  1787  004856  2B0D               	incf	((MazeSetup@i+1))&0ffh
  1788  004858  0109               	movlb	9	; () banked
  1789  00485A  0109               	movlb	9	; () banked
  1790  00485C  510D               	movf	((MazeSetup@i+1))&0ffh,w
  1791  00485E  0A80               	xorlw	80h
  1792  004860  0F80               	addlw	-((0)^80h)
  1793  004862  0E10               	movlw	010h
  1794  004864  B4D8               	btfsc	status,2
  1795  004866  5D0C               	subwf	((MazeSetup@i))&0ffh,w
  1796  004868  A0D8               	btfss	status,0
  1797  00486A  EF39  F024         	goto	u7371
  1798  00486E  EF3B  F024         	goto	u7370
  1799  004872                     u7371:
  1800  004872  EF83  F022         	goto	l460
  1801  004876                     u7370:
  1802                           	
  1803  004876                     l461:		; BSR set to: ?
  1804                           
  1805                           	line	365
  1806                           	
  1807  004876                     l459:		; BSR set to: ?
  1808                           
  1809                           	line	367
  1810                           	
  1811  004876                     l458:		; BSR set to: ?
  1812                           
  1813                           ;main.c: 363: }
  1814                           ;main.c: 364: }
  1815                           ;main.c: 365: }
  1816                           ;main.c: 367: }
  1817  004876                     l456:
  1818                           			; BSR set to: ?
  1819                           
  1820  004876  0012               	return
  1821                           	opt stack 0
  1822                           GLOBAL __end_of_MazeSetup
  1823  004878                     	__end_of_MazeSetup:
  1824                           	FNSIZE	_MazeSetup,14,0
  1825                           ; =============== function _MazeSetup ends =====
                                 =======
  1826                           
  1827                           	signat	_MazeSetup,88
  1828                           	global	_SolveMaze
  1829                           	global	??_SolveMaze
  1830                           	global	?_SolveMaze
  1831                           
  1832                           ; *************** function _SolveMaze **********
                                 *******
  1833                           ; Defined at:
  1834                           ;		line 369 in file "C:\Users\tab\Desktop\electr
                                 onics\micro_mouse\WORKING_SAC\main.c"
  1835                           ; Parameters:
  1836                           ;		None
  1837                           ; Auto variables:
  1838                           ;		tempVar     	       	type: int 
  1839                           ;		tempDir     	       	type: int 
  1840                           ;		tempDir     	       	type: int 
  1841                           ;		tempVar     	       	type: int 
  1842                           ;		a           	       	type: short 
  1843                           ;		a           	       	type: short 
  1844                           ;		a           	       	type: short 
  1845                           ;		a           	       	type: short 
  1846                           ;		b           	       	type: short 
  1847                           ;		b           	       	type: short 
  1848                           ; Return value:
  1849                           ;		type: void 
  1850                           ;		size: 0
  1851                           ; Registers used:
  1852                           ;		wreg, fsr0l, fsr0h, fsr1l, fsr1h, status,2, s
                                 tatus,0, cstack
  1853                           ; Tracked objects:
  1854                           ;		On entry : 0/0
  1855                           ;		On exit  : 0/0
  1856                           ;		Unchanged: 0/0
  1857                           ; Data sizes:
  1858                           ;		Autos:   18
  1859                           ;		Params:   0
  1860                           ;		Temp:    12
  1861                           ;		Total:   30
  1862                           ; This function calls:
  1863                           ;		_TurnToDirection
  1864                           ;		___wmul
  1865                           ;		_CheckOrientation
  1866                           ;		_CheckWalls
  1867                           ;		_CheckAdjacentCells
  1868                           ;		_DisableInterrupts
  1869                           ;		_ConfigureInterrupts
  1870                           ;		_MOVE
  1871                           ;		_EndMaze
  1872                           ; This function is called by:
  1873                           ;		_main
  1874                           ; This function uses a non-reentrant model
  1875                           ; 
  1876                                   psect   text2,class=CODE,space=0,reloc=2
  1877                           
  1878                           	opt lm
  1879                           	file	"C:\Users\tab\Desktop\electronics\micro_mo
                                 use\WORKING_SAC\main.c"
  1880                           	line	369
  1881  000000                     	__size_of_SolveMaze	equ	__end_of_SolveMaze-_Sol
                                 veMaze
  1882                           ;main.c: 369: void SolveMaze(){
  1883                           	
  1884  00275E                     _SolveMaze:		; BSR set to: ?
  1885                           
  1886                           	opt stack 29
  1887                           	line	370
  1888                           ;main.c: 370: switch(mazeStart){
  1889  00275E  EFBF  F015         	goto	l474
  1890                           	line	371
  1891                           ;main.c: 371: case 1:
  1892                           	
  1893  002762                     l475:		; BSR set to: ?
  1894                           
  1895                           	line	372
  1896                           ;main.c: 372: mouseX = 0;
  1897  002762  0E00               	movlw	low(0)
  1898  002764  0108               	movlb	8	; () banked
  1899  002766  0108               	movlb	8	; () banked
  1900  002768  6F02               	movwf	((2050))&0ffh
  1901  00276A  0E00               	movlw	high(0)
  1902  00276C  0108               	movlb	8	; () banked
  1903  00276E  6F03               	movwf	((2050+1))&0ffh
  1904                           	line	373
  1905                           ;main.c: 373: mouseY = 0;
  1906  002770  0E00               	movlw	low(0)
  1907  002772  0108               	movlb	8	; () banked
  1908  002774  0108               	movlb	8	; () banked
  1909  002776  6F00               	movwf	((2048))&0ffh
  1910  002778  0E00               	movlw	high(0)
  1911  00277A  0108               	movlb	8	; () banked
  1912  00277C  6F01               	movwf	((2048+1))&0ffh
  1913                           	line	374
  1914                           ;main.c: 374: TurnToDirection(7);
  1915  00277E  0E07               	movlw	low(07h)
  1916  002780  0109               	movlb	9	; () banked
  1917  002782  0109               	movlb	9	; () banked
  1918  002784  6F2A               	movwf	((?_TurnToDirection))&0ffh
  1919  002786  0E00               	movlw	high(07h)
  1920  002788  0109               	movlb	9	; () banked
  1921  00278A  6F2B               	movwf	((?_TurnToDirection+1))&0ffh
  1922  00278C  EC30  F026         	call	_TurnToDirection	;wreg free
  1923                           	line	375
  1924                           ;main.c: 375: wallMap[mouseY][mouseX] *= 3;
  1925  002790  0E03               	movlw	low(03h)
  1926  002792  0109               	movlb	9	; () banked
  1927  002794  0109               	movlb	9	; () banked
  1928  002796  6F3C               	movwf	(0+(?___wmul+02h))&0ffh
  1929  002798  0E00               	movlw	high(03h)
  1930  00279A  0109               	movlb	9	; () banked
  1931  00279C  6F3D               	movwf	(1+(?___wmul+02h))&0ffh
  1932  00279E  90D8               	bcf	status,0
  1933  0027A0  0108               	movlb	8	; () banked
  1934  0027A2  0108               	movlb	8	; () banked
  1935  0027A4  3502               	rlcf	((2050))&0ffh,w
  1936  0027A6  0109               	movlb	9	; () banked
  1937  0027A8  6F1E               	movwf	(??_SolveMaze+18+0)&0ffh
  1938  0027AA  0108               	movlb	8	; () banked
  1939  0027AC  0108               	movlb	8	; () banked
  1940  0027AE  3503               	rlcf	((2050+1))&0ffh,w
  1941  0027B0  0109               	movlb	9	; () banked
  1942  0027B2  6F1F               	movwf	1+(??_SolveMaze+18+0)&0ffh
  1943  0027B4  0108               	movlb	8	; () banked
  1944  0027B6  C800 F920          	movff	(2048),??_SolveMaze+20+0
  1945  0027BA  0108               	movlb	8	; () banked
  1946  0027BC  C801 F921          	movff	(2048+1),??_SolveMaze+20+0+1
  1947  0027C0  0E05               	movlw	05h
  1948  0027C2                     u8045:
  1949  0027C2  90D8               	bcf	status,0
  1950  0027C4  0109               	movlb	9	; () banked
  1951  0027C6  3720               	rlcf	(??_SolveMaze+20+0)&0ffh
  1952  0027C8  3721               	rlcf	(??_SolveMaze+20+1)&0ffh
  1953  0027CA  2EE8               	decfsz	wreg
  1954  0027CC  EFE1  F013         	goto	u8045
  1955  0027D0  0E00               	movlw	low(0)
  1956  0027D2  0109               	movlb	9	; () banked
  1957  0027D4  2520               	addwf	(??_SolveMaze+20+0)&0ffh,w
  1958  0027D6  0109               	movlb	9	; () banked
  1959  0027D8  6F22               	movwf	(??_SolveMaze+22+0)&0ffh
  1960  0027DA  0E00               	movlw	high(0)
  1961  0027DC  0109               	movlb	9	; () banked
  1962  0027DE  2121               	addwfc	(??_SolveMaze+20+1)&0ffh,w
  1963  0027E0  0109               	movlb	9	; () banked
  1964  0027E2  6F23               	movwf	1+(??_SolveMaze+22+0)&0ffh
  1965  0027E4  0109               	movlb	9	; () banked
  1966  0027E6  511E               	movf	(??_SolveMaze+18+0)&0ffh,w
  1967  0027E8  0109               	movlb	9	; () banked
  1968  0027EA  2522               	addwf	(??_SolveMaze+22+0)&0ffh,w
  1969  0027EC  6EE9               	movwf	c:fsr0l
  1970  0027EE  0109               	movlb	9	; () banked
  1971  0027F0  511F               	movf	(??_SolveMaze+18+1)&0ffh,w
  1972  0027F2  0109               	movlb	9	; () banked
  1973  0027F4  2123               	addwfc	(??_SolveMaze+22+1)&0ffh,w
  1974  0027F6  6EEA               	movwf	1+c:fsr0l
  1975  0027F8  0109               	movlb	9	; () banked
  1976  0027FA  CFEE F93A          	movff	postinc0,(?___wmul)
  1977  0027FE  0109               	movlb	9	; () banked
  1978  002800  CFED F93B          	movff	postdec0,(?___wmul+1)
  1979  002804  ECDA  F02E         	call	___wmul	;wreg free
  1980  002808  90D8               	bcf	status,0
  1981  00280A  0108               	movlb	8	; () banked
  1982  00280C  0108               	movlb	8	; () banked
  1983  00280E  3502               	rlcf	((2050))&0ffh,w
  1984  002810  0109               	movlb	9	; () banked
  1985  002812  6F24               	movwf	(??_SolveMaze+24+0)&0ffh
  1986  002814  0108               	movlb	8	; () banked
  1987  002816  0108               	movlb	8	; () banked
  1988  002818  3503               	rlcf	((2050+1))&0ffh,w
  1989  00281A  0109               	movlb	9	; () banked
  1990  00281C  6F25               	movwf	1+(??_SolveMaze+24+0)&0ffh
  1991  00281E  0108               	movlb	8	; () banked
  1992  002820  C800 F926          	movff	(2048),??_SolveMaze+26+0
  1993  002824  0108               	movlb	8	; () banked
  1994  002826  C801 F927          	movff	(2048+1),??_SolveMaze+26+0+1
  1995  00282A  0E05               	movlw	05h
  1996  00282C                     u8055:
  1997  00282C  90D8               	bcf	status,0
  1998  00282E  0109               	movlb	9	; () banked
  1999  002830  3726               	rlcf	(??_SolveMaze+26+0)&0ffh
  2000  002832  3727               	rlcf	(??_SolveMaze+26+1)&0ffh
  2001  002834  2EE8               	decfsz	wreg
  2002  002836  EF16  F014         	goto	u8055
  2003  00283A  0E00               	movlw	low(0)
  2004  00283C  0109               	movlb	9	; () banked
  2005  00283E  2526               	addwf	(??_SolveMaze+26+0)&0ffh,w
  2006  002840  0109               	movlb	9	; () banked
  2007  002842  6F28               	movwf	(??_SolveMaze+28+0)&0ffh
  2008  002844  0E00               	movlw	high(0)
  2009  002846  0109               	movlb	9	; () banked
  2010  002848  2127               	addwfc	(??_SolveMaze+26+1)&0ffh,w
  2011  00284A  0109               	movlb	9	; () banked
  2012  00284C  6F29               	movwf	1+(??_SolveMaze+28+0)&0ffh
  2013  00284E  0109               	movlb	9	; () banked
  2014  002850  5124               	movf	(??_SolveMaze+24+0)&0ffh,w
  2015  002852  0109               	movlb	9	; () banked
  2016  002854  2528               	addwf	(??_SolveMaze+28+0)&0ffh,w
  2017  002856  6EE9               	movwf	c:fsr0l
  2018  002858  0109               	movlb	9	; () banked
  2019  00285A  5125               	movf	(??_SolveMaze+24+1)&0ffh,w
  2020  00285C  0109               	movlb	9	; () banked
  2021  00285E  2129               	addwfc	(??_SolveMaze+28+1)&0ffh,w
  2022  002860  6EEA               	movwf	1+c:fsr0l
  2023  002862  0109               	movlb	9	; () banked
  2024  002864  C93A  FFEE         	movff	0+?___wmul,postinc0
  2025  002868  0109               	movlb	9	; () banked
  2026  00286A  C93B  FFED         	movff	1+?___wmul,postdec0
  2027                           
  2028                           	line	376
  2029                           ;main.c: 376: break;
  2030  00286E  EFDE  F015         	goto	l473
  2031                           	line	378
  2032                           ;main.c: 378: case 2:
  2033                           	
  2034  002872                     l476:		; BSR set to: ?
  2035                           
  2036                           	line	379
  2037                           ;main.c: 379: mouseX = 15;
  2038  002872  0E0F               	movlw	low(0Fh)
  2039  002874  0108               	movlb	8	; () banked
  2040  002876  0108               	movlb	8	; () banked
  2041  002878  6F02               	movwf	((2050))&0ffh
  2042  00287A  0E00               	movlw	high(0Fh)
  2043  00287C  0108               	movlb	8	; () banked
  2044  00287E  6F03               	movwf	((2050+1))&0ffh
  2045                           	line	380
  2046                           ;main.c: 380: mouseY = 0;
  2047  002880  0E00               	movlw	low(0)
  2048  002882  0108               	movlb	8	; () banked
  2049  002884  0108               	movlb	8	; () banked
  2050  002886  6F00               	movwf	((2048))&0ffh
  2051  002888  0E00               	movlw	high(0)
  2052  00288A  0108               	movlb	8	; () banked
  2053  00288C  6F01               	movwf	((2048+1))&0ffh
  2054                           	line	381
  2055                           ;main.c: 381: TurnToDirection(7);
  2056  00288E  0E07               	movlw	low(07h)
  2057  002890  0109               	movlb	9	; () banked
  2058  002892  0109               	movlb	9	; () banked
  2059  002894  6F2A               	movwf	((?_TurnToDirection))&0ffh
  2060  002896  0E00               	movlw	high(07h)
  2061  002898  0109               	movlb	9	; () banked
  2062  00289A  6F2B               	movwf	((?_TurnToDirection+1))&0ffh
  2063  00289C  EC30  F026         	call	_TurnToDirection	;wreg free
  2064                           	line	382
  2065                           ;main.c: 382: wallMap[mouseY][mouseX] *= 3;
  2066  0028A0  0E03               	movlw	low(03h)
  2067  0028A2  0109               	movlb	9	; () banked
  2068  0028A4  0109               	movlb	9	; () banked
  2069  0028A6  6F3C               	movwf	(0+(?___wmul+02h))&0ffh
  2070  0028A8  0E00               	movlw	high(03h)
  2071  0028AA  0109               	movlb	9	; () banked
  2072  0028AC  6F3D               	movwf	(1+(?___wmul+02h))&0ffh
  2073  0028AE  90D8               	bcf	status,0
  2074  0028B0  0108               	movlb	8	; () banked
  2075  0028B2  0108               	movlb	8	; () banked
  2076  0028B4  3502               	rlcf	((2050))&0ffh,w
  2077  0028B6  0109               	movlb	9	; () banked
  2078  0028B8  6F1E               	movwf	(??_SolveMaze+18+0)&0ffh
  2079  0028BA  0108               	movlb	8	; () banked
  2080  0028BC  0108               	movlb	8	; () banked
  2081  0028BE  3503               	rlcf	((2050+1))&0ffh,w
  2082  0028C0  0109               	movlb	9	; () banked
  2083  0028C2  6F1F               	movwf	1+(??_SolveMaze+18+0)&0ffh
  2084  0028C4  0108               	movlb	8	; () banked
  2085  0028C6  C800 F920          	movff	(2048),??_SolveMaze+20+0
  2086  0028CA  0108               	movlb	8	; () banked
  2087  0028CC  C801 F921          	movff	(2048+1),??_SolveMaze+20+0+1
  2088  0028D0  0E05               	movlw	05h
  2089  0028D2                     u8065:
  2090  0028D2  90D8               	bcf	status,0
  2091  0028D4  0109               	movlb	9	; () banked
  2092  0028D6  3720               	rlcf	(??_SolveMaze+20+0)&0ffh
  2093  0028D8  3721               	rlcf	(??_SolveMaze+20+1)&0ffh
  2094  0028DA  2EE8               	decfsz	wreg
  2095  0028DC  EF69  F014         	goto	u8065
  2096  0028E0  0E00               	movlw	low(0)
  2097  0028E2  0109               	movlb	9	; () banked
  2098  0028E4  2520               	addwf	(??_SolveMaze+20+0)&0ffh,w
  2099  0028E6  0109               	movlb	9	; () banked
  2100  0028E8  6F22               	movwf	(??_SolveMaze+22+0)&0ffh
  2101  0028EA  0E00               	movlw	high(0)
  2102  0028EC  0109               	movlb	9	; () banked
  2103  0028EE  2121               	addwfc	(??_SolveMaze+20+1)&0ffh,w
  2104  0028F0  0109               	movlb	9	; () banked
  2105  0028F2  6F23               	movwf	1+(??_SolveMaze+22+0)&0ffh
  2106  0028F4  0109               	movlb	9	; () banked
  2107  0028F6  511E               	movf	(??_SolveMaze+18+0)&0ffh,w
  2108  0028F8  0109               	movlb	9	; () banked
  2109  0028FA  2522               	addwf	(??_SolveMaze+22+0)&0ffh,w
  2110  0028FC  6EE9               	movwf	c:fsr0l
  2111  0028FE  0109               	movlb	9	; () banked
  2112  002900  511F               	movf	(??_SolveMaze+18+1)&0ffh,w
  2113  002902  0109               	movlb	9	; () banked
  2114  002904  2123               	addwfc	(??_SolveMaze+22+1)&0ffh,w
  2115  002906  6EEA               	movwf	1+c:fsr0l
  2116  002908  0109               	movlb	9	; () banked
  2117  00290A  CFEE F93A          	movff	postinc0,(?___wmul)
  2118  00290E  0109               	movlb	9	; () banked
  2119  002910  CFED F93B          	movff	postdec0,(?___wmul+1)
  2120  002914  ECDA  F02E         	call	___wmul	;wreg free
  2121  002918  90D8               	bcf	status,0
  2122  00291A  0108               	movlb	8	; () banked
  2123  00291C  0108               	movlb	8	; () banked
  2124  00291E  3502               	rlcf	((2050))&0ffh,w
  2125  002920  0109               	movlb	9	; () banked
  2126  002922  6F24               	movwf	(??_SolveMaze+24+0)&0ffh
  2127  002924  0108               	movlb	8	; () banked
  2128  002926  0108               	movlb	8	; () banked
  2129  002928  3503               	rlcf	((2050+1))&0ffh,w
  2130  00292A  0109               	movlb	9	; () banked
  2131  00292C  6F25               	movwf	1+(??_SolveMaze+24+0)&0ffh
  2132  00292E  0108               	movlb	8	; () banked
  2133  002930  C800 F926          	movff	(2048),??_SolveMaze+26+0
  2134  002934  0108               	movlb	8	; () banked
  2135  002936  C801 F927          	movff	(2048+1),??_SolveMaze+26+0+1
  2136  00293A  0E05               	movlw	05h
  2137  00293C                     u8075:
  2138  00293C  90D8               	bcf	status,0
  2139  00293E  0109               	movlb	9	; () banked
  2140  002940  3726               	rlcf	(??_SolveMaze+26+0)&0ffh
  2141  002942  3727               	rlcf	(??_SolveMaze+26+1)&0ffh
  2142  002944  2EE8               	decfsz	wreg
  2143  002946  EF9E  F014         	goto	u8075
  2144  00294A  0E00               	movlw	low(0)
  2145  00294C  0109               	movlb	9	; () banked
  2146  00294E  2526               	addwf	(??_SolveMaze+26+0)&0ffh,w
  2147  002950  0109               	movlb	9	; () banked
  2148  002952  6F28               	movwf	(??_SolveMaze+28+0)&0ffh
  2149  002954  0E00               	movlw	high(0)
  2150  002956  0109               	movlb	9	; () banked
  2151  002958  2127               	addwfc	(??_SolveMaze+26+1)&0ffh,w
  2152  00295A  0109               	movlb	9	; () banked
  2153  00295C  6F29               	movwf	1+(??_SolveMaze+28+0)&0ffh
  2154  00295E  0109               	movlb	9	; () banked
  2155  002960  5124               	movf	(??_SolveMaze+24+0)&0ffh,w
  2156  002962  0109               	movlb	9	; () banked
  2157  002964  2528               	addwf	(??_SolveMaze+28+0)&0ffh,w
  2158  002966  6EE9               	movwf	c:fsr0l
  2159  002968  0109               	movlb	9	; () banked
  2160  00296A  5125               	movf	(??_SolveMaze+24+1)&0ffh,w
  2161  00296C  0109               	movlb	9	; () banked
  2162  00296E  2129               	addwfc	(??_SolveMaze+28+1)&0ffh,w
  2163  002970  6EEA               	movwf	1+c:fsr0l
  2164  002972  0109               	movlb	9	; () banked
  2165  002974  C93A  FFEE         	movff	0+?___wmul,postinc0
  2166  002978  0109               	movlb	9	; () banked
  2167  00297A  C93B  FFED         	movff	1+?___wmul,postdec0
  2168                           
  2169                           	line	383
  2170                           ;main.c: 383: break;
  2171  00297E  EFDE  F015         	goto	l473
  2172                           	line	385
  2173                           ;main.c: 385: case 3:
  2174                           	
  2175  002982                     l477:		; BSR set to: ?
  2176                           
  2177                           	line	386
  2178                           ;main.c: 386: mouseX = 0;
  2179  002982  0E00               	movlw	low(0)
  2180  002984  0108               	movlb	8	; () banked
  2181  002986  0108               	movlb	8	; () banked
  2182  002988  6F02               	movwf	((2050))&0ffh
  2183  00298A  0E00               	movlw	high(0)
  2184  00298C  0108               	movlb	8	; () banked
  2185  00298E  6F03               	movwf	((2050+1))&0ffh
  2186                           	line	387
  2187                           ;main.c: 387: mouseY = 15;
  2188  002990  0E0F               	movlw	low(0Fh)
  2189  002992  0108               	movlb	8	; () banked
  2190  002994  0108               	movlb	8	; () banked
  2191  002996  6F00               	movwf	((2048))&0ffh
  2192  002998  0E00               	movlw	high(0Fh)
  2193  00299A  0108               	movlb	8	; () banked
  2194  00299C  6F01               	movwf	((2048+1))&0ffh
  2195                           	line	388
  2196                           ;main.c: 388: wallMap[mouseY][mouseX] *= 7;
  2197  00299E  0E07               	movlw	low(07h)
  2198  0029A0  0109               	movlb	9	; () banked
  2199  0029A2  0109               	movlb	9	; () banked
  2200  0029A4  6F3C               	movwf	(0+(?___wmul+02h))&0ffh
  2201  0029A6  0E00               	movlw	high(07h)
  2202  0029A8  0109               	movlb	9	; () banked
  2203  0029AA  6F3D               	movwf	(1+(?___wmul+02h))&0ffh
  2204  0029AC  90D8               	bcf	status,0
  2205  0029AE  0108               	movlb	8	; () banked
  2206  0029B0  0108               	movlb	8	; () banked
  2207  0029B2  3502               	rlcf	((2050))&0ffh,w
  2208  0029B4  0109               	movlb	9	; () banked
  2209  0029B6  6F1E               	movwf	(??_SolveMaze+18+0)&0ffh
  2210  0029B8  0108               	movlb	8	; () banked
  2211  0029BA  0108               	movlb	8	; () banked
  2212  0029BC  3503               	rlcf	((2050+1))&0ffh,w
  2213  0029BE  0109               	movlb	9	; () banked
  2214  0029C0  6F1F               	movwf	1+(??_SolveMaze+18+0)&0ffh
  2215  0029C2  0108               	movlb	8	; () banked
  2216  0029C4  C800 F920          	movff	(2048),??_SolveMaze+20+0
  2217  0029C8  0108               	movlb	8	; () banked
  2218  0029CA  C801 F921          	movff	(2048+1),??_SolveMaze+20+0+1
  2219  0029CE  0E05               	movlw	05h
  2220  0029D0                     u8085:
  2221  0029D0  90D8               	bcf	status,0
  2222  0029D2  0109               	movlb	9	; () banked
  2223  0029D4  3720               	rlcf	(??_SolveMaze+20+0)&0ffh
  2224  0029D6  3721               	rlcf	(??_SolveMaze+20+1)&0ffh
  2225  0029D8  2EE8               	decfsz	wreg
  2226  0029DA  EFE8  F014         	goto	u8085
  2227  0029DE  0E00               	movlw	low(0)
  2228  0029E0  0109               	movlb	9	; () banked
  2229  0029E2  2520               	addwf	(??_SolveMaze+20+0)&0ffh,w
  2230  0029E4  0109               	movlb	9	; () banked
  2231  0029E6  6F22               	movwf	(??_SolveMaze+22+0)&0ffh
  2232  0029E8  0E00               	movlw	high(0)
  2233  0029EA  0109               	movlb	9	; () banked
  2234  0029EC  2121               	addwfc	(??_SolveMaze+20+1)&0ffh,w
  2235  0029EE  0109               	movlb	9	; () banked
  2236  0029F0  6F23               	movwf	1+(??_SolveMaze+22+0)&0ffh
  2237  0029F2  0109               	movlb	9	; () banked
  2238  0029F4  511E               	movf	(??_SolveMaze+18+0)&0ffh,w
  2239  0029F6  0109               	movlb	9	; () banked
  2240  0029F8  2522               	addwf	(??_SolveMaze+22+0)&0ffh,w
  2241  0029FA  6EE9               	movwf	c:fsr0l
  2242  0029FC  0109               	movlb	9	; () banked
  2243  0029FE  511F               	movf	(??_SolveMaze+18+1)&0ffh,w
  2244  002A00  0109               	movlb	9	; () banked
  2245  002A02  2123               	addwfc	(??_SolveMaze+22+1)&0ffh,w
  2246  002A04  6EEA               	movwf	1+c:fsr0l
  2247  002A06  0109               	movlb	9	; () banked
  2248  002A08  CFEE F93A          	movff	postinc0,(?___wmul)
  2249  002A0C  0109               	movlb	9	; () banked
  2250  002A0E  CFED F93B          	movff	postdec0,(?___wmul+1)
  2251  002A12  ECDA  F02E         	call	___wmul	;wreg free
  2252  002A16  90D8               	bcf	status,0
  2253  002A18  0108               	movlb	8	; () banked
  2254  002A1A  0108               	movlb	8	; () banked
  2255  002A1C  3502               	rlcf	((2050))&0ffh,w
  2256  002A1E  0109               	movlb	9	; () banked
  2257  002A20  6F24               	movwf	(??_SolveMaze+24+0)&0ffh
  2258  002A22  0108               	movlb	8	; () banked
  2259  002A24  0108               	movlb	8	; () banked
  2260  002A26  3503               	rlcf	((2050+1))&0ffh,w
  2261  002A28  0109               	movlb	9	; () banked
  2262  002A2A  6F25               	movwf	1+(??_SolveMaze+24+0)&0ffh
  2263  002A2C  0108               	movlb	8	; () banked
  2264  002A2E  C800 F926          	movff	(2048),??_SolveMaze+26+0
  2265  002A32  0108               	movlb	8	; () banked
  2266  002A34  C801 F927          	movff	(2048+1),??_SolveMaze+26+0+1
  2267  002A38  0E05               	movlw	05h
  2268  002A3A                     u8095:
  2269  002A3A  90D8               	bcf	status,0
  2270  002A3C  0109               	movlb	9	; () banked
  2271  002A3E  3726               	rlcf	(??_SolveMaze+26+0)&0ffh
  2272  002A40  3727               	rlcf	(??_SolveMaze+26+1)&0ffh
  2273  002A42  2EE8               	decfsz	wreg
  2274  002A44  EF1D  F015         	goto	u8095
  2275  002A48  0E00               	movlw	low(0)
  2276  002A4A  0109               	movlb	9	; () banked
  2277  002A4C  2526               	addwf	(??_SolveMaze+26+0)&0ffh,w
  2278  002A4E  0109               	movlb	9	; () banked
  2279  002A50  6F28               	movwf	(??_SolveMaze+28+0)&0ffh
  2280  002A52  0E00               	movlw	high(0)
  2281  002A54  0109               	movlb	9	; () banked
  2282  002A56  2127               	addwfc	(??_SolveMaze+26+1)&0ffh,w
  2283  002A58  0109               	movlb	9	; () banked
  2284  002A5A  6F29               	movwf	1+(??_SolveMaze+28+0)&0ffh
  2285  002A5C  0109               	movlb	9	; () banked
  2286  002A5E  5124               	movf	(??_SolveMaze+24+0)&0ffh,w
  2287  002A60  0109               	movlb	9	; () banked
  2288  002A62  2528               	addwf	(??_SolveMaze+28+0)&0ffh,w
  2289  002A64  6EE9               	movwf	c:fsr0l
  2290  002A66  0109               	movlb	9	; () banked
  2291  002A68  5125               	movf	(??_SolveMaze+24+1)&0ffh,w
  2292  002A6A  0109               	movlb	9	; () banked
  2293  002A6C  2129               	addwfc	(??_SolveMaze+28+1)&0ffh,w
  2294  002A6E  6EEA               	movwf	1+c:fsr0l
  2295  002A70  0109               	movlb	9	; () banked
  2296  002A72  C93A  FFEE         	movff	0+?___wmul,postinc0
  2297  002A76  0109               	movlb	9	; () banked
  2298  002A78  C93B  FFED         	movff	1+?___wmul,postdec0
  2299                           
  2300                           	line	389
  2301                           ;main.c: 389: break;
  2302  002A7C  EFDE  F015         	goto	l473
  2303                           	line	391
  2304                           ;main.c: 391: case 4:
  2305                           	
  2306  002A80                     l478:		; BSR set to: ?
  2307                           
  2308                           	line	392
  2309                           ;main.c: 392: mouseX = 15;
  2310  002A80  0E0F               	movlw	low(0Fh)
  2311  002A82  0108               	movlb	8	; () banked
  2312  002A84  0108               	movlb	8	; () banked
  2313  002A86  6F02               	movwf	((2050))&0ffh
  2314  002A88  0E00               	movlw	high(0Fh)
  2315  002A8A  0108               	movlb	8	; () banked
  2316  002A8C  6F03               	movwf	((2050+1))&0ffh
  2317                           	line	393
  2318                           ;main.c: 393: mouseY = 15;
  2319  002A8E  0E0F               	movlw	low(0Fh)
  2320  002A90  0108               	movlb	8	; () banked
  2321  002A92  0108               	movlb	8	; () banked
  2322  002A94  6F00               	movwf	((2048))&0ffh
  2323  002A96  0E00               	movlw	high(0Fh)
  2324  002A98  0108               	movlb	8	; () banked
  2325  002A9A  6F01               	movwf	((2048+1))&0ffh
  2326                           	line	394
  2327                           ;main.c: 394: wallMap[mouseY][mouseX] *= 7;
  2328  002A9C  0E07               	movlw	low(07h)
  2329  002A9E  0109               	movlb	9	; () banked
  2330  002AA0  0109               	movlb	9	; () banked
  2331  002AA2  6F3C               	movwf	(0+(?___wmul+02h))&0ffh
  2332  002AA4  0E00               	movlw	high(07h)
  2333  002AA6  0109               	movlb	9	; () banked
  2334  002AA8  6F3D               	movwf	(1+(?___wmul+02h))&0ffh
  2335  002AAA  90D8               	bcf	status,0
  2336  002AAC  0108               	movlb	8	; () banked
  2337  002AAE  0108               	movlb	8	; () banked
  2338  002AB0  3502               	rlcf	((2050))&0ffh,w
  2339  002AB2  0109               	movlb	9	; () banked
  2340  002AB4  6F1E               	movwf	(??_SolveMaze+18+0)&0ffh
  2341  002AB6  0108               	movlb	8	; () banked
  2342  002AB8  0108               	movlb	8	; () banked
  2343  002ABA  3503               	rlcf	((2050+1))&0ffh,w
  2344  002ABC  0109               	movlb	9	; () banked
  2345  002ABE  6F1F               	movwf	1+(??_SolveMaze+18+0)&0ffh
  2346  002AC0  0108               	movlb	8	; () banked
  2347  002AC2  C800 F920          	movff	(2048),??_SolveMaze+20+0
  2348  002AC6  0108               	movlb	8	; () banked
  2349  002AC8  C801 F921          	movff	(2048+1),??_SolveMaze+20+0+1
  2350  002ACC  0E05               	movlw	05h
  2351  002ACE                     u8105:
  2352  002ACE  90D8               	bcf	status,0
  2353  002AD0  0109               	movlb	9	; () banked
  2354  002AD2  3720               	rlcf	(??_SolveMaze+20+0)&0ffh
  2355  002AD4  3721               	rlcf	(??_SolveMaze+20+1)&0ffh
  2356  002AD6  2EE8               	decfsz	wreg
  2357  002AD8  EF67  F015         	goto	u8105
  2358  002ADC  0E00               	movlw	low(0)
  2359  002ADE  0109               	movlb	9	; () banked
  2360  002AE0  2520               	addwf	(??_SolveMaze+20+0)&0ffh,w
  2361  002AE2  0109               	movlb	9	; () banked
  2362  002AE4  6F22               	movwf	(??_SolveMaze+22+0)&0ffh
  2363  002AE6  0E00               	movlw	high(0)
  2364  002AE8  0109               	movlb	9	; () banked
  2365  002AEA  2121               	addwfc	(??_SolveMaze+20+1)&0ffh,w
  2366  002AEC  0109               	movlb	9	; () banked
  2367  002AEE  6F23               	movwf	1+(??_SolveMaze+22+0)&0ffh
  2368  002AF0  0109               	movlb	9	; () banked
  2369  002AF2  511E               	movf	(??_SolveMaze+18+0)&0ffh,w
  2370  002AF4  0109               	movlb	9	; () banked
  2371  002AF6  2522               	addwf	(??_SolveMaze+22+0)&0ffh,w
  2372  002AF8  6EE9               	movwf	c:fsr0l
  2373  002AFA  0109               	movlb	9	; () banked
  2374  002AFC  511F               	movf	(??_SolveMaze+18+1)&0ffh,w
  2375  002AFE  0109               	movlb	9	; () banked
  2376  002B00  2123               	addwfc	(??_SolveMaze+22+1)&0ffh,w
  2377  002B02  6EEA               	movwf	1+c:fsr0l
  2378  002B04  0109               	movlb	9	; () banked
  2379  002B06  CFEE F93A          	movff	postinc0,(?___wmul)
  2380  002B0A  0109               	movlb	9	; () banked
  2381  002B0C  CFED F93B          	movff	postdec0,(?___wmul+1)
  2382  002B10  ECDA  F02E         	call	___wmul	;wreg free
  2383  002B14  90D8               	bcf	status,0
  2384  002B16  0108               	movlb	8	; () banked
  2385  002B18  0108               	movlb	8	; () banked
  2386  002B1A  3502               	rlcf	((2050))&0ffh,w
  2387  002B1C  0109               	movlb	9	; () banked
  2388  002B1E  6F24               	movwf	(??_SolveMaze+24+0)&0ffh
  2389  002B20  0108               	movlb	8	; () banked
  2390  002B22  0108               	movlb	8	; () banked
  2391  002B24  3503               	rlcf	((2050+1))&0ffh,w
  2392  002B26  0109               	movlb	9	; () banked
  2393  002B28  6F25               	movwf	1+(??_SolveMaze+24+0)&0ffh
  2394  002B2A  0108               	movlb	8	; () banked
  2395  002B2C  C800 F926          	movff	(2048),??_SolveMaze+26+0
  2396  002B30  0108               	movlb	8	; () banked
  2397  002B32  C801 F927          	movff	(2048+1),??_SolveMaze+26+0+1
  2398  002B36  0E05               	movlw	05h
  2399  002B38                     u8115:
  2400  002B38  90D8               	bcf	status,0
  2401  002B3A  0109               	movlb	9	; () banked
  2402  002B3C  3726               	rlcf	(??_SolveMaze+26+0)&0ffh
  2403  002B3E  3727               	rlcf	(??_SolveMaze+26+1)&0ffh
  2404  002B40  2EE8               	decfsz	wreg
  2405  002B42  EF9C  F015         	goto	u8115
  2406  002B46  0E00               	movlw	low(0)
  2407  002B48  0109               	movlb	9	; () banked
  2408  002B4A  2526               	addwf	(??_SolveMaze+26+0)&0ffh,w
  2409  002B4C  0109               	movlb	9	; () banked
  2410  002B4E  6F28               	movwf	(??_SolveMaze+28+0)&0ffh
  2411  002B50  0E00               	movlw	high(0)
  2412  002B52  0109               	movlb	9	; () banked
  2413  002B54  2127               	addwfc	(??_SolveMaze+26+1)&0ffh,w
  2414  002B56  0109               	movlb	9	; () banked
  2415  002B58  6F29               	movwf	1+(??_SolveMaze+28+0)&0ffh
  2416  002B5A  0109               	movlb	9	; () banked
  2417  002B5C  5124               	movf	(??_SolveMaze+24+0)&0ffh,w
  2418  002B5E  0109               	movlb	9	; () banked
  2419  002B60  2528               	addwf	(??_SolveMaze+28+0)&0ffh,w
  2420  002B62  6EE9               	movwf	c:fsr0l
  2421  002B64  0109               	movlb	9	; () banked
  2422  002B66  5125               	movf	(??_SolveMaze+24+1)&0ffh,w
  2423  002B68  0109               	movlb	9	; () banked
  2424  002B6A  2129               	addwfc	(??_SolveMaze+28+1)&0ffh,w
  2425  002B6C  6EEA               	movwf	1+c:fsr0l
  2426  002B6E  0109               	movlb	9	; () banked
  2427  002B70  C93A  FFEE         	movff	0+?___wmul,postinc0
  2428  002B74  0109               	movlb	9	; () banked
  2429  002B76  C93B  FFED         	movff	1+?___wmul,postdec0
  2430                           
  2431                           	line	395
  2432                           ;main.c: 395: break;
  2433  002B7A  EFDE  F015         	goto	l473
  2434                           	line	370
  2435                           	
  2436  002B7E                     l474:		; BSR set to: ?
  2437                           
  2438  002B7E  0108               	movlb	8	; () banked
  2439  002B80  C817 F91E          	movff	(2071),??_SolveMaze+18+0
  2440  002B84  0108               	movlb	8	; () banked
  2441  002B86  C818 F91F          	movff	(2071+1),??_SolveMaze+18+0+1
  2442  002B8A  0109               	movlb	9	; () banked
  2443  002B8C  EFD8  F015         	goto	l30043
  2444  002B90                     l30044:
  2445  002B90  0109               	movlb	9	; () banked
  2446  002B92  511E               	movf	(??_SolveMaze+18+0)&0ffh,w
  2447  002B94  0A01               	xorlw	1 ^ 0
  2448  002B96  E101 D5E4          	bz	l475
  2449  002B9A  0A03               	xorlw	2 ^ 1
  2450  002B9C  E101 D669          	bz	l476
  2451  002BA0  0A01               	xorlw	3 ^ 2
  2452  002BA2  E101 D6EE          	bz	l477
  2453  002BA6  0A07               	xorlw	4 ^ 3
  2454  002BA8  E101 D76A          	bz	l478
  2455  002BAC  EFDE  F015         	goto	l473
  2456                           
  2457  002BB0                     l30043:
  2458  002BB0  0109               	movlb	9	; () banked
  2459  002BB2  511F               	movf	(??_SolveMaze+18+1)&0ffh,w
  2460  002BB4  0A00               	xorlw	0 ^ 0
  2461  002BB6  E0EC               	bz	l30044
  2462  002BB8  EFDE  F015         	goto	l473
  2463                           
  2464                           	line	396
  2465                           	
  2466  002BBC                     l473:		; BSR set to: ?
  2467                           
  2468                           	line	399
  2469                           ;main.c: 399: if(runTimeMode == 2){
  2470  002BBC  0108               	movlb	8	; () banked
  2471  002BBE  0108               	movlb	8	; () banked
  2472  002BC0  5119               	movf	((2073))&0ffh,w
  2473  002BC2  0A02               	xorlw	2
  2474  002BC4  111A               	iorwf ((2073+1))&0ffh,w
  2475                           
  2476  002BC6  A4D8               	btfss	status,2
  2477  002BC8  EFE8  F015         	goto	u8121
  2478  002BCC  EFEA  F015         	goto	u8120
  2479  002BD0                     u8121:
  2480  002BD0  EF0A  F018         	goto	l479
  2481  002BD4                     u8120:
  2482                           	line	403
  2483                           ;main.c: 400: int tempVar;
  2484                           ;main.c: 401: int tempDir;
  2485                           ;main.c: 403: for(;;){
  2486                           	
  2487  002BD4                     l480:		; BSR set to: ?
  2488                           
  2489                           	line	405
  2490                           ;main.c: 405: CheckOrientation();
  2491  002BD4  ECB4  F02F         	call	_CheckOrientation	;wreg free
  2492                           	line	407
  2493                           ;main.c: 407: mouseCellValue = mazeMap[mouseY][m
                                 ouseX];
  2494  002BD8  90D8               	bcf	status,0
  2495  002BDA  0108               	movlb	8	; () banked
  2496  002BDC  0108               	movlb	8	; () banked
  2497  002BDE  3502               	rlcf	((2050))&0ffh,w
  2498  002BE0  0109               	movlb	9	; () banked
  2499  002BE2  6F1E               	movwf	(??_SolveMaze+18+0)&0ffh
  2500  002BE4  0108               	movlb	8	; () banked
  2501  002BE6  0108               	movlb	8	; () banked
  2502  002BE8  3503               	rlcf	((2050+1))&0ffh,w
  2503  002BEA  0109               	movlb	9	; () banked
  2504  002BEC  6F1F               	movwf	1+(??_SolveMaze+18+0)&0ffh
  2505  002BEE  0108               	movlb	8	; () banked
  2506  002BF0  C800 F920          	movff	(2048),??_SolveMaze+20+0
  2507  002BF4  0108               	movlb	8	; () banked
  2508  002BF6  C801 F921          	movff	(2048+1),??_SolveMaze+20+0+1
  2509  002BFA  0E05               	movlw	05h
  2510  002BFC                     u8135:
  2511  002BFC  90D8               	bcf	status,0
  2512  002BFE  0109               	movlb	9	; () banked
  2513  002C00  3720               	rlcf	(??_SolveMaze+20+0)&0ffh
  2514  002C02  3721               	rlcf	(??_SolveMaze+20+1)&0ffh
  2515  002C04  2EE8               	decfsz	wreg
  2516  002C06  EFFE  F015         	goto	u8135
  2517  002C0A  0E00               	movlw	low(512)
  2518  002C0C  0109               	movlb	9	; () banked
  2519  002C0E  2520               	addwf	(??_SolveMaze+20+0)&0ffh,w
  2520  002C10  0109               	movlb	9	; () banked
  2521  002C12  6F22               	movwf	(??_SolveMaze+22+0)&0ffh
  2522  002C14  0E02               	movlw	high(512)
  2523  002C16  0109               	movlb	9	; () banked
  2524  002C18  2121               	addwfc	(??_SolveMaze+20+1)&0ffh,w
  2525  002C1A  0109               	movlb	9	; () banked
  2526  002C1C  6F23               	movwf	1+(??_SolveMaze+22+0)&0ffh
  2527  002C1E  0109               	movlb	9	; () banked
  2528  002C20  511E               	movf	(??_SolveMaze+18+0)&0ffh,w
  2529  002C22  0109               	movlb	9	; () banked
  2530  002C24  2522               	addwf	(??_SolveMaze+22+0)&0ffh,w
  2531  002C26  6EE9               	movwf	c:fsr0l
  2532  002C28  0109               	movlb	9	; () banked
  2533  002C2A  511F               	movf	(??_SolveMaze+18+1)&0ffh,w
  2534  002C2C  0109               	movlb	9	; () banked
  2535  002C2E  2123               	addwfc	(??_SolveMaze+22+1)&0ffh,w
  2536  002C30  6EEA               	movwf	1+c:fsr0l
  2537  002C32  0108               	movlb	8	; () banked
  2538  002C34  CFEE F808          	movff	postinc0,(2056)
  2539  002C38  0108               	movlb	8	; () banked
  2540  002C3A  CFED F809          	movff	postdec0,(2056+1)
  2541                           	line	409
  2542                           ;main.c: 409: if(mouseCellValue == 0)
  2543  002C3E  0108               	movlb	8	; () banked
  2544  002C40  0108               	movlb	8	; () banked
  2545  002C42  5109               	movf	((2056+1))&0ffh,w
  2546  002C44  1108               	iorwf ((2056))&0ffh,w
  2547                           
  2548  002C46  A4D8               	btfss	status,2
  2549  002C48  EF28  F016         	goto	u8141
  2550  002C4C  EF2A  F016         	goto	u8140
  2551  002C50                     u8141:
  2552  002C50  EF2C  F016         	goto	l483
  2553  002C54                     u8140:
  2554                           	line	410
  2555                           ;main.c: 410: break;
  2556  002C54  EF06  F018         	goto	l481
  2557                           	
  2558  002C58                     l483:		; BSR set to: ?
  2559                           
  2560                           	line	412
  2561                           ;main.c: 412: CheckWalls();
  2562  002C58  EC36  F000         	call	_CheckWalls	;wreg free
  2563                           	line	413
  2564                           ;main.c: 413: CheckAdjacentCells(mouseY, mouseX)
                                 ;
  2565  002C5C  C802 F92C          	movff	(2050),0+(?_CheckAdjacentCells+02h)
  2566  002C60  C803 F92D          	movff	(2050+1),1+(?_CheckAdjacentCells+02h)
  2567  002C64  C800 F92A          	movff	(2048),(?_CheckAdjacentCells)
  2568  002C68  C801 F92B          	movff	(2048+1),(?_CheckAdjacentCells+1)
  2569  002C6C  EC02  F01B         	call	_CheckAdjacentCells	;wreg free
  2570                           	line	414
  2571                           ;main.c: 414: tempDir = directionFlag;
  2572  002C70  C80A F90C          	movff	(2058),(SolveMaze@tempDir)
  2573  002C74  C80B F90D          	movff	(2058+1),(SolveMaze@tempDir+1)
  2574                           	line	415
  2575                           ;main.c: 415: mouseCellValue = mazeMap[mouseY][m
                                 ouseX];
  2576  002C78  90D8               	bcf	status,0
  2577  002C7A  0108               	movlb	8	; () banked
  2578  002C7C  0108               	movlb	8	; () banked
  2579  002C7E  3502               	rlcf	((2050))&0ffh,w
  2580  002C80  0109               	movlb	9	; () banked
  2581  002C82  6F1E               	movwf	(??_SolveMaze+18+0)&0ffh
  2582  002C84  0108               	movlb	8	; () banked
  2583  002C86  0108               	movlb	8	; () banked
  2584  002C88  3503               	rlcf	((2050+1))&0ffh,w
  2585+ 002C8A  0109               	movlb	9	; () banked
  2586+ 002C8C  6F1F               	movwf	1+(??_SolveMaze+18+0)&0ffh
  2587+ 002C8E  0108               	movlb	8	; () banked
  2588+ 002C90  C800 F920          	movff	(2048),??_SolveMaze+20+0
  2589+ 002C94  0108               	movlb	8	; () banked
  2590+ 002C96  C801 F921          	movff	(2048+1),??_SolveMaze+20+0+1
  2591+ 002C9A  0E05               	movlw	05h
  2592+ 002C9C                     u8155:
  2593+ 002C9C  90D8               	bcf	status,0
  2594+ 002C9E  0109               	movlb	9	; () banked
  2595+ 002CA0  3720               	rlcf	(??_SolveMaze+20+0)&0ffh
  2596+ 002CA2  3721               	rlcf	(??_SolveMaze+20+1)&0ffh
  2597+ 002CA4  2EE8               	decfsz	wreg
  2598+ 002CA6  EF4E  F016         	goto	u8155
  2599+ 002CAA  0E00               	movlw	low(512)
  2600+ 002CAC  0109               	movlb	9	; () banked
  2601+ 002CAE  2520               	addwf	(??_SolveMaze+20+0)&0ffh,w
  2602+ 002CB0  0109               	movlb	9	; () banked
  2603+ 002CB2  6F22               	movwf	(??_SolveMaze+22+0)&0ffh
  2604+ 002CB4  0E02               	movlw	high(512)
  2605+ 002CB6  0109               	movlb	9	; () banked
  2606+ 002CB8  2121               	addwfc	(??_SolveMaze+20+1)&0ffh,w
  2607+ 002CBA  0109               	movlb	9	; () banked
  2608+ 002CBC  6F23               	movwf	1+(??_SolveMaze+22+0)&0ffh
  2609+ 002CBE  0109               	movlb	9	; () banked
  2610+ 002CC0  511E               	movf	(??_SolveMaze+18+0)&0ffh,w
  2611+ 002CC2  0109               	movlb	9	; () banked
  2612+ 002CC4  2522               	addwf	(??_SolveMaze+22+0)&0ffh,w
  2613+ 002CC6  6EE9               	movwf	c:fsr0l
  2614+ 002CC8  0109               	movlb	9	; () banked
  2615+ 002CCA  511F               	movf	(??_SolveMaze+18+1)&0ffh,w
  2616+ 002CCC  0109               	movlb	9	; () banked
  2617+ 002CCE  2123               	addwfc	(??_SolveMaze+22+1)&0ffh,w
  2618+ 002CD0  6EEA               	movwf	1+c:fsr0l
  2619+ 002CD2  0108               	movlb	8	; () banked
  2620+ 002CD4  CFEE F808          	movff	postinc0,(2056)
  2621+ 002CD8  0108               	movlb	8	; () banked
  2622+ 002CDA  CFED F809          	movff	postdec0,(2056+1)
  2623+                          	line	420
  2624+                          ;main.c: 420: for(short a = mouseX-1; a >=0; a--
      +                          ){
  2625+ 002CDE  0EFF               	movlw	low(-1)
  2626+ 002CE0  0108               	movlb	8	; () banked
  2627+ 002CE2  0108               	movlb	8	; () banked
  2628+ 002CE4  2502               	addwf	((2050))&0ffh,w
  2629+ 002CE6  0109               	movlb	9	; () banked
  2630+                          	
  2631+ 002CE8  0109               	movlb	9	; () banked
  2632+ 002CEA  6F12               	movwf	((SolveMaze@a))&0ffh
  2633+ 002CEC  0EFF               	movlw	high(-1)
  2634+ 002CEE  0108               	movlb	8	; () banked
  2635+ 002CF0  0108               	movlb	8	; () banked
  2636+ 002CF2  2103               	addwfc	((2050+1))&0ffh,w
  2637+ 002CF4  0109               	movlb	9	; () banked
  2638+ 002CF6  6F13               	movwf	1+((SolveMaze@a))&0ffh
  2639+ 002CF8  0109               	movlb	9	; () banked
  2640+ 002CFA  0109               	movlb	9	; () banked
  2641+ 002CFC  AF13               	btfss	((SolveMaze@a+1))&0ffh,7
  2642+ 002CFE  EF83  F016         	goto	u8161
  2643+ 002D02  EF85  F016         	goto	u8160
  2644+ 002D06                     u8161:
  2645+ 002D06  EF87  F016         	goto	l484
  2646+ 002D0A                     u8160:
  2647+ 002D0A  EFB9  F016         	goto	l485
  2648+                          	
  2649+ 002D0E                     l484:		; BSR set to: ?
  2650+                          
  2651+                          	line	421
  2652+                          ;main.c: 421: if((mouseY == 7) && (a == 7))
  2653+ 002D0E  0108               	movlb	8	; () banked
  2654+ 002D10  0108               	movlb	8	; () banked
  2655+ 002D12  5100               	movf	((2048))&0ffh,w
  2656+ 002D14  0A07               	xorlw	7
  2657+ 002D16  1101               	iorwf ((2048+1))&0ffh,w
  2658+                          
  2659+ 002D18  A4D8               	btfss	status,2
  2660+ 002D1A  EF91  F016         	goto	u8171
  2661+ 002D1E  EF93  F016         	goto	u8170
  2662+ 002D22                     u8171:
  2663+ 002D22  EFA1  F016         	goto	l487
  2664+ 002D26                     u8170:
  2665+ 002D26  0109               	movlb	9	; () banked
  2666+ 002D28  0109               	movlb	9	; () banked
  2667+ 002D2A  5112               	movf	((SolveMaze@a))&0ffh,w
  2668+ 002D2C  0A07               	xorlw	7
  2669+ 002D2E  1113               	iorwf ((SolveMaze@a+1))&0ffh,w
  2670+                          
  2671+ 002D30  A4D8               	btfss	status,2
  2672+ 002D32  EF9D  F016         	goto	u8181
  2673+ 002D36  EF9F  F016         	goto	u8180
  2674+ 002D3A                     u8181:
  2675+ 002D3A  EFA1  F016         	goto	l487
  2676+ 002D3E                     u8180:
  2677+                          	line	422
  2678+                          ;main.c: 422: continue;
  2679+ 002D3E  EFAB  F016         	goto	l486
  2680+                          	
  2681+ 002D42                     l487:		; BSR set to: ?
  2682+                          
  2683+                          	line	423
  2684+                          ;main.c: 423: CheckAdjacentCells(mouseY, a);
  2685+ 002D42  C912  F92C         	movff	(SolveMaze@a),0+(?_CheckAdjacentCells+02h
      +                          )
  2686+ 002D46  C913  F92D         	movff	(SolveMaze@a+1),1+(?_CheckAdjacentCells+0
      +                          2h)
  2687+ 002D4A  C800 F92A          	movff	(2048),(?_CheckAdjacentCells)
  2688+ 002D4E  C801 F92B          	movff	(2048+1),(?_CheckAdjacentCells+1)
  2689+ 002D52  EC02  F01B         	call	_CheckAdjacentCells	;wreg free
  2690+                          	line	420
  2691+                          	
  2692+ 002D56                     l486:		; BSR set to: ?
  2693+                          
  2694+ 002D56  0109               	movlb	9	; () banked
  2695+ 002D58  0109               	movlb	9	; () banked
  2696+ 002D5A  0712               	decf	((SolveMaze@a))&0ffh
  2697+ 002D5C  A0D8               	btfss	status,0
  2698+ 002D5E  0713               	decf	((SolveMaze@a+1))&0ffh
  2699+ 002D60  0109               	movlb	9	; () banked
  2700+ 002D62  0109               	movlb	9	; () banked
  2701+ 002D64  AF13               	btfss	((SolveMaze@a+1))&0ffh,7
  2702+ 002D66  EFB7  F016         	goto	u8191
  2703  002D6A  EFB9  F016         	goto	u8190
  2704  002D6E                     u8191:
  2705  002D6E  EF87  F016         	goto	l484
  2706  002D72                     u8190:
  2707                           	
  2708  002D72                     l485:		; BSR set to: ?
  2709                           
  2710                           	line	427
  2711                           ;main.c: 425: }
  2712                           ;main.c: 427: for(short a = mouseY-1; a >= 0; a-
                                 -){
  2713  002D72  0EFF               	movlw	low(-1)
  2714  002D74  0108               	movlb	8	; () banked
  2715  002D76  0108               	movlb	8	; () banked
  2716  002D78  2500               	addwf	((2048))&0ffh,w
  2717  002D7A  0109               	movlb	9	; () banked
  2718                           	
  2719  002D7C  0109               	movlb	9	; () banked
  2720  002D7E  6F14               	movwf	((SolveMaze@a_128))&0ffh
  2721  002D80  0EFF               	movlw	high(-1)
  2722  002D82  0108               	movlb	8	; () banked
  2723  002D84  0108               	movlb	8	; () banked
  2724  002D86  2101               	addwfc	((2048+1))&0ffh,w
  2725  002D88  0109               	movlb	9	; () banked
  2726  002D8A  6F15               	movwf	1+((SolveMaze@a_128))&0ffh
  2727  002D8C  0109               	movlb	9	; () banked
  2728  002D8E  0109               	movlb	9	; () banked
  2729  002D90  AF15               	btfss	((SolveMaze@a_128+1))&0ffh,7
  2730  002D92  EFCD  F016         	goto	u8201
  2731  002D96  EFCF  F016         	goto	u8200
  2732  002D9A                     u8201:
  2733  002D9A  EFD1  F016         	goto	l488
  2734  002D9E                     u8200:
  2735  002D9E  EF23  F017         	goto	l489
  2736                           	
  2737  002DA2                     l488:		; BSR set to: ?
  2738                           
  2739                           	line	428
  2740                           ;main.c: 428: for(short b = 15; b >= 0; b--){
  2741  002DA2  0E0F               	movlw	low(0Fh)
  2742  002DA4  0109               	movlb	9	; () banked
  2743  002DA6  0109               	movlb	9	; () banked
  2744  002DA8  6F1A               	movwf	((SolveMaze@b))&0ffh
  2745  002DAA  0E00               	movlw	high(0Fh)
  2746  002DAC  0109               	movlb	9	; () banked
  2747  002DAE  6F1B               	movwf	((SolveMaze@b+1))&0ffh
  2748  002DB0  0109               	movlb	9	; () banked
  2749  002DB2  0109               	movlb	9	; () banked
  2750  002DB4  AF1B               	btfss	((SolveMaze@b+1))&0ffh,7
  2751  002DB6  EFDF  F016         	goto	u8211
  2752  002DBA  EFE1  F016         	goto	u8210
  2753  002DBE                     u8211:
  2754  002DBE  EFE3  F016         	goto	l491
  2755  002DC2                     u8210:
  2756  002DC2  EF15  F017         	goto	l492
  2757                           	
  2758  002DC6                     l491:		; BSR set to: ?
  2759                           
  2760                           	line	429
  2761                           ;main.c: 429: if((a == 7) && (b == 7))
  2762  002DC6  0109               	movlb	9	; () banked
  2763  002DC8  0109               	movlb	9	; () banked
  2764  002DCA  5114               	movf	((SolveMaze@a_128))&0ffh,w
  2765  002DCC  0A07               	xorlw	7
  2766  002DCE  1115               	iorwf ((SolveMaze@a_128+1))&0ffh,w
  2767                           
  2768  002DD0  A4D8               	btfss	status,2
  2769  002DD2  EFED  F016         	goto	u8221
  2770  002DD6  EFEF  F016         	goto	u8220
  2771  002DDA                     u8221:
  2772  002DDA  EFFD  F016         	goto	l494
  2773  002DDE                     u8220:
  2774  002DDE  0109               	movlb	9	; () banked
  2775  002DE0  0109               	movlb	9	; () banked
  2776  002DE2  511A               	movf	((SolveMaze@b))&0ffh,w
  2777  002DE4  0A07               	xorlw	7
  2778  002DE6  111B               	iorwf ((SolveMaze@b+1))&0ffh,w
  2779                           
  2780  002DE8  A4D8               	btfss	status,2
  2781  002DEA  EFF9  F016         	goto	u8231
  2782  002DEE  EFFB  F016         	goto	u8230
  2783  002DF2                     u8231:
  2784  002DF2  EFFD  F016         	goto	l494
  2785  002DF6                     u8230:
  2786                           	line	430
  2787                           ;main.c: 430: continue;
  2788  002DF6  EF07  F017         	goto	l493
  2789                           	
  2790  002DFA                     l494:		; BSR set to: ?
  2791                           
  2792                           	line	431
  2793                           ;main.c: 431: CheckAdjacentCells(a, b);
  2794  002DFA  C91A  F92C         	movff	(SolveMaze@b),0+(?_CheckAdjacentCells+02h
                                 )
  2795  002DFE  C91B  F92D         	movff	(SolveMaze@b+1),1+(?_CheckAdjacentCells+0
                                 2h)
  2796  002E02  C914  F92A         	movff	(SolveMaze@a_128),(?_CheckAdjacentCells)
  2797  002E06  C915  F92B         	movff	(SolveMaze@a_128+1),(?_CheckAdjacentCells
                                 +1)
  2798  002E0A  EC02  F01B         	call	_CheckAdjacentCells	;wreg free
  2799                           	line	428
  2800                           	
  2801  002E0E                     l493:		; BSR set to: ?
  2802                           
  2803  002E0E  0109               	movlb	9	; () banked
  2804  002E10  0109               	movlb	9	; () banked
  2805  002E12  071A               	decf	((SolveMaze@b))&0ffh
  2806  002E14  A0D8               	btfss	status,0
  2807  002E16  071B               	decf	((SolveMaze@b+1))&0ffh
  2808  002E18  0109               	movlb	9	; () banked
  2809  002E1A  0109               	movlb	9	; () banked
  2810  002E1C  AF1B               	btfss	((SolveMaze@b+1))&0ffh,7
  2811  002E1E  EF13  F017         	goto	u8241
  2812  002E22  EF15  F017         	goto	u8240
  2813  002E26                     u8241:
  2814  002E26  EFE3  F016         	goto	l491
  2815  002E2A                     u8240:
  2816                           	
  2817  002E2A                     l492:		; BSR set to: ?
  2818                           
  2819                           	line	427
  2820  002E2A  0109               	movlb	9	; () banked
  2821  002E2C  0109               	movlb	9	; () banked
  2822  002E2E  0714               	decf	((SolveMaze@a_128))&0ffh
  2823  002E30  A0D8               	btfss	status,0
  2824  002E32  0715               	decf	((SolveMaze@a_128+1))&0ffh
  2825  002E34  0109               	movlb	9	; () banked
  2826  002E36  0109               	movlb	9	; () banked
  2827  002E38  AF15               	btfss	((SolveMaze@a_128+1))&0ffh,7
  2828  002E3A  EF21  F017         	goto	u8251
  2829  002E3E  EF23  F017         	goto	u8250
  2830  002E42                     u8251:
  2831  002E42  EFD1  F016         	goto	l488
  2832  002E46                     u8250:
  2833                           	
  2834  002E46                     l489:		; BSR set to: ?
  2835                           
  2836                           	line	437
  2837                           ;main.c: 432: }
  2838                           ;main.c: 433: }
  2839                           ;main.c: 437: for(short a = mouseX+1; a < 16; a+
                                 +){
  2840  002E46  0E01               	movlw	low(01h)
  2841  002E48  0108               	movlb	8	; () banked
  2842  002E4A  0108               	movlb	8	; () banked
  2843  002E4C  2502               	addwf	((2050))&0ffh,w
  2844  002E4E  0109               	movlb	9	; () banked
  2845                           	
  2846  002E50  0109               	movlb	9	; () banked
  2847  002E52  6F16               	movwf	((SolveMaze@a_130))&0ffh
  2848  002E54  0E00               	movlw	high(01h)
  2849  002E56  0108               	movlb	8	; () banked
  2850  002E58  0108               	movlb	8	; () banked
  2851  002E5A  2103               	addwfc	((2050+1))&0ffh,w
  2852  002E5C  0109               	movlb	9	; () banked
  2853  002E5E  6F17               	movwf	1+((SolveMaze@a_130))&0ffh
  2854  002E60  0109               	movlb	9	; () banked
  2855  002E62  0109               	movlb	9	; () banked
  2856  002E64  5117               	movf	((SolveMaze@a_130+1))&0ffh,w
  2857  002E66  0A80               	xorlw	80h
  2858  002E68  0F80               	addlw	-((0)^80h)
  2859  002E6A  0E10               	movlw	010h
  2860  002E6C  B4D8               	btfsc	status,2
  2861  002E6E  5D16               	subwf	((SolveMaze@a_130))&0ffh,w
  2862  002E70  A0D8               	btfss	status,0
  2863  002E72  EF3D  F017         	goto	u8261
  2864  002E76  EF3F  F017         	goto	u8260
  2865  002E7A                     u8261:
  2866  002E7A  EF41  F017         	goto	l495
  2867  002E7E                     u8260:
  2868  002E7E  EF78  F017         	goto	l496
  2869                           	
  2870  002E82                     l495:		; BSR set to: ?
  2871                           
  2872                           	line	438
  2873                           ;main.c: 438: if((mouseY == 7) && (a == 7))
  2874  002E82  0108               	movlb	8	; () banked
  2875  002E84  0108               	movlb	8	; () banked
  2876  002E86  5100               	movf	((2048))&0ffh,w
  2877  002E88  0A07               	xorlw	7
  2878  002E8A  1101               	iorwf ((2048+1))&0ffh,w
  2879                           
  2880  002E8C  A4D8               	btfss	status,2
  2881  002E8E  EF4B  F017         	goto	u8271
  2882  002E92  EF4D  F017         	goto	u8270
  2883  002E96                     u8271:
  2884  002E96  EF5B  F017         	goto	l498
  2885  002E9A                     u8270:
  2886  002E9A  0109               	movlb	9	; () banked
  2887  002E9C  0109               	movlb	9	; () banked
  2888  002E9E  5116               	movf	((SolveMaze@a_130))&0ffh,w
  2889  002EA0  0A07               	xorlw	7
  2890  002EA2  1117               	iorwf ((SolveMaze@a_130+1))&0ffh,w
  2891                           
  2892  002EA4  A4D8               	btfss	status,2
  2893  002EA6  EF57  F017         	goto	u8281
  2894  002EAA  EF59  F017         	goto	u8280
  2895  002EAE                     u8281:
  2896  002EAE  EF5B  F017         	goto	l498
  2897  002EB2                     u8280:
  2898                           	line	439
  2899                           ;main.c: 439: continue;
  2900  002EB2  EF65  F017         	goto	l497
  2901                           	
  2902  002EB6                     l498:		; BSR set to: ?
  2903                           
  2904                           	line	440
  2905                           ;main.c: 440: CheckAdjacentCells(mouseY, a);
  2906  002EB6  C916  F92C         	movff	(SolveMaze@a_130),0+(?_CheckAdjacentCells
                                 +02h)
  2907  002EBA  C917  F92D         	movff	(SolveMaze@a_130+1),1+(?_CheckAdjacentCel
                                 ls+02h)
  2908  002EBE  C800 F92A          	movff	(2048),(?_CheckAdjacentCells)
  2909  002EC2  C801 F92B          	movff	(2048+1),(?_CheckAdjacentCells+1)
  2910  002EC6  EC02  F01B         	call	_CheckAdjacentCells	;wreg free
  2911                           	line	437
  2912                           	
  2913  002ECA                     l497:		; BSR set to: ?
  2914                           
  2915  002ECA  0109               	movlb	9	; () banked
  2916  002ECC  0109               	movlb	9	; () banked
  2917  002ECE  4B16               	infsnz	((SolveMaze@a_130))&0ffh
  2918  002ED0  2B17               	incf	((SolveMaze@a_130+1))&0ffh
  2919  002ED2  0109               	movlb	9	; () banked
  2920  002ED4  0109               	movlb	9	; () banked
  2921  002ED6  5117               	movf	((SolveMaze@a_130+1))&0ffh,w
  2922  002ED8  0A80               	xorlw	80h
  2923  002EDA  0F80               	addlw	-((0)^80h)
  2924  002EDC  0E10               	movlw	010h
  2925  002EDE  B4D8               	btfsc	status,2
  2926  002EE0  5D16               	subwf	((SolveMaze@a_130))&0ffh,w
  2927  002EE2  A0D8               	btfss	status,0
  2928  002EE4  EF76  F017         	goto	u8291
  2929  002EE8  EF78  F017         	goto	u8290
  2930  002EEC                     u8291:
  2931  002EEC  EF41  F017         	goto	l495
  2932  002EF0                     u8290:
  2933                           	
  2934  002EF0                     l496:		; BSR set to: ?
  2935                           
  2936                           	line	443
  2937                           ;main.c: 441: }
  2938                           ;main.c: 443: for(short a = mouseY+1; a < 16; a+
                                 +){
  2939  002EF0  0E01               	movlw	low(01h)
  2940  002EF2  0108               	movlb	8	; () banked
  2941  002EF4  0108               	movlb	8	; () banked
  2942  002EF6  2500               	addwf	((2048))&0ffh,w
  2943  002EF8  0109               	movlb	9	; () banked
  2944                           	
  2945  002EFA  0109               	movlb	9	; () banked
  2946  002EFC  6F18               	movwf	((SolveMaze@a_131))&0ffh
  2947  002EFE  0E00               	movlw	high(01h)
  2948  002F00  0108               	movlb	8	; () banked
  2949  002F02  0108               	movlb	8	; () banked
  2950  002F04  2101               	addwfc	((2048+1))&0ffh,w
  2951  002F06  0109               	movlb	9	; () banked
  2952  002F08  6F19               	movwf	1+((SolveMaze@a_131))&0ffh
  2953  002F0A  0109               	movlb	9	; () banked
  2954  002F0C  0109               	movlb	9	; () banked
  2955  002F0E  5119               	movf	((SolveMaze@a_131+1))&0ffh,w
  2956  002F10  0A80               	xorlw	80h
  2957  002F12  0F80               	addlw	-((0)^80h)
  2958  002F14  0E10               	movlw	010h
  2959  002F16  B4D8               	btfsc	status,2
  2960  002F18  5D18               	subwf	((SolveMaze@a_131))&0ffh,w
  2961  002F1A  A0D8               	btfss	status,0
  2962  002F1C  EF92  F017         	goto	u8301
  2963  002F20  EF94  F017         	goto	u8300
  2964  002F24                     u8301:
  2965  002F24  EF96  F017         	goto	l499
  2966  002F28                     u8300:
  2967  002F28  EFF8  F017         	goto	l500
  2968                           	
  2969  002F2C                     l499:		; BSR set to: ?
  2970                           
  2971                           	line	444
  2972                           ;main.c: 444: for(short b = 0; b < 16; b++){
  2973  002F2C  0E00               	movlw	low(0)
  2974  002F2E  0109               	movlb	9	; () banked
  2975  002F30  0109               	movlb	9	; () banked
  2976  002F32  6F1C               	movwf	((SolveMaze@b_132))&0ffh
  2977  002F34  0E00               	movlw	high(0)
  2978  002F36  0109               	movlb	9	; () banked
  2979  002F38  6F1D               	movwf	((SolveMaze@b_132+1))&0ffh
  2980  002F3A  0109               	movlb	9	; () banked
  2981  002F3C  0109               	movlb	9	; () banked
  2982  002F3E  511D               	movf	((SolveMaze@b_132+1))&0ffh,w
  2983  002F40  0A80               	xorlw	80h
  2984  002F42  0F80               	addlw	-((0)^80h)
  2985  002F44  0E10               	movlw	010h
  2986  002F46  B4D8               	btfsc	status,2
  2987  002F48  5D1C               	subwf	((SolveMaze@b_132))&0ffh,w
  2988  002F4A  A0D8               	btfss	status,0
  2989  002F4C  EFAA  F017         	goto	u8311
  2990  002F50  EFAC  F017         	goto	u8310
  2991  002F54                     u8311:
  2992  002F54  EFAE  F017         	goto	l502
  2993  002F58                     u8310:
  2994  002F58  EFE5  F017         	goto	l503
  2995                           	
  2996  002F5C                     l502:		; BSR set to: ?
  2997                           
  2998                           	line	445
  2999                           ;main.c: 445: if((a == 7) && (b == 7))
  3000  002F5C  0109               	movlb	9	; () banked
  3001  002F5E  0109               	movlb	9	; () banked
  3002  002F60  5118               	movf	((SolveMaze@a_131))&0ffh,w
  3003  002F62  0A07               	xorlw	7
  3004  002F64  1119               	iorwf ((SolveMaze@a_131+1))&0ffh,w
  3005                           
  3006  002F66  A4D8               	btfss	status,2
  3007  002F68  EFB8  F017         	goto	u8321
  3008  002F6C  EFBA  F017         	goto	u8320
  3009  002F70                     u8321:
  3010  002F70  EFC8  F017         	goto	l505
  3011  002F74                     u8320:
  3012  002F74  0109               	movlb	9	; () banked
  3013  002F76  0109               	movlb	9	; () banked
  3014  002F78  511C               	movf	((SolveMaze@b_132))&0ffh,w
  3015  002F7A  0A07               	xorlw	7
  3016  002F7C  111D               	iorwf ((SolveMaze@b_132+1))&0ffh,w
  3017                           
  3018  002F7E  A4D8               	btfss	status,2
  3019  002F80  EFC4  F017         	goto	u8331
  3020  002F84  EFC6  F017         	goto	u8330
  3021  002F88                     u8331:
  3022  002F88  EFC8  F017         	goto	l505
  3023  002F8C                     u8330:
  3024                           	line	446
  3025                           ;main.c: 446: continue;
  3026  002F8C  EFD2  F017         	goto	l504
  3027                           	
  3028  002F90                     l505:		; BSR set to: ?
  3029                           
  3030                           	line	447
  3031                           ;main.c: 447: CheckAdjacentCells(a, b);
  3032  002F90  C91C  F92C         	movff	(SolveMaze@b_132),0+(?_CheckAdjacentCells
                                 +02h)
  3033  002F94  C91D  F92D         	movff	(SolveMaze@b_132+1),1+(?_CheckAdjacentCel
                                 ls+02h)
  3034  002F98  C918  F92A         	movff	(SolveMaze@a_131),(?_CheckAdjacentCells)
  3035  002F9C  C919  F92B         	movff	(SolveMaze@a_131+1),(?_CheckAdjacentCells
                                 +1)
  3036  002FA0  EC02  F01B         	call	_CheckAdjacentCells	;wreg free
  3037                           	line	444
  3038                           	
  3039  002FA4                     l504:		; BSR set to: ?
  3040                           
  3041  002FA4  0109               	movlb	9	; () banked
  3042  002FA6  0109               	movlb	9	; () banked
  3043  002FA8  4B1C               	infsnz	((SolveMaze@b_132))&0ffh
  3044  002FAA  2B1D               	incf	((SolveMaze@b_132+1))&0ffh
  3045  002FAC  0109               	movlb	9	; () banked
  3046  002FAE  0109               	movlb	9	; () banked
  3047  002FB0  511D               	movf	((SolveMaze@b_132+1))&0ffh,w
  3048  002FB2  0A80               	xorlw	80h
  3049  002FB4  0F80               	addlw	-((0)^80h)
  3050  002FB6  0E10               	movlw	010h
  3051  002FB8  B4D8               	btfsc	status,2
  3052  002FBA  5D1C               	subwf	((SolveMaze@b_132))&0ffh,w
  3053  002FBC  A0D8               	btfss	status,0
  3054  002FBE  EFE3  F017         	goto	u8341
  3055  002FC2  EFE5  F017         	goto	u8340
  3056  002FC6                     u8341:
  3057  002FC6  EFAE  F017         	goto	l502
  3058  002FCA                     u8340:
  3059                           	
  3060  002FCA                     l503:		; BSR set to: ?
  3061                           
  3062                           	line	443
  3063  002FCA  0109               	movlb	9	; () banked
  3064  002FCC  0109               	movlb	9	; () banked
  3065  002FCE  4B18               	infsnz	((SolveMaze@a_131))&0ffh
  3066  002FD0  2B19               	incf	((SolveMaze@a_131+1))&0ffh
  3067  002FD2  0109               	movlb	9	; () banked
  3068  002FD4  0109               	movlb	9	; () banked
  3069  002FD6  5119               	movf	((SolveMaze@a_131+1))&0ffh,w
  3070  002FD8  0A80               	xorlw	80h
  3071  002FDA  0F80               	addlw	-((0)^80h)
  3072  002FDC  0E10               	movlw	010h
  3073  002FDE  B4D8               	btfsc	status,2
  3074  002FE0  5D18               	subwf	((SolveMaze@a_131))&0ffh,w
  3075  002FE2  A0D8               	btfss	status,0
  3076  002FE4  EFF6  F017         	goto	u8351
  3077  002FE8  EFF8  F017         	goto	u8350
  3078  002FEC                     u8351:
  3079  002FEC  EF96  F017         	goto	l499
  3080  002FF0                     u8350:
  3081                           	
  3082  002FF0                     l500:		; BSR set to: ?
  3083                           
  3084                           	line	455
  3085                           ;main.c: 448: }
  3086                           ;main.c: 449: }
  3087                           ;main.c: 455: DisableInterrupts();
  3088  002FF0  EC66  F030         	call	_DisableInterrupts	;wreg free
  3089                           	line	457
  3090                           ;main.c: 457: TurnToDirection(tempDir);
  3091  002FF4  C90C  F92A         	movff	(SolveMaze@tempDir),(?_TurnToDirection)
  3092  002FF8  C90D  F92B         	movff	(SolveMaze@tempDir+1),(?_TurnToDirection+
                                 1)
  3093  002FFC  EC30  F026         	call	_TurnToDirection	;wreg free
  3094                           	line	459
  3095                           ;main.c: 459: ConfigureInterrupts();
  3096  003000  EC71  F030         	call	_ConfigureInterrupts	;wreg free
  3097                           	line	461
  3098                           ;main.c: 461: MOVE();
  3099  003004  EC3C  F024         	call	_MOVE	;wreg free
  3100                           	line	462
  3101                           ;main.c: 462: }
  3102  003008  EFEA  F015         	goto	l480
  3103                           	
  3104  00300C                     l481:		; BSR set to: ?
  3105                           
  3106                           	line	463
  3107                           ;main.c: 463: EndMaze();
  3108  00300C  EC41  F02C         	call	_EndMaze	;wreg free
  3109                           	line	464
  3110                           ;main.c: 464: }
  3111  003010  EF01  F01B         	goto	l506
  3112                           	line	465
  3113                           	
  3114  003014                     l479:		; BSR set to: ?
  3115                           
  3116                           ;main.c: 465: else if(runTimeMode == 1){
  3117  003014  0108               	movlb	8	; () banked
  3118  003016  0108               	movlb	8	; () banked
  3119  003018  0519               	decf	((2073))&0ffh,w
  3120  00301A  111A               	iorwf ((2073+1))&0ffh,w
  3121                           
  3122  00301C  A4D8               	btfss	status,2
  3123  00301E  EF13  F018         	goto	u8361
  3124  003022  EF15  F018         	goto	u8360
  3125  003026                     u8361:
  3126  003026  EF01  F01B         	goto	l506
  3127  00302A                     u8360:
  3128                           	line	469
  3129                           ;main.c: 466: int tempVar;
  3130                           ;main.c: 467: int tempDir;
  3131                           ;main.c: 469: for(;;){
  3132                           	
  3133  00302A                     l508:		; BSR set to: ?
  3134                           
  3135                           	line	470
  3136                           ;main.c: 470: mouseCellValue = mazeMap[mouseY][m
                                 ouseX];
  3137  00302A  90D8               	bcf	status,0
  3138  00302C  0108               	movlb	8	; () banked
  3139  00302E  0108               	movlb	8	; () banked
  3140  003030  3502               	rlcf	((2050))&0ffh,w
  3141  003032  0109               	movlb	9	; () banked
  3142  003034  6F1E               	movwf	(??_SolveMaze+18+0)&0ffh
  3143  003036  0108               	movlb	8	; () banked
  3144  003038  0108               	movlb	8	; () banked
  3145  00303A  3503               	rlcf	((2050+1))&0ffh,w
  3146  00303C  0109               	movlb	9	; () banked
  3147  00303E  6F1F               	movwf	1+(??_SolveMaze+18+0)&0ffh
  3148  003040  0108               	movlb	8	; () banked
  3149  003042  C800 F920          	movff	(2048),??_SolveMaze+20+0
  3150  003046  0108               	movlb	8	; () banked
  3151  003048  C801 F921          	movff	(2048+1),??_SolveMaze+20+0+1
  3152  00304C  0E05               	movlw	05h
  3153  00304E                     u8375:
  3154  00304E  90D8               	bcf	status,0
  3155  003050  0109               	movlb	9	; () banked
  3156  003052  3720               	rlcf	(??_SolveMaze+20+0)&0ffh
  3157  003054  3721               	rlcf	(??_SolveMaze+20+1)&0ffh
  3158  003056  2EE8               	decfsz	wreg
  3159  003058  EF27  F018         	goto	u8375
  3160  00305C  0E00               	movlw	low(512)
  3161  00305E  0109               	movlb	9	; () banked
  3162  003060  2520               	addwf	(??_SolveMaze+20+0)&0ffh,w
  3163  003062  0109               	movlb	9	; () banked
  3164  003064  6F22               	movwf	(??_SolveMaze+22+0)&0ffh
  3165  003066  0E02               	movlw	high(512)
  3166  003068  0109               	movlb	9	; () banked
  3167  00306A  2121               	addwfc	(??_SolveMaze+20+1)&0ffh,w
  3168  00306C  0109               	movlb	9	; () banked
  3169  00306E  6F23               	movwf	1+(??_SolveMaze+22+0)&0ffh
  3170  003070  0109               	movlb	9	; () banked
  3171  003072  511E               	movf	(??_SolveMaze+18+0)&0ffh,w
  3172  003074  0109               	movlb	9	; () banked
  3173  003076  2522               	addwf	(??_SolveMaze+22+0)&0ffh,w
  3174  003078  6EE9               	movwf	c:fsr0l
  3175  00307A  0109               	movlb	9	; () banked
  3176  00307C  511F               	movf	(??_SolveMaze+18+1)&0ffh,w
  3177  00307E  0109               	movlb	9	; () banked
  3178  003080  2123               	addwfc	(??_SolveMaze+22+1)&0ffh,w
  3179  003082  6EEA               	movwf	1+c:fsr0l
  3180  003084  0108               	movlb	8	; () banked
  3181  003086  CFEE F808          	movff	postinc0,(2056)
  3182  00308A  0108               	movlb	8	; () banked
  3183  00308C  CFED F809          	movff	postdec0,(2056+1)
  3184                           	line	472
  3185                           ;main.c: 472: tempVar = mouseCellValue;
  3186  003090  C808 F910          	movff	(2056),(SolveMaze@tempVar_133)
  3187  003094  C809 F911          	movff	(2056+1),(SolveMaze@tempVar_133+1)
  3188                           	line	474
  3189                           ;main.c: 474: if(mouseCellValue == 0)
  3190  003098  0108               	movlb	8	; () banked
  3191  00309A  0108               	movlb	8	; () banked
  3192  00309C  5109               	movf	((2056+1))&0ffh,w
  3193  00309E  1108               	iorwf ((2056))&0ffh,w
  3194                           
  3195  0030A0  A4D8               	btfss	status,2
  3196  0030A2  EF55  F018         	goto	u8381
  3197  0030A6  EF57  F018         	goto	u8380
  3198  0030AA                     u8381:
  3199  0030AA  EF59  F018         	goto	l511
  3200  0030AE                     u8380:
  3201                           	line	475
  3202                           ;main.c: 475: break;
  3203  0030AE  EFFF  F01A         	goto	l509
  3204                           	
  3205  0030B2                     l511:		; BSR set to: ?
  3206                           
  3207                           	line	477
  3208                           ;main.c: 477: CheckOrientation();
  3209  0030B2  ECB4  F02F         	call	_CheckOrientation	;wreg free
  3210                           	line	480
  3211                           ;main.c: 480: if ((mouseX+1 < 16) && (mazeMap[mo
                                 useY][mouseX+1] < tempVar)){
  3212  0030B6  0E01               	movlw	01h
  3213  0030B8  0108               	movlb	8	; () banked
  3214  0030BA  0108               	movlb	8	; () banked
  3215  0030BC  2502               	addwf	((2050))&0ffh,w
  3216  0030BE  0109               	movlb	9	; () banked
  3217  0030C0  6F1E               	movwf	(??_SolveMaze+18+0)&0ffh
  3218  0030C2  0E00               	movlw	0
  3219  0030C4  0108               	movlb	8	; () banked
  3220  0030C6  0108               	movlb	8	; () banked
  3221  0030C8  2103               	addwfc	((2050+1))&0ffh,w
  3222  0030CA  0109               	movlb	9	; () banked
  3223  0030CC  6F1F               	movwf	(??_SolveMaze+18+0+1)&0ffh
  3224  0030CE  0109               	movlb	9	; () banked
  3225  0030D0  511F               	movf	(??_SolveMaze+18+1)&0ffh,w
  3226  0030D2  0A80               	xorlw	80h
  3227  0030D4  0F80               	addlw	-((0)^80h)
  3228  0030D6  0E10               	movlw	010h
  3229  0030D8  B4D8               	btfsc	status,2
  3230  0030DA  5D1E               	subwf	(??_SolveMaze+18+0)&0ffh,w
  3231  0030DC  B0D8               	btfsc	status,0
  3232  0030DE  EF73  F018         	goto	u8391
  3233  0030E2  EF75  F018         	goto	u8390
  3234  0030E6                     u8391:
  3235  0030E6  EF01  F019         	goto	l512
  3236  0030EA                     u8390:
  3237  0030EA  0108               	movlb	8	; () banked
  3238  0030EC  C800 F91E          	movff	(2048),??_SolveMaze+18+0
  3239  0030F0  0108               	movlb	8	; () banked
  3240  0030F2  C801 F91F          	movff	(2048+1),??_SolveMaze+18+0+1
  3241  0030F6  0E05               	movlw	05h
  3242  0030F8                     u8405:
  3243  0030F8  90D8               	bcf	status,0
  3244  0030FA  0109               	movlb	9	; () banked
  3245  0030FC  371E               	rlcf	(??_SolveMaze+18+0)&0ffh
  3246  0030FE  371F               	rlcf	(??_SolveMaze+18+1)&0ffh
  3247  003100  2EE8               	decfsz	wreg
  3248  003102  EF7C  F018         	goto	u8405
  3249  003106  90D8               	bcf	status,0
  3250  003108  0108               	movlb	8	; () banked
  3251  00310A  0108               	movlb	8	; () banked
  3252  00310C  3502               	rlcf	((2050))&0ffh,w
  3253  00310E  0109               	movlb	9	; () banked
  3254  003110  6F20               	movwf	(??_SolveMaze+20+0)&0ffh
  3255  003112  0108               	movlb	8	; () banked
  3256  003114  0108               	movlb	8	; () banked
  3257  003116  3503               	rlcf	((2050+1))&0ffh,w
  3258  003118  0109               	movlb	9	; () banked
  3259  00311A  6F21               	movwf	1+(??_SolveMaze+20+0)&0ffh
  3260  00311C  0E02               	movlw	02h
  3261  00311E  0109               	movlb	9	; () banked
  3262  003120  2720               	addwf	(??_SolveMaze+20+0)&0ffh
  3263  003122  0E00               	movlw	0
  3264  003124  2321               	addwfc	(??_SolveMaze+20+1)&0ffh
  3265  003126  0E00               	movlw	low(512)
  3266  003128  0109               	movlb	9	; () banked
  3267  00312A  2520               	addwf	(??_SolveMaze+20+0)&0ffh,w
  3268  00312C  0109               	movlb	9	; () banked
  3269  00312E  6F22               	movwf	(??_SolveMaze+22+0)&0ffh
  3270  003130  0E02               	movlw	high(512)
  3271  003132  0109               	movlb	9	; () banked
  3272  003134  2121               	addwfc	(??_SolveMaze+20+1)&0ffh,w
  3273  003136  0109               	movlb	9	; () banked
  3274  003138  6F23               	movwf	1+(??_SolveMaze+22+0)&0ffh
  3275  00313A  0109               	movlb	9	; () banked
  3276  00313C  511E               	movf	(??_SolveMaze+18+0)&0ffh,w
  3277  00313E  0109               	movlb	9	; () banked
  3278  003140  2522               	addwf	(??_SolveMaze+22+0)&0ffh,w
  3279  003142  6EE9               	movwf	c:fsr0l
  3280  003144  0109               	movlb	9	; () banked
  3281  003146  511F               	movf	(??_SolveMaze+18+1)&0ffh,w
  3282  003148  0109               	movlb	9	; () banked
  3283  00314A  2123               	addwfc	(??_SolveMaze+22+1)&0ffh,w
  3284  00314C  6EEA               	movwf	1+c:fsr0l
  3285  00314E  CFEE F924          	movff	postinc0,??_SolveMaze+24+0
  3286  003152  CFED F925          	movff	postdec0,??_SolveMaze+24+0+1
  3287  003156  0109               	movlb	9	; () banked
  3288  003158  5125               	movf	(??_SolveMaze+24+1)&0ffh,w
  3289  00315A  0A80               	xorlw	80h
  3290  00315C  0109               	movlb	9	; () banked
  3291  00315E  6F26               	movwf	(??_SolveMaze+26+0)&0ffh
  3292  003160  0109               	movlb	9	; () banked
  3293  003162  0109               	movlb	9	; () banked
  3294  003164  5110               	movf	((SolveMaze@tempVar_133))&0ffh,w
  3295  003166  0109               	movlb	9	; () banked
  3296  003168  5D24               	subwf	(??_SolveMaze+24+0)&0ffh,w
  3297  00316A  0109               	movlb	9	; () banked
  3298  00316C  0109               	movlb	9	; () banked
  3299  00316E  5111               	movf	((SolveMaze@tempVar_133+1))&0ffh,w
  3300  003170  0A80               	xorlw	80h
  3301  003172  0109               	movlb	9	; () banked
  3302  003174  5926               	subwfb	(??_SolveMaze+26+0)&0ffh,w
  3303  003176  B0D8               	btfsc	status,0
  3304  003178  EFC0  F018         	goto	u8411
  3305  00317C  EFC2  F018         	goto	u8410
  3306  003180                     u8411:
  3307  003180  EF01  F019         	goto	l512
  3308  003184                     u8410:
  3309                           	line	481
  3310                           ;main.c: 481: tempVar = mazeMap[mouseY][mouseX+1
                                 ];
  3311  003184  0108               	movlb	8	; () banked
  3312  003186  C800 F91E          	movff	(2048),??_SolveMaze+18+0
  3313  00318A  0108               	movlb	8	; () banked
  3314  00318C  C801 F91F          	movff	(2048+1),??_SolveMaze+18+0+1
  3315  003190  0E05               	movlw	05h
  3316  003192                     u8425:
  3317  003192  90D8               	bcf	status,0
  3318  003194  0109               	movlb	9	; () banked
  3319  003196  371E               	rlcf	(??_SolveMaze+18+0)&0ffh
  3320  003198  371F               	rlcf	(??_SolveMaze+18+1)&0ffh
  3321  00319A  2EE8               	decfsz	wreg
  3322  00319C  EFC9  F018         	goto	u8425
  3323  0031A0  90D8               	bcf	status,0
  3324  0031A2  0108               	movlb	8	; () banked
  3325  0031A4  0108               	movlb	8	; () banked
  3326  0031A6  3502               	rlcf	((2050))&0ffh,w
  3327  0031A8  0109               	movlb	9	; () banked
  3328  0031AA  6F20               	movwf	(??_SolveMaze+20+0)&0ffh
  3329  0031AC  0108               	movlb	8	; () banked
  3330  0031AE  0108               	movlb	8	; () banked
  3331  0031B0  3503               	rlcf	((2050+1))&0ffh,w
  3332  0031B2  0109               	movlb	9	; () banked
  3333  0031B4  6F21               	movwf	1+(??_SolveMaze+20+0)&0ffh
  3334  0031B6  0E02               	movlw	02h
  3335  0031B8  0109               	movlb	9	; () banked
  3336  0031BA  2720               	addwf	(??_SolveMaze+20+0)&0ffh
  3337  0031BC  0E00               	movlw	0
  3338  0031BE  2321               	addwfc	(??_SolveMaze+20+1)&0ffh
  3339  0031C0  0E00               	movlw	low(512)
  3340  0031C2  0109               	movlb	9	; () banked
  3341  0031C4  2520               	addwf	(??_SolveMaze+20+0)&0ffh,w
  3342  0031C6  0109               	movlb	9	; () banked
  3343  0031C8  6F22               	movwf	(??_SolveMaze+22+0)&0ffh
  3344  0031CA  0E02               	movlw	high(512)
  3345  0031CC  0109               	movlb	9	; () banked
  3346  0031CE  2121               	addwfc	(??_SolveMaze+20+1)&0ffh,w
  3347  0031D0  0109               	movlb	9	; () banked
  3348  0031D2  6F23               	movwf	1+(??_SolveMaze+22+0)&0ffh
  3349  0031D4  0109               	movlb	9	; () banked
  3350  0031D6  511E               	movf	(??_SolveMaze+18+0)&0ffh,w
  3351  0031D8  0109               	movlb	9	; () banked
  3352  0031DA  2522               	addwf	(??_SolveMaze+22+0)&0ffh,w
  3353  0031DC  6EE9               	movwf	c:fsr0l
  3354  0031DE  0109               	movlb	9	; () banked
  3355  0031E0  511F               	movf	(??_SolveMaze+18+1)&0ffh,w
  3356  0031E2  0109               	movlb	9	; () banked
  3357  0031E4  2123               	addwfc	(??_SolveMaze+22+1)&0ffh,w
  3358  0031E6  6EEA               	movwf	1+c:fsr0l
  3359  0031E8  0109               	movlb	9	; () banked
  3360  0031EA  CFEE F910          	movff	postinc0,(SolveMaze@tempVar_133)
  3361  0031EE  0109               	movlb	9	; () banked
  3362  0031F0  CFED F911          	movff	postdec0,(SolveMaze@tempVar_133+1)
  3363                           	line	482
  3364                           ;main.c: 482: tempDir = 5;
  3365  0031F4  0E05               	movlw	low(05h)
  3366  0031F6  0109               	movlb	9	; () banked
  3367  0031F8  0109               	movlb	9	; () banked
  3368  0031FA  6F0E               	movwf	((SolveMaze@tempDir_134))&0ffh
  3369  0031FC  0E00               	movlw	high(05h)
  3370  0031FE  0109               	movlb	9	; () banked
  3371  003200  6F0F               	movwf	((SolveMaze@tempDir_134+1))&0ffh
  3372                           	line	483
  3373                           	
  3374  003202                     l512:		; BSR set to: ?
  3375                           
  3376                           	line	484
  3377                           ;main.c: 483: }
  3378                           ;main.c: 484: if((mouseY+1 < 16) && (mazeMap[mou
                                 seY+1][mouseX] < tempVar)){
  3379  003202  0E01               	movlw	01h
  3380  003204  0108               	movlb	8	; () banked
  3381  003206  0108               	movlb	8	; () banked
  3382  003208  2500               	addwf	((2048))&0ffh,w
  3383  00320A  0109               	movlb	9	; () banked
  3384  00320C  6F1E               	movwf	(??_SolveMaze+18+0)&0ffh
  3385  00320E  0E00               	movlw	0
  3386  003210  0108               	movlb	8	; () banked
  3387  003212  0108               	movlb	8	; () banked
  3388  003214  2101               	addwfc	((2048+1))&0ffh,w
  3389  003216  0109               	movlb	9	; () banked
  3390  003218  6F1F               	movwf	(??_SolveMaze+18+0+1)&0ffh
  3391  00321A  0109               	movlb	9	; () banked
  3392  00321C  511F               	movf	(??_SolveMaze+18+1)&0ffh,w
  3393  00321E  0A80               	xorlw	80h
  3394  003220  0F80               	addlw	-((0)^80h)
  3395  003222  0E10               	movlw	010h
  3396  003224  B4D8               	btfsc	status,2
  3397  003226  5D1E               	subwf	(??_SolveMaze+18+0)&0ffh,w
  3398  003228  B0D8               	btfsc	status,0
  3399  00322A  EF19  F019         	goto	u8431
  3400  00322E  EF1B  F019         	goto	u8430
  3401  003232                     u8431:
  3402  003232  EFA7  F019         	goto	l513
  3403  003236                     u8430:
  3404  003236  90D8               	bcf	status,0
  3405  003238  0108               	movlb	8	; () banked
  3406  00323A  0108               	movlb	8	; () banked
  3407  00323C  3502               	rlcf	((2050))&0ffh,w
  3408  00323E  0109               	movlb	9	; () banked
  3409  003240  6F1E               	movwf	(??_SolveMaze+18+0)&0ffh
  3410  003242  0108               	movlb	8	; () banked
  3411  003244  0108               	movlb	8	; () banked
  3412  003246  3503               	rlcf	((2050+1))&0ffh,w
  3413  003248  0109               	movlb	9	; () banked
  3414  00324A  6F1F               	movwf	1+(??_SolveMaze+18+0)&0ffh
  3415  00324C  0108               	movlb	8	; () banked
  3416  00324E  C800 F920          	movff	(2048),??_SolveMaze+20+0
  3417  003252  0108               	movlb	8	; () banked
  3418  003254  C801 F921          	movff	(2048+1),??_SolveMaze+20+0+1
  3419  003258  0E05               	movlw	05h
  3420  00325A                     u8445:
  3421  00325A  90D8               	bcf	status,0
  3422  00325C  0109               	movlb	9	; () banked
  3423  00325E  3720               	rlcf	(??_SolveMaze+20+0)&0ffh
  3424  003260  3721               	rlcf	(??_SolveMaze+20+1)&0ffh
  3425  003262  2EE8               	decfsz	wreg
  3426  003264  EF2D  F019         	goto	u8445
  3427  003268  0E20               	movlw	020h
  3428  00326A  0109               	movlb	9	; () banked
  3429  00326C  2720               	addwf	(??_SolveMaze+20+0)&0ffh
  3430  00326E  0E00               	movlw	0
  3431  003270  2321               	addwfc	(??_SolveMaze+20+1)&0ffh
  3432  003272  0E00               	movlw	low(512)
  3433  003274  0109               	movlb	9	; () banked
  3434  003276  2520               	addwf	(??_SolveMaze+20+0)&0ffh,w
  3435  003278  0109               	movlb	9	; () banked
  3436  00327A  6F22               	movwf	(??_SolveMaze+22+0)&0ffh
  3437  00327C  0E02               	movlw	high(512)
  3438  00327E  0109               	movlb	9	; () banked
  3439  003280  2121               	addwfc	(??_SolveMaze+20+1)&0ffh,w
  3440  003282  0109               	movlb	9	; () banked
  3441  003284  6F23               	movwf	1+(??_SolveMaze+22+0)&0ffh
  3442  003286  0109               	movlb	9	; () banked
  3443  003288  511E               	movf	(??_SolveMaze+18+0)&0ffh,w
  3444  00328A  0109               	movlb	9	; () banked
  3445  00328C  2522               	addwf	(??_SolveMaze+22+0)&0ffh,w
  3446  00328E  6EE9               	movwf	c:fsr0l
  3447  003290  0109               	movlb	9	; () banked
  3448  003292  511F               	movf	(??_SolveMaze+18+1)&0ffh,w
  3449  003294  0109               	movlb	9	; () banked
  3450  003296  2123               	addwfc	(??_SolveMaze+22+1)&0ffh,w
  3451  003298  6EEA               	movwf	1+c:fsr0l
  3452  00329A  CFEE F924          	movff	postinc0,??_SolveMaze+24+0
  3453  00329E  CFED F925          	movff	postdec0,??_SolveMaze+24+0+1
  3454  0032A2  0109               	movlb	9	; () banked
  3455  0032A4  5125               	movf	(??_SolveMaze+24+1)&0ffh,w
  3456  0032A6  0A80               	xorlw	80h
  3457  0032A8  0109               	movlb	9	; () banked
  3458  0032AA  6F26               	movwf	(??_SolveMaze+26+0)&0ffh
  3459  0032AC  0109               	movlb	9	; () banked
  3460  0032AE  0109               	movlb	9	; () banked
  3461  0032B0  5110               	movf	((SolveMaze@tempVar_133))&0ffh,w
  3462  0032B2  0109               	movlb	9	; () banked
  3463  0032B4  5D24               	subwf	(??_SolveMaze+24+0)&0ffh,w
  3464  0032B6  0109               	movlb	9	; () banked
  3465  0032B8  0109               	movlb	9	; () banked
  3466  0032BA  5111               	movf	((SolveMaze@tempVar_133+1))&0ffh,w
  3467  0032BC  0A80               	xorlw	80h
  3468  0032BE  0109               	movlb	9	; () banked
  3469  0032C0  5926               	subwfb	(??_SolveMaze+26+0)&0ffh,w
  3470  0032C2  B0D8               	btfsc	status,0
  3471  0032C4  EF66  F019         	goto	u8451
  3472  0032C8  EF68  F019         	goto	u8450
  3473  0032CC                     u8451:
  3474  0032CC  EFA7  F019         	goto	l513
  3475  0032D0                     u8450:
  3476                           	line	485
  3477                           ;main.c: 485: tempVar = mazeMap[mouseY+1][mouseX
                                 ];
  3478  0032D0  90D8               	bcf	status,0
  3479  0032D2  0108               	movlb	8	; () banked
  3480  0032D4  0108               	movlb	8	; () banked
  3481  0032D6  3502               	rlcf	((2050))&0ffh,w
  3482  0032D8  0109               	movlb	9	; () banked
  3483  0032DA  6F1E               	movwf	(??_SolveMaze+18+0)&0ffh
  3484  0032DC  0108               	movlb	8	; () banked
  3485  0032DE  0108               	movlb	8	; () banked
  3486  0032E0  3503               	rlcf	((2050+1))&0ffh,w
  3487  0032E2  0109               	movlb	9	; () banked
  3488  0032E4  6F1F               	movwf	1+(??_SolveMaze+18+0)&0ffh
  3489  0032E6  0108               	movlb	8	; () banked
  3490  0032E8  C800 F920          	movff	(2048),??_SolveMaze+20+0
  3491  0032EC  0108               	movlb	8	; () banked
  3492  0032EE  C801 F921          	movff	(2048+1),??_SolveMaze+20+0+1
  3493  0032F2  0E05               	movlw	05h
  3494  0032F4                     u8465:
  3495  0032F4  90D8               	bcf	status,0
  3496  0032F6  0109               	movlb	9	; () banked
  3497  0032F8  3720               	rlcf	(??_SolveMaze+20+0)&0ffh
  3498  0032FA  3721               	rlcf	(??_SolveMaze+20+1)&0ffh
  3499  0032FC  2EE8               	decfsz	wreg
  3500  0032FE  EF7A  F019         	goto	u8465
  3501  003302  0E20               	movlw	020h
  3502  003304  0109               	movlb	9	; () banked
  3503  003306  2720               	addwf	(??_SolveMaze+20+0)&0ffh
  3504  003308  0E00               	movlw	0
  3505  00330A  2321               	addwfc	(??_SolveMaze+20+1)&0ffh
  3506  00330C  0E00               	movlw	low(512)
  3507  00330E  0109               	movlb	9	; () banked
  3508  003310  2520               	addwf	(??_SolveMaze+20+0)&0ffh,w
  3509  003312  0109               	movlb	9	; () banked
  3510  003314  6F22               	movwf	(??_SolveMaze+22+0)&0ffh
  3511  003316  0E02               	movlw	high(512)
  3512  003318  0109               	movlb	9	; () banked
  3513  00331A  2121               	addwfc	(??_SolveMaze+20+1)&0ffh,w
  3514  00331C  0109               	movlb	9	; () banked
  3515  00331E  6F23               	movwf	1+(??_SolveMaze+22+0)&0ffh
  3516  003320  0109               	movlb	9	; () banked
  3517  003322  511E               	movf	(??_SolveMaze+18+0)&0ffh,w
  3518  003324  0109               	movlb	9	; () banked
  3519  003326  2522               	addwf	(??_SolveMaze+22+0)&0ffh,w
  3520  003328  6EE9               	movwf	c:fsr0l
  3521  00332A  0109               	movlb	9	; () banked
  3522  00332C  511F               	movf	(??_SolveMaze+18+1)&0ffh,w
  3523  00332E  0109               	movlb	9	; () banked
  3524  003330  2123               	addwfc	(??_SolveMaze+22+1)&0ffh,w
  3525  003332  6EEA               	movwf	1+c:fsr0l
  3526  003334  0109               	movlb	9	; () banked
  3527  003336  CFEE F910          	movff	postinc0,(SolveMaze@tempVar_133)
  3528  00333A  0109               	movlb	9	; () banked
  3529  00333C  CFED F911          	movff	postdec0,(SolveMaze@tempVar_133+1)
  3530                           	line	486
  3531                           ;main.c: 486: tempDir = 7;
  3532  003340  0E07               	movlw	low(07h)
  3533  003342  0109               	movlb	9	; () banked
  3534  003344  0109               	movlb	9	; () banked
  3535  003346  6F0E               	movwf	((SolveMaze@tempDir_134))&0ffh
  3536  003348  0E00               	movlw	high(07h)
  3537  00334A  0109               	movlb	9	; () banked
  3538  00334C  6F0F               	movwf	((SolveMaze@tempDir_134+1))&0ffh
  3539                           	line	487
  3540                           	
  3541  00334E                     l513:		; BSR set to: ?
  3542                           
  3543                           	line	488
  3544                           ;main.c: 487: }
  3545                           ;main.c: 488: if((mouseX-1 >= 0) && (mazeMap[mou
                                 seY][mouseX-1] < tempVar)){
  3546  00334E  0EFF               	movlw	0FFh
  3547  003350  0108               	movlb	8	; () banked
  3548  003352  0108               	movlb	8	; () banked
  3549  003354  2502               	addwf	((2050))&0ffh,w
  3550  003356  0EFF               	movlw	0FFh
  3551  003358  0108               	movlb	8	; () banked
  3552  00335A  2103               	addwfc	((2050+1))&0ffh,w
  3553  00335C  0B80               	andlw	80h
  3554  00335E  A4D8               	btfss	status,2
  3555  003360  EFB4  F019         	goto	u8471
  3556  003364  EFB6  F019         	goto	u8470
  3557  003368                     u8471:
  3558  003368  EF4C  F01A         	goto	l514
  3559  00336C                     u8470:
  3560  00336C  0108               	movlb	8	; () banked
  3561  00336E  C800 F91E          	movff	(2048),??_SolveMaze+18+0
  3562  003372  0108               	movlb	8	; () banked
  3563  003374  C801 F91F          	movff	(2048+1),??_SolveMaze+18+0+1
  3564  003378  0E05               	movlw	05h
  3565  00337A                     u8485:
  3566  00337A  90D8               	bcf	status,0
  3567  00337C  0109               	movlb	9	; () banked
  3568  00337E  371E               	rlcf	(??_SolveMaze+18+0)&0ffh
  3569  003380  371F               	rlcf	(??_SolveMaze+18+1)&0ffh
  3570  003382  2EE8               	decfsz	wreg
  3571  003384  EFBD  F019         	goto	u8485
  3572  003388  90D8               	bcf	status,0
  3573  00338A  0108               	movlb	8	; () banked
  3574  00338C  0108               	movlb	8	; () banked
  3575  00338E  3502               	rlcf	((2050))&0ffh,w
  3576  003390  0109               	movlb	9	; () banked
  3577  003392  6F20               	movwf	(??_SolveMaze+20+0)&0ffh
  3578  003394  0108               	movlb	8	; () banked
  3579  003396  0108               	movlb	8	; () banked
  3580  003398  3503               	rlcf	((2050+1))&0ffh,w
  3581  00339A  0109               	movlb	9	; () banked
  3582  00339C  6F21               	movwf	1+(??_SolveMaze+20+0)&0ffh
  3583  00339E  0EFE               	movlw	low(0FFFEh)
  3584  0033A0  0109               	movlb	9	; () banked
  3585  0033A2  2520               	addwf	(??_SolveMaze+20+0)&0ffh,w
  3586  0033A4  0109               	movlb	9	; () banked
  3587  0033A6  6F22               	movwf	(??_SolveMaze+22+0)&0ffh
  3588  0033A8  0EFF               	movlw	high(0FFFEh)
  3589  0033AA  0109               	movlb	9	; () banked
  3590  0033AC  2121               	addwfc	(??_SolveMaze+20+1)&0ffh,w
  3591  0033AE  0109               	movlb	9	; () banked
  3592  0033B0  6F23               	movwf	1+(??_SolveMaze+22+0)&0ffh
  3593  0033B2  0E00               	movlw	low(512)
  3594  0033B4  0109               	movlb	9	; () banked
  3595  0033B6  2522               	addwf	(??_SolveMaze+22+0)&0ffh,w
  3596  0033B8  0109               	movlb	9	; () banked
  3597  0033BA  6F24               	movwf	(??_SolveMaze+24+0)&0ffh
  3598  0033BC  0E02               	movlw	high(512)
  3599  0033BE  0109               	movlb	9	; () banked
  3600  0033C0  2123               	addwfc	(??_SolveMaze+22+1)&0ffh,w
  3601  0033C2  0109               	movlb	9	; () banked
  3602  0033C4  6F25               	movwf	1+(??_SolveMaze+24+0)&0ffh
  3603  0033C6  0109               	movlb	9	; () banked
  3604  0033C8  511E               	movf	(??_SolveMaze+18+0)&0ffh,w
  3605  0033CA  0109               	movlb	9	; () banked
  3606  0033CC  2524               	addwf	(??_SolveMaze+24+0)&0ffh,w
  3607  0033CE  6EE9               	movwf	c:fsr0l
  3608  0033D0  0109               	movlb	9	; () banked
  3609  0033D2  511F               	movf	(??_SolveMaze+18+1)&0ffh,w
  3610  0033D4  0109               	movlb	9	; () banked
  3611  0033D6  2125               	addwfc	(??_SolveMaze+24+1)&0ffh,w
  3612  0033D8  6EEA               	movwf	1+c:fsr0l
  3613  0033DA  CFEE F926          	movff	postinc0,??_SolveMaze+26+0
  3614  0033DE  CFED F927          	movff	postdec0,??_SolveMaze+26+0+1
  3615  0033E2  0109               	movlb	9	; () banked
  3616  0033E4  5127               	movf	(??_SolveMaze+26+1)&0ffh,w
  3617  0033E6  0A80               	xorlw	80h
  3618  0033E8  0109               	movlb	9	; () banked
  3619  0033EA  6F28               	movwf	(??_SolveMaze+28+0)&0ffh
  3620  0033EC  0109               	movlb	9	; () banked
  3621  0033EE  0109               	movlb	9	; () banked
  3622  0033F0  5110               	movf	((SolveMaze@tempVar_133))&0ffh,w
  3623  0033F2  0109               	movlb	9	; () banked
  3624  0033F4  5D26               	subwf	(??_SolveMaze+26+0)&0ffh,w
  3625  0033F6  0109               	movlb	9	; () banked
  3626  0033F8  0109               	movlb	9	; () banked
  3627  0033FA  5111               	movf	((SolveMaze@tempVar_133+1))&0ffh,w
  3628  0033FC  0A80               	xorlw	80h
  3629  0033FE  0109               	movlb	9	; () banked
  3630  003400  5928               	subwfb	(??_SolveMaze+28+0)&0ffh,w
  3631  003402  B0D8               	btfsc	status,0
  3632  003404  EF06  F01A         	goto	u8491
  3633  003408  EF08  F01A         	goto	u8490
  3634  00340C                     u8491:
  3635  00340C  EF4C  F01A         	goto	l514
  3636  003410                     u8490:
  3637                           	line	489
  3638                           ;main.c: 489: tempVar = mazeMap[mouseY][mouseX-1
                                 ];
  3639  003410  0108               	movlb	8	; () banked
  3640  003412  C800 F91E          	movff	(2048),??_SolveMaze+18+0
  3641  003416  0108               	movlb	8	; () banked
  3642  003418  C801 F91F          	movff	(2048+1),??_SolveMaze+18+0+1
  3643  00341C  0E05               	movlw	05h
  3644  00341E                     u8505:
  3645  00341E  90D8               	bcf	status,0
  3646  003420  0109               	movlb	9	; () banked
  3647  003422  371E               	rlcf	(??_SolveMaze+18+0)&0ffh
  3648  003424  371F               	rlcf	(??_SolveMaze+18+1)&0ffh
  3649  003426  2EE8               	decfsz	wreg
  3650  003428  EF0F  F01A         	goto	u8505
  3651  00342C  90D8               	bcf	status,0
  3652  00342E  0108               	movlb	8	; () banked
  3653  003430  0108               	movlb	8	; () banked
  3654  003432  3502               	rlcf	((2050))&0ffh,w
  3655  003434  0109               	movlb	9	; () banked
  3656  003436  6F20               	movwf	(??_SolveMaze+20+0)&0ffh
  3657  003438  0108               	movlb	8	; () banked
  3658  00343A  0108               	movlb	8	; () banked
  3659  00343C  3503               	rlcf	((2050+1))&0ffh,w
  3660  00343E  0109               	movlb	9	; () banked
  3661  003440  6F21               	movwf	1+(??_SolveMaze+20+0)&0ffh
  3662  003442  0EFE               	movlw	low(0FFFEh)
  3663  003444  0109               	movlb	9	; () banked
  3664  003446  2520               	addwf	(??_SolveMaze+20+0)&0ffh,w
  3665  003448  0109               	movlb	9	; () banked
  3666  00344A  6F22               	movwf	(??_SolveMaze+22+0)&0ffh
  3667  00344C  0EFF               	movlw	high(0FFFEh)
  3668  00344E  0109               	movlb	9	; () banked
  3669  003450  2121               	addwfc	(??_SolveMaze+20+1)&0ffh,w
  3670  003452  0109               	movlb	9	; () banked
  3671  003454  6F23               	movwf	1+(??_SolveMaze+22+0)&0ffh
  3672  003456  0E00               	movlw	low(512)
  3673  003458  0109               	movlb	9	; () banked
  3674  00345A  2522               	addwf	(??_SolveMaze+22+0)&0ffh,w
  3675  00345C  0109               	movlb	9	; () banked
  3676  00345E  6F24               	movwf	(??_SolveMaze+24+0)&0ffh
  3677  003460  0E02               	movlw	high(512)
  3678  003462  0109               	movlb	9	; () banked
  3679  003464  2123               	addwfc	(??_SolveMaze+22+1)&0ffh,w
  3680  003466  0109               	movlb	9	; () banked
  3681  003468  6F25               	movwf	1+(??_SolveMaze+24+0)&0ffh
  3682  00346A  0109               	movlb	9	; () banked
  3683  00346C  511E               	movf	(??_SolveMaze+18+0)&0ffh,w
  3684  00346E  0109               	movlb	9	; () banked
  3685  003470  2524               	addwf	(??_SolveMaze+24+0)&0ffh,w
  3686  003472  6EE9               	movwf	c:fsr0l
  3687  003474  0109               	movlb	9	; () banked
  3688  003476  511F               	movf	(??_SolveMaze+18+1)&0ffh,w
  3689  003478  0109               	movlb	9	; () banked
  3690  00347A  2125               	addwfc	(??_SolveMaze+24+1)&0ffh,w
  3691  00347C  6EEA               	movwf	1+c:fsr0l
  3692  00347E  0109               	movlb	9	; () banked
  3693  003480  CFEE F910          	movff	postinc0,(SolveMaze@tempVar_133)
  3694  003484  0109               	movlb	9	; () banked
  3695  003486  CFED F911          	movff	postdec0,(SolveMaze@tempVar_133+1)
  3696                           	line	490
  3697                           ;main.c: 490: tempDir = 13;
  3698  00348A  0E0D               	movlw	low(0Dh)
  3699  00348C  0109               	movlb	9	; () banked
  3700  00348E  0109               	movlb	9	; () banked
  3701  003490  6F0E               	movwf	((SolveMaze@tempDir_134))&0ffh
  3702  003492  0E00               	movlw	high(0Dh)
  3703  003494  0109               	movlb	9	; () banked
  3704  003496  6F0F               	movwf	((SolveMaze@tempDir_134+1))&0ffh
  3705                           	line	491
  3706                           	
  3707  003498                     l514:		; BSR set to: ?
  3708                           
  3709                           	line	492
  3710                           ;main.c: 491: }
  3711                           ;main.c: 492: if((mouseY-1 >= 0) && (mazeMap[mou
                                 seY-1][mouseX] < tempVar)){
  3712  003498  0EFF               	movlw	0FFh
  3713  00349A  0108               	movlb	8	; () banked
  3714  00349C  0108               	movlb	8	; () banked
  3715  00349E  2500               	addwf	((2048))&0ffh,w
  3716  0034A0  0EFF               	movlw	0FFh
  3717  0034A2  0108               	movlb	8	; () banked
  3718  0034A4  2101               	addwfc	((2048+1))&0ffh,w
  3719  0034A6  0B80               	andlw	80h
  3720  0034A8  A4D8               	btfss	status,2
  3721  0034AA  EF59  F01A         	goto	u8511
  3722  0034AE  EF5B  F01A         	goto	u8510
  3723  0034B2                     u8511:
  3724  0034B2  EFF1  F01A         	goto	l515
  3725  0034B6                     u8510:
  3726  0034B6  90D8               	bcf	status,0
  3727  0034B8  0108               	movlb	8	; () banked
  3728  0034BA  0108               	movlb	8	; () banked
  3729  0034BC  3502               	rlcf	((2050))&0ffh,w
  3730  0034BE  0109               	movlb	9	; () banked
  3731  0034C0  6F1E               	movwf	(??_SolveMaze+18+0)&0ffh
  3732  0034C2  0108               	movlb	8	; () banked
  3733  0034C4  0108               	movlb	8	; () banked
  3734  0034C6  3503               	rlcf	((2050+1))&0ffh,w
  3735  0034C8  0109               	movlb	9	; () banked
  3736  0034CA  6F1F               	movwf	1+(??_SolveMaze+18+0)&0ffh
  3737  0034CC  0108               	movlb	8	; () banked
  3738  0034CE  C800 F920          	movff	(2048),??_SolveMaze+20+0
  3739  0034D2  0108               	movlb	8	; () banked
  3740  0034D4  C801 F921          	movff	(2048+1),??_SolveMaze+20+0+1
  3741  0034D8  0E05               	movlw	05h
  3742  0034DA                     u8525:
  3743  0034DA  90D8               	bcf	status,0
  3744  0034DC  0109               	movlb	9	; () banked
  3745  0034DE  3720               	rlcf	(??_SolveMaze+20+0)&0ffh
  3746  0034E0  3721               	rlcf	(??_SolveMaze+20+1)&0ffh
  3747  0034E2  2EE8               	decfsz	wreg
  3748  0034E4  EF6D  F01A         	goto	u8525
  3749  0034E8  0EE0               	movlw	low(0FFE0h)
  3750  0034EA  0109               	movlb	9	; () banked
  3751  0034EC  2520               	addwf	(??_SolveMaze+20+0)&0ffh,w
  3752  0034EE  0109               	movlb	9	; () banked
  3753  0034F0  6F22               	movwf	(??_SolveMaze+22+0)&0ffh
  3754  0034F2  0EFF               	movlw	high(0FFE0h)
  3755  0034F4  0109               	movlb	9	; () banked
  3756  0034F6  2121               	addwfc	(??_SolveMaze+20+1)&0ffh,w
  3757  0034F8  0109               	movlb	9	; () banked
  3758  0034FA  6F23               	movwf	1+(??_SolveMaze+22+0)&0ffh
  3759  0034FC  0E00               	movlw	low(512)
  3760  0034FE  0109               	movlb	9	; () banked
  3761  003500  2522               	addwf	(??_SolveMaze+22+0)&0ffh,w
  3762  003502  0109               	movlb	9	; () banked
  3763  003504  6F24               	movwf	(??_SolveMaze+24+0)&0ffh
  3764  003506  0E02               	movlw	high(512)
  3765  003508  0109               	movlb	9	; () banked
  3766  00350A  2123               	addwfc	(??_SolveMaze+22+1)&0ffh,w
  3767  00350C  0109               	movlb	9	; () banked
  3768  00350E  6F25               	movwf	1+(??_SolveMaze+24+0)&0ffh
  3769  003510  0109               	movlb	9	; () banked
  3770  003512  511E               	movf	(??_SolveMaze+18+0)&0ffh,w
  3771  003514  0109               	movlb	9	; () banked
  3772  003516  2524               	addwf	(??_SolveMaze+24+0)&0ffh,w
  3773  003518  6EE9               	movwf	c:fsr0l
  3774  00351A  0109               	movlb	9	; () banked
  3775  00351C  511F               	movf	(??_SolveMaze+18+1)&0ffh,w
  3776  00351E  0109               	movlb	9	; () banked
  3777  003520  2125               	addwfc	(??_SolveMaze+24+1)&0ffh,w
  3778  003522  6EEA               	movwf	1+c:fsr0l
  3779  003524  CFEE F926          	movff	postinc0,??_SolveMaze+26+0
  3780  003528  CFED F927          	movff	postdec0,??_SolveMaze+26+0+1
  3781  00352C  0109               	movlb	9	; () banked
  3782  00352E  5127               	movf	(??_SolveMaze+26+1)&0ffh,w
  3783  003530  0A80               	xorlw	80h
  3784  003532  0109               	movlb	9	; () banked
  3785  003534  6F28               	movwf	(??_SolveMaze+28+0)&0ffh
  3786  003536  0109               	movlb	9	; () banked
  3787  003538  0109               	movlb	9	; () banked
  3788  00353A  5110               	movf	((SolveMaze@tempVar_133))&0ffh,w
  3789  00353C  0109               	movlb	9	; () banked
  3790  00353E  5D26               	subwf	(??_SolveMaze+26+0)&0ffh,w
  3791  003540  0109               	movlb	9	; () banked
  3792  003542  0109               	movlb	9	; () banked
  3793  003544  5111               	movf	((SolveMaze@tempVar_133+1))&0ffh,w
  3794  003546  0A80               	xorlw	80h
  3795  003548  0109               	movlb	9	; () banked
  3796  00354A  5928               	subwfb	(??_SolveMaze+28+0)&0ffh,w
  3797  00354C  B0D8               	btfsc	status,0
  3798  00354E  EFAB  F01A         	goto	u8531
  3799  003552  EFAD  F01A         	goto	u8530
  3800  003556                     u8531:
  3801  003556  EFF1  F01A         	goto	l515
  3802  00355A                     u8530:
  3803                           	line	493
  3804                           ;main.c: 493: tempVar = mazeMap[mouseY-1][mouseX
                                 ];
  3805  00355A  90D8               	bcf	status,0
  3806  00355C  0108               	movlb	8	; () banked
  3807  00355E  0108               	movlb	8	; () banked
  3808  003560  3502               	rlcf	((2050))&0ffh,w
  3809  003562  0109               	movlb	9	; () banked
  3810  003564  6F1E               	movwf	(??_SolveMaze+18+0)&0ffh
  3811  003566  0108               	movlb	8	; () banked
  3812  003568  0108               	movlb	8	; () banked
  3813  00356A  3503               	rlcf	((2050+1))&0ffh,w
  3814  00356C  0109               	movlb	9	; () banked
  3815  00356E  6F1F               	movwf	1+(??_SolveMaze+18+0)&0ffh
  3816  003570  0108               	movlb	8	; () banked
  3817  003572  C800 F920          	movff	(2048),??_SolveMaze+20+0
  3818  003576  0108               	movlb	8	; () banked
  3819  003578  C801 F921          	movff	(2048+1),??_SolveMaze+20+0+1
  3820  00357C  0E05               	movlw	05h
  3821  00357E                     u8545:
  3822  00357E  90D8               	bcf	status,0
  3823  003580  0109               	movlb	9	; () banked
  3824  003582  3720               	rlcf	(??_SolveMaze+20+0)&0ffh
  3825  003584  3721               	rlcf	(??_SolveMaze+20+1)&0ffh
  3826  003586  2EE8               	decfsz	wreg
  3827  003588  EFBF  F01A         	goto	u8545
  3828  00358C  0EE0               	movlw	low(0FFE0h)
  3829  00358E  0109               	movlb	9	; () banked
  3830  003590  2520               	addwf	(??_SolveMaze+20+0)&0ffh,w
  3831  003592  0109               	movlb	9	; () banked
  3832  003594  6F22               	movwf	(??_SolveMaze+22+0)&0ffh
  3833  003596  0EFF               	movlw	high(0FFE0h)
  3834  003598  0109               	movlb	9	; () banked
  3835  00359A  2121               	addwfc	(??_SolveMaze+20+1)&0ffh,w
  3836  00359C  0109               	movlb	9	; () banked
  3837  00359E  6F23               	movwf	1+(??_SolveMaze+22+0)&0ffh
  3838  0035A0  0E00               	movlw	low(512)
  3839  0035A2  0109               	movlb	9	; () banked
  3840  0035A4  2522               	addwf	(??_SolveMaze+22+0)&0ffh,w
  3841  0035A6  0109               	movlb	9	; () banked
  3842  0035A8  6F24               	movwf	(??_SolveMaze+24+0)&0ffh
  3843  0035AA  0E02               	movlw	high(512)
  3844  0035AC  0109               	movlb	9	; () banked
  3845  0035AE  2123               	addwfc	(??_SolveMaze+22+1)&0ffh,w
  3846  0035B0  0109               	movlb	9	; () banked
  3847  0035B2  6F25               	movwf	1+(??_SolveMaze+24+0)&0ffh
  3848  0035B4  0109               	movlb	9	; () banked
  3849  0035B6  511E               	movf	(??_SolveMaze+18+0)&0ffh,w
  3850  0035B8  0109               	movlb	9	; () banked
  3851  0035BA  2524               	addwf	(??_SolveMaze+24+0)&0ffh,w
  3852  0035BC  6EE9               	movwf	c:fsr0l
  3853  0035BE  0109               	movlb	9	; () banked
  3854  0035C0  511F               	movf	(??_SolveMaze+18+1)&0ffh,w
  3855  0035C2  0109               	movlb	9	; () banked
  3856  0035C4  2125               	addwfc	(??_SolveMaze+24+1)&0ffh,w
  3857  0035C6  6EEA               	movwf	1+c:fsr0l
  3858  0035C8  0109               	movlb	9	; () banked
  3859  0035CA  CFEE F910          	movff	postinc0,(SolveMaze@tempVar_133)
  3860  0035CE  0109               	movlb	9	; () banked
  3861  0035D0  CFED F911          	movff	postdec0,(SolveMaze@tempVar_133+1)
  3862                           	line	494
  3863                           ;main.c: 494: tempDir = 3;
  3864  0035D4  0E03               	movlw	low(03h)
  3865  0035D6  0109               	movlb	9	; () banked
  3866  0035D8  0109               	movlb	9	; () banked
  3867  0035DA  6F0E               	movwf	((SolveMaze@tempDir_134))&0ffh
  3868  0035DC  0E00               	movlw	high(03h)
  3869  0035DE  0109               	movlb	9	; () banked
  3870  0035E0  6F0F               	movwf	((SolveMaze@tempDir_134+1))&0ffh
  3871                           	line	495
  3872                           	
  3873  0035E2                     l515:		; BSR set to: ?
  3874                           
  3875                           	line	497
  3876                           ;main.c: 495: }
  3877                           ;main.c: 497: DisableInterrupts();
  3878  0035E2  EC66  F030         	call	_DisableInterrupts	;wreg free
  3879                           	line	499
  3880                           ;main.c: 499: TurnToDirection(tempDir);
  3881  0035E6  C90E  F92A         	movff	(SolveMaze@tempDir_134),(?_TurnToDirectio
                                 n)
  3882  0035EA  C90F  F92B         	movff	(SolveMaze@tempDir_134+1),(?_TurnToDirect
                                 ion+1)
  3883  0035EE  EC30  F026         	call	_TurnToDirection	;wreg free
  3884                           	line	501
  3885                           ;main.c: 501: ConfigureInterrupts();
  3886  0035F2  EC71  F030         	call	_ConfigureInterrupts	;wreg free
  3887                           	line	503
  3888                           ;main.c: 503: MOVE();
  3889  0035F6  EC3C  F024         	call	_MOVE	;wreg free
  3890                           	line	504
  3891                           ;main.c: 504: }
  3892  0035FA  EF15  F018         	goto	l508
  3893                           	
  3894  0035FE                     l509:		; BSR set to: ?
  3895                           
  3896                           	line	505
  3897                           ;main.c: 505: EndMaze();
  3898  0035FE  EC41  F02C         	call	_EndMaze	;wreg free
  3899                           	line	506
  3900                           	
  3901  003602                     l507:		; BSR set to: ?
  3902                           
  3903                           	line	508
  3904                           	
  3905  003602                     l506:		; BSR set to: ?
  3906                           
  3907                           ;main.c: 506: }
  3908                           ;main.c: 508: }
  3909  003602                     l472:
  3910                           			; BSR set to: ?
  3911                           
  3912  003602  0012               	return
  3913                           	opt stack 0
  3914                           GLOBAL __end_of_SolveMaze
  3915  003604                     	__end_of_SolveMaze:
  3916                           	FNSIZE	_SolveMaze,30,0
  3917                           ; =============== function _SolveMaze ends =====
                                 =======
  3918                           
  3919                           	signat	_SolveMaze,88
  3920                           	global	_DisableInterrupts
  3921                           	global	??_DisableInterrupts
  3922                           	global	?_DisableInterrupts
  3923                           
  3924                           ; *************** function _DisableInterrupts **
                                 ***************
  3925                           ; Defined at:
  3926                           ;		line 309 in file "C:\Users\tab\Desktop\electr
                                 onics\micro_mouse\WORKING_SAC\main.c"
  3927                           ; Parameters:
  3928                           ;		None
  3929                           ; Auto variables:
  3930                           ;		None
  3931                           ; Return value:
  3932                           ;		type: void 
  3933                           ;		size: 0
  3934                           ; Registers used:
  3935                           ;		None
  3936                           ; Tracked objects:
  3937                           ;		On entry : 0/0
  3938                           ;		On exit  : 0/0
  3939                           ;		Unchanged: 0/0
  3940                           ; Data sizes:
  3941                           ;		Autos:    0
  3942                           ;		Params:   0
  3943                           ;		Temp:     0
  3944                           ;		Total:    0
  3945                           ; This function calls:
  3946                           ;		Nothing
  3947                           ; This function is called by:
  3948                           ;		_main
  3949                           ;		_SolveMaze
  3950                           ; This function uses a non-reentrant model
  3951                           ; 
  3952                                   psect   text3,class=CODE,space=0,reloc=2
  3953                           
  3954                           	opt lm
  3955                           	file	"C:\Users\tab\Desktop\electronics\micro_mo
                                 use\WORKING_SAC\main.c"
  3956                           	line	309
  3957  000000                     	__size_of_DisableInterrupts	equ	__end_of_Disabl
                                 eInterrupts-_DisableInterrupts
  3958                           ;main.c: 309: void DisableInterrupts(void){
  3959                           	
  3960  0060CC                     _DisableInterrupts:		; BSR set to: ?
  3961                           
  3962                           	opt stack 28
  3963                           	line	311
  3964                           ;main.c: 311: GIE=0;
  3965  0060CC  9EF2               	bcf	c:(32663/8),(32663)&7	;volatile
  3966                           	line	312
  3967                           ;main.c: 312: IPEN=0;
  3968  0060CE  9ED0               	bcf	c:(32391/8),(32391)&7	;volatile
  3969                           	line	315
  3970                           ;main.c: 315: INT0IE=0;
  3971  0060D0  98F2               	bcf	c:(32660/8),(32660)&7	;volatile
  3972                           	line	316
  3973                           ;main.c: 316: INT1IE=0;
  3974  0060D2  96F0               	bcf	c:(32643/8),(32643)&7	;volatile
  3975                           	line	317
  3976                           ;main.c: 317: INT2IE=0;
  3977  0060D4  98F0               	bcf	c:(32644/8),(32644)&7	;volatile
  3978                           	line	320
  3979                           ;main.c: 320: INTEDG0 = 0;
  3980  0060D6  9CF1               	bcf	c:(32654/8),(32654)&7	;volatile
  3981                           	line	321
  3982                           ;main.c: 321: INTEDG1 = 0;
  3983  0060D8  9AF1               	bcf	c:(32653/8),(32653)&7	;volatile
  3984                           	line	322
  3985                           ;main.c: 322: INTEDG2 = 0;
  3986  0060DA  98F1               	bcf	c:(32652/8),(32652)&7	;volatile
  3987                           	line	325
  3988                           ;main.c: 325: INT2IP = 1;
  3989  0060DC  8EF0               	bsf	c:(32647/8),(32647)&7	;volatile
  3990                           	line	326
  3991                           ;main.c: 326: INT1IP = 1;
  3992  0060DE  8CF0               	bsf	c:(32646/8),(32646)&7	;volatile
  3993                           	line	327
  3994                           ;main.c: 327: }
  3995  0060E0                     l455:
  3996                           			; BSR set to: ?
  3997                           
  3998  0060E0  0012               	return
  3999                           	opt stack 0
  4000                           GLOBAL __end_of_DisableInterrupts
  4001  0060E2                     	__end_of_DisableInterrupts:
  4002                           	FNSIZE	_DisableInterrupts,0,0
  4003                           ; =============== function _DisableInterrupts en
                                 ds ============
  4004                           
  4005                           	signat	_DisableInterrupts,88
  4006                           	global	_ConfigureInterrupts
  4007                           	global	??_ConfigureInterrupts
  4008                           	global	?_ConfigureInterrupts
  4009                           
  4010                           ; *************** function _ConfigureInterrupts 
                                 *****************
  4011                           ; Defined at:
  4012                           ;		line 289 in file "C:\Users\tab\Desktop\electr
                                 onics\micro_mouse\WORKING_SAC\main.c"
  4013                           ; Parameters:
  4014                           ;		None
  4015                           ; Auto variables:
  4016                           ;		None
  4017                           ; Return value:
  4018                           ;		type: void 
  4019                           ;		size: 0
  4020                           ; Registers used:
  4021                           ;		None
  4022                           ; Tracked objects:
  4023                           ;		On entry : 0/0
  4024                           ;		On exit  : 0/0
  4025                           ;		Unchanged: 0/0
  4026                           ; Data sizes:
  4027                           ;		Autos:    0
  4028                           ;		Params:   0
  4029                           ;		Temp:     0
  4030                           ;		Total:    0
  4031                           ; This function calls:
  4032                           ;		Nothing
  4033                           ; This function is called by:
  4034                           ;		_main
  4035                           ;		_SolveMaze
  4036                           ; This function uses a non-reentrant model
  4037                           ; 
  4038                                   psect   text4,class=CODE,space=0,reloc=2
  4039                           
  4040                           	opt lm
  4041                           	file	"C:\Users\tab\Desktop\electronics\micro_mo
                                 use\WORKING_SAC\main.c"
  4042                           	line	289
  4043  000000                     	__size_of_ConfigureInterrupts	equ	__end_of_Conf
                                 igureInterrupts-_ConfigureInterrupts
  4044                           ;main.c: 289: void ConfigureInterrupts(){
  4045                           	
  4046  0060E2                     _ConfigureInterrupts:		; BSR set to: ?
  4047                           
  4048                           	opt stack 28
  4049                           	line	291
  4050                           ;main.c: 291: GIE=1;
  4051  0060E2  8EF2               	bsf	c:(32663/8),(32663)&7	;volatile
  4052                           	line	292
  4053                           ;main.c: 292: IPEN=0;
  4054  0060E4  9ED0               	bcf	c:(32391/8),(32391)&7	;volatile
  4055                           	line	295
  4056                           ;main.c: 295: INT0IE=1;
  4057  0060E6  88F2               	bsf	c:(32660/8),(32660)&7	;volatile
  4058                           	line	296
  4059                           ;main.c: 296: INT1IE=1;
  4060  0060E8  86F0               	bsf	c:(32643/8),(32643)&7	;volatile
  4061                           	line	297
  4062                           ;main.c: 297: INT2IE=0;
  4063  0060EA  98F0               	bcf	c:(32644/8),(32644)&7	;volatile
  4064                           	line	300
  4065                           ;main.c: 300: INTEDG0 = 0;
  4066  0060EC  9CF1               	bcf	c:(32654/8),(32654)&7	;volatile
  4067                           	line	301
  4068                           ;main.c: 301: INTEDG1 = 0;
  4069  0060EE  9AF1               	bcf	c:(32653/8),(32653)&7	;volatile
  4070                           	line	302
  4071                           ;main.c: 302: INTEDG2 = 0;
  4072  0060F0  98F1               	bcf	c:(32652/8),(32652)&7	;volatile
  4073                           	line	305
  4074                           ;main.c: 305: INT2IP = 1;
  4075  0060F2  8EF0               	bsf	c:(32647/8),(32647)&7	;volatile
  4076                           	line	306
  4077                           ;main.c: 306: INT1IP = 1;
  4078  0060F4  8CF0               	bsf	c:(32646/8),(32646)&7	;volatile
  4079                           	line	307
  4080                           ;main.c: 307: }
  4081  0060F6                     l454:
  4082                           			; BSR set to: ?
  4083                           
  4084  0060F6  0012               	return
  4085                           	opt stack 0
  4086                           GLOBAL __end_of_ConfigureInterrupts
  4087  0060F8                     	__end_of_ConfigureInterrupts:
  4088                           	FNSIZE	_ConfigureInterrupts,0,0
  4089                           ; =============== function _ConfigureInterrupts 
                                 ends ============
  4090                           
  4091                           	signat	_ConfigureInterrupts,88
  4092                           	global	_CheckOrientation
  4093                           	global	??_CheckOrientation
  4094                           	global	?_CheckOrientation
  4095                           
  4096                           ; *************** function _CheckOrientation ***
                                 **************
  4097                           ; Defined at:
  4098                           ;		line 262 in file "C:\Users\tab\Desktop\electr
                                 onics\micro_mouse\WORKING_SAC\main.c"
  4099                           ; Parameters:
  4100                           ;		None
  4101                           ; Auto variables:
  4102                           ;		None
  4103                           ; Return value:
  4104                           ;		type: void 
  4105                           ;		size: 0
  4106                           ; Registers used:
  4107                           ;		wreg, status,2, status,0, cstack
  4108                           ; Tracked objects:
  4109                           ;		On entry : 0/0
  4110                           ;		On exit  : 0/0
  4111                           ;		Unchanged: 0/0
  4112                           ; Data sizes:
  4113                           ;		Autos:    0
  4114                           ;		Params:   0
  4115                           ;		Temp:     0
  4116                           ;		Total:    0
  4117                           ; This function calls:
  4118                           ;		_SteerLeft
  4119                           ;		_LED
  4120                           ;		_SteerRight
  4121                           ; This function is called by:
  4122                           ;		_SolveMaze
  4123                           ; This function uses a non-reentrant model
  4124                           ; 
  4125                                   psect   text5,class=CODE,space=0,reloc=2
  4126                           
  4127                           	opt lm
  4128                           	file	"C:\Users\tab\Desktop\electronics\micro_mo
                                 use\WORKING_SAC\main.c"
  4129                           	line	262
  4130  000000                     	__size_of_CheckOrientation	equ	__end_of_CheckOr
                                 ientation-_CheckOrientation
  4131                           ;main.c: 262: void CheckOrientation(){
  4132                           	
  4133  005F68                     _CheckOrientation:		; BSR set to: ?
  4134                           
  4135                           	opt stack 28
  4136                           	line	263
  4137                           ;main.c: 263: if(RB0 == 0){
  4138  005F68  B081               	btfsc	c:(31752/8),(31752)&7	;volatile
  4139  005F6A  EFB9  F02F         	goto	u8561
  4140  005F6E  EFBB  F02F         	goto	u8560
  4141  005F72                     u8561:
  4142  005F72  EFC6  F02F         	goto	l451
  4143  005F76                     u8560:
  4144                           	line	265
  4145                           ;main.c: 265: SteerLeft();
  4146  005F76  ECFD  F02F         	call	_SteerLeft	;wreg free
  4147                           	line	266
  4148                           ;main.c: 266: LED(4);
  4149  005F7A  0E04               	movlw	low(04h)
  4150  005F7C  0109               	movlb	9	; () banked
  4151  005F7E  0109               	movlb	9	; () banked
  4152  005F80  6F30               	movwf	((?_LED))&0ffh
  4153  005F82  0E00               	movlw	high(04h)
  4154  005F84  0109               	movlb	9	; () banked
  4155  005F86  6F31               	movwf	((?_LED+1))&0ffh
  4156  005F88  EC5B  F030         	call	_LED	;wreg free
  4157                           	line	267
  4158                           	
  4159  005F8C                     l451:		; BSR set to: ?
  4160                           
  4161                           	line	268
  4162                           ;main.c: 267: }
  4163                           ;main.c: 268: if(RB1 == 0){
  4164  005F8C  B281               	btfsc	c:(31753/8),(31753)&7	;volatile
  4165  005F8E  EFCB  F02F         	goto	u8571
  4166  005F92  EFCD  F02F         	goto	u8570
  4167  005F96                     u8571:
  4168  005F96  EFD8  F02F         	goto	l452
  4169  005F9A                     u8570:
  4170                           	line	270
  4171                           ;main.c: 270: SteerRight();
  4172  005F9A  EC20  F030         	call	_SteerRight	;wreg free
  4173                           	line	271
  4174                           ;main.c: 271: LED(1);
  4175  005F9E  0E01               	movlw	low(01h)
  4176  005FA0  0109               	movlb	9	; () banked
  4177  005FA2  0109               	movlb	9	; () banked
  4178  005FA4  6F30               	movwf	((?_LED))&0ffh
  4179  005FA6  0E00               	movlw	high(01h)
  4180  005FA8  0109               	movlb	9	; () banked
  4181  005FAA  6F31               	movwf	((?_LED+1))&0ffh
  4182  005FAC  EC5B  F030         	call	_LED	;wreg free
  4183                           	line	272
  4184                           	
  4185  005FB0                     l452:		; BSR set to: ?
  4186                           
  4187                           	line	273
  4188                           ;main.c: 272: }
  4189                           ;main.c: 273: }
  4190  005FB0                     l450:
  4191                           			; BSR set to: ?
  4192                           
  4193  005FB0  0012               	return
  4194                           	opt stack 0
  4195                           GLOBAL __end_of_CheckOrientation
  4196  005FB2                     	__end_of_CheckOrientation:
  4197                           	FNSIZE	_CheckOrientation,0,0
  4198                           ; =============== function _CheckOrientation end
                                 s ============
  4199                           
  4200                           	signat	_CheckOrientation,88
  4201                           	global	_CheckWalls
  4202                           	global	??_CheckWalls
  4203                           	global	?_CheckWalls
  4204                           
  4205                           ; *************** function _CheckWalls *********
                                 ********
  4206                           ; Defined at:
  4207                           ;		line 631 in file "C:\Users\tab\Desktop\electr
                                 onics\micro_mouse\WORKING_SAC\main.c"
  4208                           ; Parameters:
  4209                           ;		None
  4210                           ; Auto variables:
  4211                           ;		None
  4212                           ; Return value:
  4213                           ;		type: void 
  4214                           ;		size: 0
  4215                           ; Registers used:
  4216                           ;		wreg, fsr0l, fsr0h, status,2, status,0, cstac
                                 k
  4217                           ; Tracked objects:
  4218                           ;		On entry : 0/0
  4219                           ;		On exit  : 0/0
  4220                           ;		Unchanged: 0/0
  4221                           ; Data sizes:
  4222                           ;		Autos:    0
  4223                           ;		Params:   0
  4224                           ;		Temp:    16
  4225                           ;		Total:   16
  4226                           ; This function calls:
  4227                           ;		___awmod
  4228                           ;		___wmul
  4229                           ; This function is called by:
  4230                           ;		_SolveMaze
  4231                           ; This function uses a non-reentrant model
  4232                           ; 
  4233                                   psect   text6,class=CODE,space=0,reloc=2
  4234                           
  4235                           	opt lm
  4236                           	file	"C:\Users\tab\Desktop\electronics\micro_mo
                                 use\WORKING_SAC\main.c"
  4237                           	line	631
  4238  000000                     	__size_of_CheckWalls	equ	__end_of_CheckWalls-_C
                                 heckWalls
  4239                           ;main.c: 631: void CheckWalls(){
  4240                           	
  4241  00006C                     _CheckWalls:		; BSR set to: ?
  4242                           
  4243                           	opt stack 28
  4244                           	line	634
  4245                           ;main.c: 634: switch (mouseDirection){
  4246  00006C  EF8B  F013         	goto	l558
  4247                           	line	636
  4248                           ;main.c: 636: case 3:
  4249                           	
  4250  000070                     l559:		; BSR set to: ?
  4251                           
  4252                           	line	637
  4253                           ;main.c: 637: if(RB3 == 0){
  4254  000070  B681               	btfsc	c:(31755/8),(31755)&7	;volatile
  4255  000072  EF3D  F000         	goto	u8581
  4256  000076  EF3F  F000         	goto	u8580
  4257  00007A                     u8581:
  4258  00007A  EFD6  F001         	goto	l560
  4259  00007E                     u8580:
  4260                           	line	638
  4261                           ;main.c: 638: if (wallMap[mouseY][mouseX] % 3 !=
                                  0)
  4262  00007E  0E03               	movlw	low(03h)
  4263  000080  0109               	movlb	9	; () banked
  4264  000082  0109               	movlb	9	; () banked
  4265  000084  6F54               	movwf	(0+(?___awmod+02h))&0ffh
  4266  000086  0E00               	movlw	high(03h)
  4267  000088  0109               	movlb	9	; () banked
  4268  00008A  6F55               	movwf	(1+(?___awmod+02h))&0ffh
  4269  00008C  90D8               	bcf	status,0
  4270  00008E  0108               	movlb	8	; () banked
  4271  000090  0108               	movlb	8	; () banked
  4272  000092  3502               	rlcf	((2050))&0ffh,w
  4273  000094  0109               	movlb	9	; () banked
  4274  000096  6F2A               	movwf	(??_CheckWalls+0+0)&0ffh
  4275  000098  0108               	movlb	8	; () banked
  4276  00009A  0108               	movlb	8	; () banked
  4277  00009C  3503               	rlcf	((2050+1))&0ffh,w
  4278  00009E  0109               	movlb	9	; () banked
  4279  0000A0  6F2B               	movwf	1+(??_CheckWalls+0+0)&0ffh
  4280  0000A2  0108               	movlb	8	; () banked
  4281  0000A4  C800 F92C          	movff	(2048),??_CheckWalls+2+0
  4282  0000A8  0108               	movlb	8	; () banked
  4283  0000AA  C801 F92D          	movff	(2048+1),??_CheckWalls+2+0+1
  4284  0000AE  0E05               	movlw	05h
  4285  0000B0                     u8595:
  4286  0000B0  90D8               	bcf	status,0
  4287  0000B2  0109               	movlb	9	; () banked
  4288  0000B4  372C               	rlcf	(??_CheckWalls+2+0)&0ffh
  4289  0000B6  372D               	rlcf	(??_CheckWalls+2+1)&0ffh
  4290  0000B8  2EE8               	decfsz	wreg
  4291  0000BA  EF58  F000         	goto	u8595
  4292  0000BE  0E00               	movlw	low(0)
  4293  0000C0  0109               	movlb	9	; () banked
  4294  0000C2  252C               	addwf	(??_CheckWalls+2+0)&0ffh,w
  4295  0000C4  0109               	movlb	9	; () banked
  4296  0000C6  6F2E               	movwf	(??_CheckWalls+4+0)&0ffh
  4297  0000C8  0E00               	movlw	high(0)
  4298  0000CA  0109               	movlb	9	; () banked
  4299  0000CC  212D               	addwfc	(??_CheckWalls+2+1)&0ffh,w
  4300  0000CE  0109               	movlb	9	; () banked
  4301  0000D0  6F2F               	movwf	1+(??_CheckWalls+4+0)&0ffh
  4302  0000D2  0109               	movlb	9	; () banked
  4303  0000D4  512A               	movf	(??_CheckWalls+0+0)&0ffh,w
  4304  0000D6  0109               	movlb	9	; () banked
  4305  0000D8  252E               	addwf	(??_CheckWalls+4+0)&0ffh,w
  4306  0000DA  6EE9               	movwf	c:fsr0l
  4307  0000DC  0109               	movlb	9	; () banked
  4308  0000DE  512B               	movf	(??_CheckWalls+0+1)&0ffh,w
  4309  0000E0  0109               	movlb	9	; () banked
  4310  0000E2  212F               	addwfc	(??_CheckWalls+4+1)&0ffh,w
  4311  0000E4  6EEA               	movwf	1+c:fsr0l
  4312  0000E6  0109               	movlb	9	; () banked
  4313  0000E8  CFEE F952          	movff	postinc0,(?___awmod)
  4314  0000EC  0109               	movlb	9	; () banked
  4315  0000EE  CFED F953          	movff	postdec0,(?___awmod+1)
  4316  0000F2  EC94  F02D         	call	___awmod	;wreg free
  4317  0000F6  0109               	movlb	9	; () banked
  4318  0000F8  5153               	movf	(1+?___awmod)&0ffh,w
  4319  0000FA  1152               	iorwf (0+?___awmod)&0ffh,w
  4320                           
  4321  0000FC  B4D8               	btfsc	status,2
  4322  0000FE  EF83  F000         	goto	u8601
  4323  000102  EF85  F000         	goto	u8600
  4324  000106                     u8601:
  4325  000106  EFF4  F000         	goto	l561
  4326  00010A                     u8600:
  4327                           	line	639
  4328                           ;main.c: 639: wallMap[mouseY][mouseX] *= 3;
  4329  00010A  0E03               	movlw	low(03h)
  4330  00010C  0109               	movlb	9	; () banked
  4331  00010E  0109               	movlb	9	; () banked
  4332  000110  6F3C               	movwf	(0+(?___wmul+02h))&0ffh
  4333  000112  0E00               	movlw	high(03h)
  4334  000114  0109               	movlb	9	; () banked
  4335  000116  6F3D               	movwf	(1+(?___wmul+02h))&0ffh
  4336  000118  90D8               	bcf	status,0
  4337  00011A  0108               	movlb	8	; () banked
  4338  00011C  0108               	movlb	8	; () banked
  4339  00011E  3502               	rlcf	((2050))&0ffh,w
  4340  000120  0109               	movlb	9	; () banked
  4341  000122  6F2A               	movwf	(??_CheckWalls+0+0)&0ffh
  4342  000124  0108               	movlb	8	; () banked
  4343  000126  0108               	movlb	8	; () banked
  4344  000128  3503               	rlcf	((2050+1))&0ffh,w
  4345  00012A  0109               	movlb	9	; () banked
  4346  00012C  6F2B               	movwf	1+(??_CheckWalls+0+0)&0ffh
  4347  00012E  0108               	movlb	8	; () banked
  4348  000130  C800 F92C          	movff	(2048),??_CheckWalls+2+0
  4349  000134  0108               	movlb	8	; () banked
  4350  000136  C801 F92D          	movff	(2048+1),??_CheckWalls+2+0+1
  4351  00013A  0E05               	movlw	05h
  4352  00013C                     u8615:
  4353  00013C  90D8               	bcf	status,0
  4354  00013E  0109               	movlb	9	; () banked
  4355  000140  372C               	rlcf	(??_CheckWalls+2+0)&0ffh
  4356  000142  372D               	rlcf	(??_CheckWalls+2+1)&0ffh
  4357  000144  2EE8               	decfsz	wreg
  4358  000146  EF9E  F000         	goto	u8615
  4359  00014A  0E00               	movlw	low(0)
  4360  00014C  0109               	movlb	9	; () banked
  4361  00014E  252C               	addwf	(??_CheckWalls+2+0)&0ffh,w
  4362  000150  0109               	movlb	9	; () banked
  4363  000152  6F2E               	movwf	(??_CheckWalls+4+0)&0ffh
  4364  000154  0E00               	movlw	high(0)
  4365  000156  0109               	movlb	9	; () banked
  4366  000158  212D               	addwfc	(??_CheckWalls+2+1)&0ffh,w
  4367  00015A  0109               	movlb	9	; () banked
  4368  00015C  6F2F               	movwf	1+(??_CheckWalls+4+0)&0ffh
  4369  00015E  0109               	movlb	9	; () banked
  4370  000160  512A               	movf	(??_CheckWalls+0+0)&0ffh,w
  4371  000162  0109               	movlb	9	; () banked
  4372  000164  252E               	addwf	(??_CheckWalls+4+0)&0ffh,w
  4373  000166  6EE9               	movwf	c:fsr0l
  4374  000168  0109               	movlb	9	; () banked
  4375  00016A  512B               	movf	(??_CheckWalls+0+1)&0ffh,w
  4376  00016C  0109               	movlb	9	; () banked
  4377  00016E  212F               	addwfc	(??_CheckWalls+4+1)&0ffh,w
  4378  000170  6EEA               	movwf	1+c:fsr0l
  4379  000172  0109               	movlb	9	; () banked
  4380  000174  CFEE F93A          	movff	postinc0,(?___wmul)
  4381  000178  0109               	movlb	9	; () banked
  4382  00017A  CFED F93B          	movff	postdec0,(?___wmul+1)
  4383  00017E  ECDA  F02E         	call	___wmul	;wreg free
  4384  000182  90D8               	bcf	status,0
  4385  000184  0108               	movlb	8	; () banked
  4386  000186  0108               	movlb	8	; () banked
  4387  000188  3502               	rlcf	((2050))&0ffh,w
  4388  00018A  0109               	movlb	9	; () banked
  4389  00018C  6F30               	movwf	(??_CheckWalls+6+0)&0ffh
  4390  00018E  0108               	movlb	8	; () banked
  4391  000190  0108               	movlb	8	; () banked
  4392  000192  3503               	rlcf	((2050+1))&0ffh,w
  4393  000194  0109               	movlb	9	; () banked
  4394  000196  6F31               	movwf	1+(??_CheckWalls+6+0)&0ffh
  4395  000198  0108               	movlb	8	; () banked
  4396  00019A  C800 F932          	movff	(2048),??_CheckWalls+8+0
  4397  00019E  0108               	movlb	8	; () banked
  4398  0001A0  C801 F933          	movff	(2048+1),??_CheckWalls+8+0+1
  4399  0001A4  0E05               	movlw	05h
  4400  0001A6                     u8625:
  4401  0001A6  90D8               	bcf	status,0
  4402  0001A8  0109               	movlb	9	; () banked
  4403  0001AA  3732               	rlcf	(??_CheckWalls+8+0)&0ffh
  4404  0001AC  3733               	rlcf	(??_CheckWalls+8+1)&0ffh
  4405  0001AE  2EE8               	decfsz	wreg
  4406  0001B0  EFD3  F000         	goto	u8625
  4407  0001B4  0E00               	movlw	low(0)
  4408  0001B6  0109               	movlb	9	; () banked
  4409  0001B8  2532               	addwf	(??_CheckWalls+8+0)&0ffh,w
  4410  0001BA  0109               	movlb	9	; () banked
  4411  0001BC  6F34               	movwf	(??_CheckWalls+10+0)&0ffh
  4412  0001BE  0E00               	movlw	high(0)
  4413  0001C0  0109               	movlb	9	; () banked
  4414  0001C2  2133               	addwfc	(??_CheckWalls+8+1)&0ffh,w
  4415  0001C4  0109               	movlb	9	; () banked
  4416  0001C6  6F35               	movwf	1+(??_CheckWalls+10+0)&0ffh
  4417  0001C8  0109               	movlb	9	; () banked
  4418  0001CA  5130               	movf	(??_CheckWalls+6+0)&0ffh,w
  4419  0001CC  0109               	movlb	9	; () banked
  4420  0001CE  2534               	addwf	(??_CheckWalls+10+0)&0ffh,w
  4421  0001D0  6EE9               	movwf	c:fsr0l
  4422  0001D2  0109               	movlb	9	; () banked
  4423  0001D4  5131               	movf	(??_CheckWalls+6+1)&0ffh,w
  4424  0001D6  0109               	movlb	9	; () banked
  4425  0001D8  2135               	addwfc	(??_CheckWalls+10+1)&0ffh,w
  4426  0001DA  6EEA               	movwf	1+c:fsr0l
  4427  0001DC  0109               	movlb	9	; () banked
  4428  0001DE  C93A  FFEE         	movff	0+?___wmul,postinc0
  4429  0001E2  0109               	movlb	9	; () banked
  4430  0001E4  C93B  FFED         	movff	1+?___wmul,postdec0
  4431                           
  4432                           	
  4433  0001E8                     l561:		; BSR set to: ?
  4434                           
  4435                           	line	641
  4436                           ;main.c: 641: if((mouseY - 1 >= 0) && (wallMap[m
                                 ouseY-1][mouseX] % 7 != 0))
  4437  0001E8  0EFF               	movlw	0FFh
  4438  0001EA  0108               	movlb	8	; () banked
  4439  0001EC  0108               	movlb	8	; () banked
  4440  0001EE  2500               	addwf	((2048))&0ffh,w
  4441  0001F0  0EFF               	movlw	0FFh
  4442  0001F2  0108               	movlb	8	; () banked
  4443  0001F4  2101               	addwfc	((2048+1))&0ffh,w
  4444  0001F6  0B80               	andlw	80h
  4445  0001F8  A4D8               	btfss	status,2
  4446  0001FA  EF01  F001         	goto	u8631
  4447  0001FE  EF03  F001         	goto	u8630
  4448  000202                     u8631:
  4449  000202  EFD6  F001         	goto	l560
  4450  000206                     u8630:
  4451  000206  0E07               	movlw	low(07h)
  4452  000208  0109               	movlb	9	; () banked
  4453  00020A  0109               	movlb	9	; () banked
  4454  00020C  6F54               	movwf	(0+(?___awmod+02h))&0ffh
  4455  00020E  0E00               	movlw	high(07h)
  4456  000210  0109               	movlb	9	; () banked
  4457  000212  6F55               	movwf	(1+(?___awmod+02h))&0ffh
  4458  000214  90D8               	bcf	status,0
  4459  000216  0108               	movlb	8	; () banked
  4460  000218  0108               	movlb	8	; () banked
  4461  00021A  3502               	rlcf	((2050))&0ffh,w
  4462  00021C  0109               	movlb	9	; () banked
  4463  00021E  6F2A               	movwf	(??_CheckWalls+0+0)&0ffh
  4464  000220  0108               	movlb	8	; () banked
  4465  000222  0108               	movlb	8	; () banked
  4466  000224  3503               	rlcf	((2050+1))&0ffh,w
  4467  000226  0109               	movlb	9	; () banked
  4468  000228  6F2B               	movwf	1+(??_CheckWalls+0+0)&0ffh
  4469  00022A  0108               	movlb	8	; () banked
  4470  00022C  C800 F92C          	movff	(2048),??_CheckWalls+2+0
  4471  000230  0108               	movlb	8	; () banked
  4472  000232  C801 F92D          	movff	(2048+1),??_CheckWalls+2+0+1
  4473  000236  0E05               	movlw	05h
  4474  000238                     u8645:
  4475  000238  90D8               	bcf	status,0
  4476  00023A  0109               	movlb	9	; () banked
  4477  00023C  372C               	rlcf	(??_CheckWalls+2+0)&0ffh
  4478  00023E  372D               	rlcf	(??_CheckWalls+2+1)&0ffh
  4479  000240  2EE8               	decfsz	wreg
  4480  000242  EF1C  F001         	goto	u8645
  4481  000246  0EE0               	movlw	low(0FFE0h)
  4482  000248  0109               	movlb	9	; () banked
  4483  00024A  252C               	addwf	(??_CheckWalls+2+0)&0ffh,w
  4484  00024C  0109               	movlb	9	; () banked
  4485  00024E  6F2E               	movwf	(??_CheckWalls+4+0)&0ffh
  4486  000250  0EFF               	movlw	high(0FFE0h)
  4487  000252  0109               	movlb	9	; () banked
  4488  000254  212D               	addwfc	(??_CheckWalls+2+1)&0ffh,w
  4489  000256  0109               	movlb	9	; () banked
  4490  000258  6F2F               	movwf	1+(??_CheckWalls+4+0)&0ffh
  4491  00025A  0E00               	movlw	low(0)
  4492  00025C  0109               	movlb	9	; () banked
  4493  00025E  252E               	addwf	(??_CheckWalls+4+0)&0ffh,w
  4494  000260  0109               	movlb	9	; () banked
  4495  000262  6F30               	movwf	(??_CheckWalls+6+0)&0ffh
  4496  000264  0E00               	movlw	high(0)
  4497  000266  0109               	movlb	9	; () banked
  4498  000268  212F               	addwfc	(??_CheckWalls+4+1)&0ffh,w
  4499  00026A  0109               	movlb	9	; () banked
  4500  00026C  6F31               	movwf	1+(??_CheckWalls+6+0)&0ffh
  4501  00026E  0109               	movlb	9	; () banked
  4502  000270  512A               	movf	(??_CheckWalls+0+0)&0ffh,w
  4503  000272  0109               	movlb	9	; () banked
  4504  000274  2530               	addwf	(??_CheckWalls+6+0)&0ffh,w
  4505  000276  6EE9               	movwf	c:fsr0l
  4506  000278  0109               	movlb	9	; () banked
  4507  00027A  512B               	movf	(??_CheckWalls+0+1)&0ffh,w
  4508  00027C  0109               	movlb	9	; () banked
  4509  00027E  2131               	addwfc	(??_CheckWalls+6+1)&0ffh,w
  4510  000280  6EEA               	movwf	1+c:fsr0l
  4511  000282  0109               	movlb	9	; () banked
  4512  000284  CFEE F952          	movff	postinc0,(?___awmod)
  4513  000288  0109               	movlb	9	; () banked
  4514  00028A  CFED F953          	movff	postdec0,(?___awmod+1)
  4515  00028E  EC94  F02D         	call	___awmod	;wreg free
  4516  000292  0109               	movlb	9	; () banked
  4517  000294  5153               	movf	(1+?___awmod)&0ffh,w
  4518  000296  1152               	iorwf (0+?___awmod)&0ffh,w
  4519                           
  4520  000298  B4D8               	btfsc	status,2
  4521  00029A  EF51  F001         	goto	u8651
  4522  00029E  EF53  F001         	goto	u8650
  4523  0002A2                     u8651:
  4524  0002A2  EFD6  F001         	goto	l560
  4525  0002A6                     u8650:
  4526                           	line	642
  4527                           ;main.c: 642: wallMap[mouseY-1][mouseX] *= 7;
  4528  0002A6  0E07               	movlw	low(07h)
  4529  0002A8  0109               	movlb	9	; () banked
  4530  0002AA  0109               	movlb	9	; () banked
  4531  0002AC  6F3C               	movwf	(0+(?___wmul+02h))&0ffh
  4532  0002AE  0E00               	movlw	high(07h)
  4533  0002B0  0109               	movlb	9	; () banked
  4534  0002B2  6F3D               	movwf	(1+(?___wmul+02h))&0ffh
  4535  0002B4  90D8               	bcf	status,0
  4536  0002B6  0108               	movlb	8	; () banked
  4537  0002B8  0108               	movlb	8	; () banked
  4538  0002BA  3502               	rlcf	((2050))&0ffh,w
  4539  0002BC  0109               	movlb	9	; () banked
  4540  0002BE  6F2A               	movwf	(??_CheckWalls+0+0)&0ffh
  4541  0002C0  0108               	movlb	8	; () banked
  4542  0002C2  0108               	movlb	8	; () banked
  4543  0002C4  3503               	rlcf	((2050+1))&0ffh,w
  4544  0002C6  0109               	movlb	9	; () banked
  4545  0002C8  6F2B               	movwf	1+(??_CheckWalls+0+0)&0ffh
  4546  0002CA  0108               	movlb	8	; () banked
  4547  0002CC  C800 F92C          	movff	(2048),??_CheckWalls+2+0
  4548  0002D0  0108               	movlb	8	; () banked
  4549  0002D2  C801 F92D          	movff	(2048+1),??_CheckWalls+2+0+1
  4550  0002D6  0E05               	movlw	05h
  4551  0002D8                     u8665:
  4552  0002D8  90D8               	bcf	status,0
  4553  0002DA  0109               	movlb	9	; () banked
  4554  0002DC  372C               	rlcf	(??_CheckWalls+2+0)&0ffh
  4555  0002DE  372D               	rlcf	(??_CheckWalls+2+1)&0ffh
  4556  0002E0  2EE8               	decfsz	wreg
  4557  0002E2  EF6C  F001         	goto	u8665
  4558  0002E6  0EE0               	movlw	low(0FFE0h)
  4559  0002E8  0109               	movlb	9	; () banked
  4560  0002EA  252C               	addwf	(??_CheckWalls+2+0)&0ffh,w
  4561  0002EC  0109               	movlb	9	; () banked
  4562  0002EE  6F2E               	movwf	(??_CheckWalls+4+0)&0ffh
  4563  0002F0  0EFF               	movlw	high(0FFE0h)
  4564  0002F2  0109               	movlb	9	; () banked
  4565  0002F4  212D               	addwfc	(??_CheckWalls+2+1)&0ffh,w
  4566  0002F6  0109               	movlb	9	; () banked
  4567  0002F8  6F2F               	movwf	1+(??_CheckWalls+4+0)&0ffh
  4568  0002FA  0E00               	movlw	low(0)
  4569  0002FC  0109               	movlb	9	; () banked
  4570  0002FE  252E               	addwf	(??_CheckWalls+4+0)&0ffh,w
  4571  000300  0109               	movlb	9	; () banked
  4572  000302  6F30               	movwf	(??_CheckWalls+6+0)&0ffh
  4573  000304  0E00               	movlw	high(0)
  4574  000306  0109               	movlb	9	; () banked
  4575  000308  212F               	addwfc	(??_CheckWalls+4+1)&0ffh,w
  4576  00030A  0109               	movlb	9	; () banked
  4577  00030C  6F31               	movwf	1+(??_CheckWalls+6+0)&0ffh
  4578  00030E  0109               	movlb	9	; () banked
  4579  000310  512A               	movf	(??_CheckWalls+0+0)&0ffh,w
  4580  000312  0109               	movlb	9	; () banked
  4581  000314  2530               	addwf	(??_CheckWalls+6+0)&0ffh,w
  4582  000316  6EE9               	movwf	c:fsr0l
  4583  000318  0109               	movlb	9	; () banked
  4584  00031A  512B               	movf	(??_CheckWalls+0+1)&0ffh,w
  4585  00031C  0109               	movlb	9	; () banked
  4586  00031E  2131               	addwfc	(??_CheckWalls+6+1)&0ffh,w
  4587  000320  6EEA               	movwf	1+c:fsr0l
  4588  000322  0109               	movlb	9	; () banked
  4589  000324  CFEE F93A          	movff	postinc0,(?___wmul)
  4590  000328  0109               	movlb	9	; () banked
  4591  00032A  CFED F93B          	movff	postdec0,(?___wmul+1)
  4592  00032E  ECDA  F02E         	call	___wmul	;wreg free
  4593  000332  90D8               	bcf	status,0
  4594  000334  0108               	movlb	8	; () banked
  4595  000336  0108               	movlb	8	; () banked
  4596  000338  3502               	rlcf	((2050))&0ffh,w
  4597  00033A  0109               	movlb	9	; () banked
  4598  00033C  6F32               	movwf	(??_CheckWalls+8+0)&0ffh
  4599  00033E  0108               	movlb	8	; () banked
  4600  000340  0108               	movlb	8	; () banked
  4601  000342  3503               	rlcf	((2050+1))&0ffh,w
  4602  000344  0109               	movlb	9	; () banked
  4603  000346  6F33               	movwf	1+(??_CheckWalls+8+0)&0ffh
  4604  000348  0108               	movlb	8	; () banked
  4605  00034A  C800 F934          	movff	(2048),??_CheckWalls+10+0
  4606  00034E  0108               	movlb	8	; () banked
  4607  000350  C801 F935          	movff	(2048+1),??_CheckWalls+10+0+1
  4608  000354  0E05               	movlw	05h
  4609  000356                     u8675:
  4610  000356  90D8               	bcf	status,0
  4611  000358  0109               	movlb	9	; () banked
  4612  00035A  3734               	rlcf	(??_CheckWalls+10+0)&0ffh
  4613  00035C  3735               	rlcf	(??_CheckWalls+10+1)&0ffh
  4614  00035E  2EE8               	decfsz	wreg
  4615  000360  EFAB  F001         	goto	u8675
  4616  000364  0EE0               	movlw	low(0FFE0h)
  4617  000366  0109               	movlb	9	; () banked
  4618  000368  2534               	addwf	(??_CheckWalls+10+0)&0ffh,w
  4619  00036A  0109               	movlb	9	; () banked
  4620  00036C  6F36               	movwf	(??_CheckWalls+12+0)&0ffh
  4621  00036E  0EFF               	movlw	high(0FFE0h)
  4622  000370  0109               	movlb	9	; () banked
  4623  000372  2135               	addwfc	(??_CheckWalls+10+1)&0ffh,w
  4624  000374  0109               	movlb	9	; () banked
  4625  000376  6F37               	movwf	1+(??_CheckWalls+12+0)&0ffh
  4626  000378  0E00               	movlw	low(0)
  4627  00037A  0109               	movlb	9	; () banked
  4628  00037C  2536               	addwf	(??_CheckWalls+12+0)&0ffh,w
  4629  00037E  0109               	movlb	9	; () banked
  4630  000380  6F38               	movwf	(??_CheckWalls+14+0)&0ffh
  4631  000382  0E00               	movlw	high(0)
  4632  000384  0109               	movlb	9	; () banked
  4633  000386  2137               	addwfc	(??_CheckWalls+12+1)&0ffh,w
  4634  000388  0109               	movlb	9	; () banked
  4635  00038A  6F39               	movwf	1+(??_CheckWalls+14+0)&0ffh
  4636  00038C  0109               	movlb	9	; () banked
  4637  00038E  5132               	movf	(??_CheckWalls+8+0)&0ffh,w
  4638  000390  0109               	movlb	9	; () banked
  4639  000392  2538               	addwf	(??_CheckWalls+14+0)&0ffh,w
  4640  000394  6EE9               	movwf	c:fsr0l
  4641  000396  0109               	movlb	9	; () banked
  4642  000398  5133               	movf	(??_CheckWalls+8+1)&0ffh,w
  4643  00039A  0109               	movlb	9	; () banked
  4644  00039C  2139               	addwfc	(??_CheckWalls+14+1)&0ffh,w
  4645  00039E  6EEA               	movwf	1+c:fsr0l
  4646  0003A0  0109               	movlb	9	; () banked
  4647  0003A2  C93A  FFEE         	movff	0+?___wmul,postinc0
  4648  0003A6  0109               	movlb	9	; () banked
  4649  0003A8  C93B  FFED         	movff	1+?___wmul,postdec0
  4650                           
  4651                           	
  4652  0003AC                     l562:		; BSR set to: ?
  4653                           
  4654                           	line	644
  4655                           	
  4656  0003AC                     l560:		; BSR set to: ?
  4657                           
  4658                           	line	645
  4659                           ;main.c: 644: }
  4660                           ;main.c: 645: if(RB4 == 0){
  4661  0003AC  B881               	btfsc	c:(31756/8),(31756)&7	;volatile
  4662  0003AE  EFDB  F001         	goto	u8681
  4663  0003B2  EFDD  F001         	goto	u8680
  4664  0003B6                     u8681:
  4665  0003B6  EF6B  F003         	goto	l563
  4666  0003BA                     u8680:
  4667                           	line	646
  4668                           ;main.c: 646: if (wallMap[mouseY][mouseX] % 5 !=
                                  0)
  4669  0003BA  0E05               	movlw	low(05h)
  4670  0003BC  0109               	movlb	9	; () banked
  4671  0003BE  0109               	movlb	9	; () banked
  4672  0003C0  6F54               	movwf	(0+(?___awmod+02h))&0ffh
  4673  0003C2  0E00               	movlw	high(05h)
  4674  0003C4  0109               	movlb	9	; () banked
  4675  0003C6  6F55               	movwf	(1+(?___awmod+02h))&0ffh
  4676  0003C8  90D8               	bcf	status,0
  4677  0003CA  0108               	movlb	8	; () banked
  4678  0003CC  0108               	movlb	8	; () banked
  4679  0003CE  3502               	rlcf	((2050))&0ffh,w
  4680  0003D0  0109               	movlb	9	; () banked
  4681  0003D2  6F2A               	movwf	(??_CheckWalls+0+0)&0ffh
  4682  0003D4  0108               	movlb	8	; () banked
  4683  0003D6  0108               	movlb	8	; () banked
  4684  0003D8  3503               	rlcf	((2050+1))&0ffh,w
  4685  0003DA  0109               	movlb	9	; () banked
  4686  0003DC  6F2B               	movwf	1+(??_CheckWalls+0+0)&0ffh
  4687  0003DE  0108               	movlb	8	; () banked
  4688  0003E0  C800 F92C          	movff	(2048),??_CheckWalls+2+0
  4689  0003E4  0108               	movlb	8	; () banked
  4690  0003E6  C801 F92D          	movff	(2048+1),??_CheckWalls+2+0+1
  4691  0003EA  0E05               	movlw	05h
  4692  0003EC                     u8695:
  4693  0003EC  90D8               	bcf	status,0
  4694  0003EE  0109               	movlb	9	; () banked
  4695  0003F0  372C               	rlcf	(??_CheckWalls+2+0)&0ffh
  4696  0003F2  372D               	rlcf	(??_CheckWalls+2+1)&0ffh
  4697  0003F4  2EE8               	decfsz	wreg
  4698  0003F6  EFF6  F001         	goto	u8695
  4699  0003FA  0E00               	movlw	low(0)
  4700  0003FC  0109               	movlb	9	; () banked
  4701  0003FE  252C               	addwf	(??_CheckWalls+2+0)&0ffh,w
  4702  000400  0109               	movlb	9	; () banked
  4703  000402  6F2E               	movwf	(??_CheckWalls+4+0)&0ffh
  4704  000404  0E00               	movlw	high(0)
  4705  000406  0109               	movlb	9	; () banked
  4706  000408  212D               	addwfc	(??_CheckWalls+2+1)&0ffh,w
  4707  00040A  0109               	movlb	9	; () banked
  4708  00040C  6F2F               	movwf	1+(??_CheckWalls+4+0)&0ffh
  4709  00040E  0109               	movlb	9	; () banked
  4710  000410  512A               	movf	(??_CheckWalls+0+0)&0ffh,w
  4711  000412  0109               	movlb	9	; () banked
  4712  000414  252E               	addwf	(??_CheckWalls+4+0)&0ffh,w
  4713  000416  6EE9               	movwf	c:fsr0l
  4714  000418  0109               	movlb	9	; () banked
  4715  00041A  512B               	movf	(??_CheckWalls+0+1)&0ffh,w
  4716  00041C  0109               	movlb	9	; () banked
  4717  00041E  212F               	addwfc	(??_CheckWalls+4+1)&0ffh,w
  4718  000420  6EEA               	movwf	1+c:fsr0l
  4719  000422  0109               	movlb	9	; () banked
  4720  000424  CFEE F952          	movff	postinc0,(?___awmod)
  4721  000428  0109               	movlb	9	; () banked
  4722  00042A  CFED F953          	movff	postdec0,(?___awmod+1)
  4723  00042E  EC94  F02D         	call	___awmod	;wreg free
  4724  000432  0109               	movlb	9	; () banked
  4725  000434  5153               	movf	(1+?___awmod)&0ffh,w
  4726  000436  1152               	iorwf (0+?___awmod)&0ffh,w
  4727                           
  4728  000438  B4D8               	btfsc	status,2
  4729  00043A  EF21  F002         	goto	u8701
  4730  00043E  EF23  F002         	goto	u8700
  4731  000442                     u8701:
  4732  000442  EF92  F002         	goto	l564
  4733  000446                     u8700:
  4734                           	line	647
  4735                           ;main.c: 647: wallMap[mouseY][mouseX] *= 5;
  4736  000446  0E05               	movlw	low(05h)
  4737  000448  0109               	movlb	9	; () banked
  4738  00044A  0109               	movlb	9	; () banked
  4739  00044C  6F3C               	movwf	(0+(?___wmul+02h))&0ffh
  4740  00044E  0E00               	movlw	high(05h)
  4741  000450  0109               	movlb	9	; () banked
  4742  000452  6F3D               	movwf	(1+(?___wmul+02h))&0ffh
  4743  000454  90D8               	bcf	status,0
  4744  000456  0108               	movlb	8	; () banked
  4745  000458  0108               	movlb	8	; () banked
  4746  00045A  3502               	rlcf	((2050))&0ffh,w
  4747  00045C  0109               	movlb	9	; () banked
  4748  00045E  6F2A               	movwf	(??_CheckWalls+0+0)&0ffh
  4749  000460  0108               	movlb	8	; () banked
  4750  000462  0108               	movlb	8	; () banked
  4751  000464  3503               	rlcf	((2050+1))&0ffh,w
  4752  000466  0109               	movlb	9	; () banked
  4753  000468  6F2B               	movwf	1+(??_CheckWalls+0+0)&0ffh
  4754  00046A  0108               	movlb	8	; () banked
  4755  00046C  C800 F92C          	movff	(2048),??_CheckWalls+2+0
  4756  000470  0108               	movlb	8	; () banked
  4757  000472  C801 F92D          	movff	(2048+1),??_CheckWalls+2+0+1
  4758  000476  0E05               	movlw	05h
  4759  000478                     u8715:
  4760  000478  90D8               	bcf	status,0
  4761  00047A  0109               	movlb	9	; () banked
  4762  00047C  372C               	rlcf	(??_CheckWalls+2+0)&0ffh
  4763  00047E  372D               	rlcf	(??_CheckWalls+2+1)&0ffh
  4764  000480  2EE8               	decfsz	wreg
  4765  000482  EF3C  F002         	goto	u8715
  4766  000486  0E00               	movlw	low(0)
  4767  000488  0109               	movlb	9	; () banked
  4768  00048A  252C               	addwf	(??_CheckWalls+2+0)&0ffh,w
  4769  00048C  0109               	movlb	9	; () banked
  4770  00048E  6F2E               	movwf	(??_CheckWalls+4+0)&0ffh
  4771  000490  0E00               	movlw	high(0)
  4772  000492  0109               	movlb	9	; () banked
  4773  000494  212D               	addwfc	(??_CheckWalls+2+1)&0ffh,w
  4774  000496  0109               	movlb	9	; () banked
  4775  000498  6F2F               	movwf	1+(??_CheckWalls+4+0)&0ffh
  4776  00049A  0109               	movlb	9	; () banked
  4777  00049C  512A               	movf	(??_CheckWalls+0+0)&0ffh,w
  4778  00049E  0109               	movlb	9	; () banked
  4779  0004A0  252E               	addwf	(??_CheckWalls+4+0)&0ffh,w
  4780  0004A2  6EE9               	movwf	c:fsr0l
  4781  0004A4  0109               	movlb	9	; () banked
  4782  0004A6  512B               	movf	(??_CheckWalls+0+1)&0ffh,w
  4783  0004A8  0109               	movlb	9	; () banked
  4784  0004AA  212F               	addwfc	(??_CheckWalls+4+1)&0ffh,w
  4785  0004AC  6EEA               	movwf	1+c:fsr0l
  4786  0004AE  0109               	movlb	9	; () banked
  4787  0004B0  CFEE F93A          	movff	postinc0,(?___wmul)
  4788  0004B4  0109               	movlb	9	; () banked
  4789  0004B6  CFED F93B          	movff	postdec0,(?___wmul+1)
  4790  0004BA  ECDA  F02E         	call	___wmul	;wreg free
  4791  0004BE  90D8               	bcf	status,0
  4792  0004C0  0108               	movlb	8	; () banked
  4793  0004C2  0108               	movlb	8	; () banked
  4794  0004C4  3502               	rlcf	((2050))&0ffh,w
  4795  0004C6  0109               	movlb	9	; () banked
  4796  0004C8  6F30               	movwf	(??_CheckWalls+6+0)&0ffh
  4797  0004CA  0108               	movlb	8	; () banked
  4798  0004CC  0108               	movlb	8	; () banked
  4799  0004CE  3503               	rlcf	((2050+1))&0ffh,w
  4800  0004D0  0109               	movlb	9	; () banked
  4801  0004D2  6F31               	movwf	1+(??_CheckWalls+6+0)&0ffh
  4802  0004D4  0108               	movlb	8	; () banked
  4803  0004D6  C800 F932          	movff	(2048),??_CheckWalls+8+0
  4804  0004DA  0108               	movlb	8	; () banked
  4805  0004DC  C801 F933          	movff	(2048+1),??_CheckWalls+8+0+1
  4806  0004E0  0E05               	movlw	05h
  4807  0004E2                     u8725:
  4808  0004E2  90D8               	bcf	status,0
  4809  0004E4  0109               	movlb	9	; () banked
  4810  0004E6  3732               	rlcf	(??_CheckWalls+8+0)&0ffh
  4811  0004E8  3733               	rlcf	(??_CheckWalls+8+1)&0ffh
  4812  0004EA  2EE8               	decfsz	wreg
  4813  0004EC  EF71  F002         	goto	u8725
  4814  0004F0  0E00               	movlw	low(0)
  4815  0004F2  0109               	movlb	9	; () banked
  4816  0004F4  2532               	addwf	(??_CheckWalls+8+0)&0ffh,w
  4817  0004F6  0109               	movlb	9	; () banked
  4818  0004F8  6F34               	movwf	(??_CheckWalls+10+0)&0ffh
  4819  0004FA  0E00               	movlw	high(0)
  4820  0004FC  0109               	movlb	9	; () banked
  4821  0004FE  2133               	addwfc	(??_CheckWalls+8+1)&0ffh,w
  4822  000500  0109               	movlb	9	; () banked
  4823  000502  6F35               	movwf	1+(??_CheckWalls+10+0)&0ffh
  4824  000504  0109               	movlb	9	; () banked
  4825  000506  5130               	movf	(??_CheckWalls+6+0)&0ffh,w
  4826  000508  0109               	movlb	9	; () banked
  4827  00050A  2534               	addwf	(??_CheckWalls+10+0)&0ffh,w
  4828  00050C  6EE9               	movwf	c:fsr0l
  4829  00050E  0109               	movlb	9	; () banked
  4830  000510  5131               	movf	(??_CheckWalls+6+1)&0ffh,w
  4831  000512  0109               	movlb	9	; () banked
  4832  000514  2135               	addwfc	(??_CheckWalls+10+1)&0ffh,w
  4833  000516  6EEA               	movwf	1+c:fsr0l
  4834  000518  0109               	movlb	9	; () banked
  4835  00051A  C93A  FFEE         	movff	0+?___wmul,postinc0
  4836  00051E  0109               	movlb	9	; () banked
  4837  000520  C93B  FFED         	movff	1+?___wmul,postdec0
  4838                           
  4839                           	
  4840  000524                     l564:		; BSR set to: ?
  4841                           
  4842                           	line	649
  4843                           ;main.c: 649: if((mouseX + 1 < 16) && (wallMap[m
                                 ouseY][mouseX] % 13 != 0))
  4844  000524  0E01               	movlw	01h
  4845  000526  0108               	movlb	8	; () banked
  4846  000528  0108               	movlb	8	; () banked
  4847  00052A  2502               	addwf	((2050))&0ffh,w
  4848  00052C  0109               	movlb	9	; () banked
  4849  00052E  6F2A               	movwf	(??_CheckWalls+0+0)&0ffh
  4850  000530  0E00               	movlw	0
  4851  000532  0108               	movlb	8	; () banked
  4852  000534  0108               	movlb	8	; () banked
  4853  000536  2103               	addwfc	((2050+1))&0ffh,w
  4854  000538  0109               	movlb	9	; () banked
  4855  00053A  6F2B               	movwf	(??_CheckWalls+0+0+1)&0ffh
  4856  00053C  0109               	movlb	9	; () banked
  4857  00053E  512B               	movf	(??_CheckWalls+0+1)&0ffh,w
  4858  000540  0A80               	xorlw	80h
  4859  000542  0F80               	addlw	-((0)^80h)
  4860  000544  0E10               	movlw	010h
  4861  000546  B4D8               	btfsc	status,2
  4862  000548  5D2A               	subwf	(??_CheckWalls+0+0)&0ffh,w
  4863  00054A  B0D8               	btfsc	status,0
  4864  00054C  EFAA  F002         	goto	u8731
  4865  000550  EFAC  F002         	goto	u8730
  4866  000554                     u8731:
  4867  000554  EF6B  F003         	goto	l563
  4868  000558                     u8730:
  4869  000558  0E0D               	movlw	low(0Dh)
  4870  00055A  0109               	movlb	9	; () banked
  4871  00055C  0109               	movlb	9	; () banked
  4872  00055E  6F54               	movwf	(0+(?___awmod+02h))&0ffh
  4873  000560  0E00               	movlw	high(0Dh)
  4874  000562  0109               	movlb	9	; () banked
  4875  000564  6F55               	movwf	(1+(?___awmod+02h))&0ffh
  4876  000566  90D8               	bcf	status,0
  4877  000568  0108               	movlb	8	; () banked
  4878  00056A  0108               	movlb	8	; () banked
  4879  00056C  3502               	rlcf	((2050))&0ffh,w
  4880  00056E  0109               	movlb	9	; () banked
  4881  000570  6F2A               	movwf	(??_CheckWalls+0+0)&0ffh
  4882  000572  0108               	movlb	8	; () banked
  4883  000574  0108               	movlb	8	; () banked
  4884  000576  3503               	rlcf	((2050+1))&0ffh,w
  4885  000578  0109               	movlb	9	; () banked
  4886  00057A  6F2B               	movwf	1+(??_CheckWalls+0+0)&0ffh
  4887  00057C  0108               	movlb	8	; () banked
  4888  00057E  C800 F92C          	movff	(2048),??_CheckWalls+2+0
  4889  000582  0108               	movlb	8	; () banked
  4890  000584  C801 F92D          	movff	(2048+1),??_CheckWalls+2+0+1
  4891  000588  0E05               	movlw	05h
  4892  00058A                     u8745:
  4893  00058A  90D8               	bcf	status,0
  4894  00058C  0109               	movlb	9	; () banked
  4895  00058E  372C               	rlcf	(??_CheckWalls+2+0)&0ffh
  4896  000590  372D               	rlcf	(??_CheckWalls+2+1)&0ffh
  4897  000592  2EE8               	decfsz	wreg
  4898  000594  EFC5  F002         	goto	u8745
  4899  000598  0E00               	movlw	low(0)
  4900  00059A  0109               	movlb	9	; () banked
  4901  00059C  252C               	addwf	(??_CheckWalls+2+0)&0ffh,w
  4902  00059E  0109               	movlb	9	; () banked
  4903  0005A0  6F2E               	movwf	(??_CheckWalls+4+0)&0ffh
  4904  0005A2  0E00               	movlw	high(0)
  4905  0005A4  0109               	movlb	9	; () banked
  4906  0005A6  212D               	addwfc	(??_CheckWalls+2+1)&0ffh,w
  4907  0005A8  0109               	movlb	9	; () banked
  4908  0005AA  6F2F               	movwf	1+(??_CheckWalls+4+0)&0ffh
  4909  0005AC  0109               	movlb	9	; () banked
  4910  0005AE  512A               	movf	(??_CheckWalls+0+0)&0ffh,w
  4911  0005B0  0109               	movlb	9	; () banked
  4912  0005B2  252E               	addwf	(??_CheckWalls+4+0)&0ffh,w
  4913  0005B4  6EE9               	movwf	c:fsr0l
  4914  0005B6  0109               	movlb	9	; () banked
  4915  0005B8  512B               	movf	(??_CheckWalls+0+1)&0ffh,w
  4916  0005BA  0109               	movlb	9	; () banked
  4917  0005BC  212F               	addwfc	(??_CheckWalls+4+1)&0ffh,w
  4918  0005BE  6EEA               	movwf	1+c:fsr0l
  4919  0005C0  0109               	movlb	9	; () banked
  4920  0005C2  CFEE F952          	movff	postinc0,(?___awmod)
  4921  0005C6  0109               	movlb	9	; () banked
  4922  0005C8  CFED F953          	movff	postdec0,(?___awmod+1)
  4923  0005CC  EC94  F02D         	call	___awmod	;wreg free
  4924  0005D0  0109               	movlb	9	; () banked
  4925  0005D2  5153               	movf	(1+?___awmod)&0ffh,w
  4926  0005D4  1152               	iorwf (0+?___awmod)&0ffh,w
  4927                           
  4928  0005D6  B4D8               	btfsc	status,2
  4929  0005D8  EFF0  F002         	goto	u8751
  4930  0005DC  EFF2  F002         	goto	u8750
  4931  0005E0                     u8751:
  4932  0005E0  EF6B  F003         	goto	l563
  4933  0005E4                     u8750:
  4934                           	line	650
  4935                           ;main.c: 650: wallMap[mouseY][mouseX+1] *= 13;
  4936  0005E4  0E0D               	movlw	low(0Dh)
  4937  0005E6  0109               	movlb	9	; () banked
  4938  0005E8  0109               	movlb	9	; () banked
  4939  0005EA  6F3C               	movwf	(0+(?___wmul+02h))&0ffh
  4940  0005EC  0E00               	movlw	high(0Dh)
  4941  0005EE  0109               	movlb	9	; () banked
  4942  0005F0  6F3D               	movwf	(1+(?___wmul+02h))&0ffh
  4943  0005F2  0108               	movlb	8	; () banked
  4944  0005F4  C800 F92A          	movff	(2048),??_CheckWalls+0+0
  4945  0005F8  0108               	movlb	8	; () banked
  4946  0005FA  C801 F92B          	movff	(2048+1),??_CheckWalls+0+0+1
  4947  0005FE  0E05               	movlw	05h
  4948  000600                     u8765:
  4949  000600  90D8               	bcf	status,0
  4950  000602  0109               	movlb	9	; () banked
  4951  000604  372A               	rlcf	(??_CheckWalls+0+0)&0ffh
  4952  000606  372B               	rlcf	(??_CheckWalls+0+1)&0ffh
  4953  000608  2EE8               	decfsz	wreg
  4954  00060A  EF00  F003         	goto	u8765
  4955  00060E  90D8               	bcf	status,0
  4956  000610  0108               	movlb	8	; () banked
  4957  000612  0108               	movlb	8	; () banked
  4958  000614  3502               	rlcf	((2050))&0ffh,w
  4959  000616  0109               	movlb	9	; () banked
  4960  000618  6F2C               	movwf	(??_CheckWalls+2+0)&0ffh
  4961  00061A  0108               	movlb	8	; () banked
  4962  00061C  0108               	movlb	8	; () banked
  4963  00061E  3503               	rlcf	((2050+1))&0ffh,w
  4964  000620  0109               	movlb	9	; () banked
  4965  000622  6F2D               	movwf	1+(??_CheckWalls+2+0)&0ffh
  4966  000624  0E02               	movlw	02h
  4967  000626  0109               	movlb	9	; () banked
  4968  000628  272C               	addwf	(??_CheckWalls+2+0)&0ffh
  4969  00062A  0E00               	movlw	0
  4970  00062C  232D               	addwfc	(??_CheckWalls+2+1)&0ffh
  4971  00062E  0E00               	movlw	low(0)
  4972  000630  0109               	movlb	9	; () banked
  4973  000632  252C               	addwf	(??_CheckWalls+2+0)&0ffh,w
  4974  000634  0109               	movlb	9	; () banked
  4975  000636  6F2E               	movwf	(??_CheckWalls+4+0)&0ffh
  4976  000638  0E00               	movlw	high(0)
  4977  00063A  0109               	movlb	9	; () banked
  4978  00063C  212D               	addwfc	(??_CheckWalls+2+1)&0ffh,w
  4979  00063E  0109               	movlb	9	; () banked
  4980  000640  6F2F               	movwf	1+(??_CheckWalls+4+0)&0ffh
  4981  000642  0109               	movlb	9	; () banked
  4982  000644  512A               	movf	(??_CheckWalls+0+0)&0ffh,w
  4983  000646  0109               	movlb	9	; () banked
  4984  000648  252E               	addwf	(??_CheckWalls+4+0)&0ffh,w
  4985  00064A  6EE9               	movwf	c:fsr0l
  4986  00064C  0109               	movlb	9	; () banked
  4987  00064E  512B               	movf	(??_CheckWalls+0+1)&0ffh,w
  4988  000650  0109               	movlb	9	; () banked
  4989  000652  212F               	addwfc	(??_CheckWalls+4+1)&0ffh,w
  4990  000654  6EEA               	movwf	1+c:fsr0l
  4991  000656  0109               	movlb	9	; () banked
  4992  000658  CFEE F93A          	movff	postinc0,(?___wmul)
  4993  00065C  0109               	movlb	9	; () banked
  4994  00065E  CFED F93B          	movff	postdec0,(?___wmul+1)
  4995  000662  ECDA  F02E         	call	___wmul	;wreg free
  4996  000666  0108               	movlb	8	; () banked
  4997  000668  C800 F930          	movff	(2048),??_CheckWalls+6+0
  4998  00066C  0108               	movlb	8	; () banked
  4999  00066E  C801 F931          	movff	(2048+1),??_CheckWalls+6+0+1
  5000  000672  0E05               	movlw	05h
  5001  000674                     u8775:
  5002  000674  90D8               	bcf	status,0
  5003  000676  0109               	movlb	9	; () banked
  5004  000678  3730               	rlcf	(??_CheckWalls+6+0)&0ffh
  5005  00067A  3731               	rlcf	(??_CheckWalls+6+1)&0ffh
  5006  00067C  2EE8               	decfsz	wreg
  5007  00067E  EF3A  F003         	goto	u8775
  5008  000682  90D8               	bcf	status,0
  5009  000684  0108               	movlb	8	; () banked
  5010  000686  0108               	movlb	8	; () banked
  5011  000688  3502               	rlcf	((2050))&0ffh,w
  5012  00068A  0109               	movlb	9	; () banked
  5013  00068C  6F32               	movwf	(??_CheckWalls+8+0)&0ffh
  5014  00068E  0108               	movlb	8	; () banked
  5015  000690  0108               	movlb	8	; () banked
  5016  000692  3503               	rlcf	((2050+1))&0ffh,w
  5017  000694  0109               	movlb	9	; () banked
  5018  000696  6F33               	movwf	1+(??_CheckWalls+8+0)&0ffh
  5019  000698  0E02               	movlw	02h
  5020  00069A  0109               	movlb	9	; () banked
  5021  00069C  2732               	addwf	(??_CheckWalls+8+0)&0ffh
  5022  00069E  0E00               	movlw	0
  5023  0006A0  2333               	addwfc	(??_CheckWalls+8+1)&0ffh
  5024  0006A2  0E00               	movlw	low(0)
  5025  0006A4  0109               	movlb	9	; () banked
  5026  0006A6  2532               	addwf	(??_CheckWalls+8+0)&0ffh,w
  5027  0006A8  0109               	movlb	9	; () banked
  5028  0006AA  6F34               	movwf	(??_CheckWalls+10+0)&0ffh
  5029  0006AC  0E00               	movlw	high(0)
  5030  0006AE  0109               	movlb	9	; () banked
  5031  0006B0  2133               	addwfc	(??_CheckWalls+8+1)&0ffh,w
  5032  0006B2  0109               	movlb	9	; () banked
  5033  0006B4  6F35               	movwf	1+(??_CheckWalls+10+0)&0ffh
  5034  0006B6  0109               	movlb	9	; () banked
  5035  0006B8  5130               	movf	(??_CheckWalls+6+0)&0ffh,w
  5036  0006BA  0109               	movlb	9	; () banked
  5037  0006BC  2534               	addwf	(??_CheckWalls+10+0)&0ffh,w
  5038  0006BE  6EE9               	movwf	c:fsr0l
  5039  0006C0  0109               	movlb	9	; () banked
  5040  0006C2  5131               	movf	(??_CheckWalls+6+1)&0ffh,w
  5041  0006C4  0109               	movlb	9	; () banked
  5042  0006C6  2135               	addwfc	(??_CheckWalls+10+1)&0ffh,w
  5043  0006C8  6EEA               	movwf	1+c:fsr0l
  5044  0006CA  0109               	movlb	9	; () banked
  5045  0006CC  C93A  FFEE         	movff	0+?___wmul,postinc0
  5046  0006D0  0109               	movlb	9	; () banked
  5047  0006D2  C93B  FFED         	movff	1+?___wmul,postdec0
  5048                           
  5049                           	
  5050  0006D6                     l565:		; BSR set to: ?
  5051                           
  5052                           	line	652
  5053                           	
  5054  0006D6                     l563:		; BSR set to: ?
  5055                           
  5056                           	line	654
  5057                           ;main.c: 652: }
  5058                           ;main.c: 654: if(RB2 == 0){
  5059  0006D6  B481               	btfsc	c:(31754/8),(31754)&7	;volatile
  5060  0006D8  EF70  F003         	goto	u8781
  5061  0006DC  EF72  F003         	goto	u8780
  5062  0006E0                     u8781:
  5063  0006E0  EF09  F005         	goto	l566
  5064  0006E4                     u8780:
  5065                           	line	655
  5066                           ;main.c: 655: if(wallMap[mouseY][mouseX] % 13 !=
                                  0)
  5067  0006E4  0E0D               	movlw	low(0Dh)
  5068  0006E6  0109               	movlb	9	; () banked
  5069  0006E8  0109               	movlb	9	; () banked
  5070  0006EA  6F54               	movwf	(0+(?___awmod+02h))&0ffh
  5071  0006EC  0E00               	movlw	high(0Dh)
  5072  0006EE  0109               	movlb	9	; () banked
  5073  0006F0  6F55               	movwf	(1+(?___awmod+02h))&0ffh
  5074  0006F2  90D8               	bcf	status,0
  5075  0006F4  0108               	movlb	8	; () banked
  5076  0006F6  0108               	movlb	8	; () banked
  5077  0006F8  3502               	rlcf	((2050))&0ffh,w
  5078  0006FA  0109               	movlb	9	; () banked
  5079  0006FC  6F2A               	movwf	(??_CheckWalls+0+0)&0ffh
  5080  0006FE  0108               	movlb	8	; () banked
  5081  000700  0108               	movlb	8	; () banked
  5082  000702  3503               	rlcf	((2050+1))&0ffh,w
  5083  000704  0109               	movlb	9	; () banked
  5084  000706  6F2B               	movwf	1+(??_CheckWalls+0+0)&0ffh
  5085  000708  0108               	movlb	8	; () banked
  5086  00070A  C800 F92C          	movff	(2048),??_CheckWalls+2+0
  5087  00070E  0108               	movlb	8	; () banked
  5088  000710  C801 F92D          	movff	(2048+1),??_CheckWalls+2+0+1
  5089  000714  0E05               	movlw	05h
  5090  000716                     u8795:
  5091  000716  90D8               	bcf	status,0
  5092  000718  0109               	movlb	9	; () banked
  5093  00071A  372C               	rlcf	(??_CheckWalls+2+0)&0ffh
  5094  00071C  372D               	rlcf	(??_CheckWalls+2+1)&0ffh
  5095  00071E  2EE8               	decfsz	wreg
  5096  000720  EF8B  F003         	goto	u8795
  5097  000724  0E00               	movlw	low(0)
  5098  000726  0109               	movlb	9	; () banked
  5099  000728  252C               	addwf	(??_CheckWalls+2+0)&0ffh,w
  5100  00072A  0109               	movlb	9	; () banked
  5101  00072C  6F2E               	movwf	(??_CheckWalls+4+0)&0ffh
  5102  00072E  0E00               	movlw	high(0)
  5103  000730  0109               	movlb	9	; () banked
  5104  000732  212D               	addwfc	(??_CheckWalls+2+1)&0ffh,w
  5105  000734  0109               	movlb	9	; () banked
  5106  000736  6F2F               	movwf	1+(??_CheckWalls+4+0)&0ffh
  5107  000738  0109               	movlb	9	; () banked
  5108  00073A  512A               	movf	(??_CheckWalls+0+0)&0ffh,w
  5109  00073C  0109               	movlb	9	; () banked
  5110  00073E  252E               	addwf	(??_CheckWalls+4+0)&0ffh,w
  5111  000740  6EE9               	movwf	c:fsr0l
  5112  000742  0109               	movlb	9	; () banked
  5113  000744  512B               	movf	(??_CheckWalls+0+1)&0ffh,w
  5114  000746  0109               	movlb	9	; () banked
  5115  000748  212F               	addwfc	(??_CheckWalls+4+1)&0ffh,w
  5116  00074A  6EEA               	movwf	1+c:fsr0l
  5117  00074C  0109               	movlb	9	; () banked
  5118  00074E  CFEE F952          	movff	postinc0,(?___awmod)
  5119  000752  0109               	movlb	9	; () banked
  5120  000754  CFED F953          	movff	postdec0,(?___awmod+1)
  5121  000758  EC94  F02D         	call	___awmod	;wreg free
  5122  00075C  0109               	movlb	9	; () banked
  5123  00075E  5153               	movf	(1+?___awmod)&0ffh,w
  5124  000760  1152               	iorwf (0+?___awmod)&0ffh,w
  5125                           
  5126  000762  B4D8               	btfsc	status,2
  5127  000764  EFB6  F003         	goto	u8801
  5128  000768  EFB8  F003         	goto	u8800
  5129  00076C                     u8801:
  5130  00076C  EF27  F004         	goto	l567
  5131  000770                     u8800:
  5132                           	line	656
  5133                           ;main.c: 656: wallMap[mouseY][mouseX] *= 13;
  5134  000770  0E0D               	movlw	low(0Dh)
  5135  000772  0109               	movlb	9	; () banked
  5136  000774  0109               	movlb	9	; () banked
  5137  000776  6F3C               	movwf	(0+(?___wmul+02h))&0ffh
  5138  000778  0E00               	movlw	high(0Dh)
  5139  00077A  0109               	movlb	9	; () banked
  5140  00077C  6F3D               	movwf	(1+(?___wmul+02h))&0ffh
  5141  00077E  90D8               	bcf	status,0
  5142  000780  0108               	movlb	8	; () banked
  5143  000782  0108               	movlb	8	; () banked
  5144  000784  3502               	rlcf	((2050))&0ffh,w
  5145  000786  0109               	movlb	9	; () banked
  5146  000788  6F2A               	movwf	(??_CheckWalls+0+0)&0ffh
  5147  00078A  0108               	movlb	8	; () banked
  5148  00078C  0108               	movlb	8	; () banked
  5149  00078E  3503               	rlcf	((2050+1))&0ffh,w
  5150  000790  0109               	movlb	9	; () banked
  5151  000792  6F2B               	movwf	1+(??_CheckWalls+0+0)&0ffh
  5152  000794  0108               	movlb	8	; () banked
  5153  000796  C800 F92C          	movff	(2048),??_CheckWalls+2+0
  5154  00079A  0108               	movlb	8	; () banked
  5155  00079C  C801 F92D          	movff	(2048+1),??_CheckWalls+2+0+1
  5156  0007A0  0E05               	movlw	05h
  5157  0007A2                     u8815:
  5158  0007A2  90D8               	bcf	status,0
  5159  0007A4  0109               	movlb	9	; () banked
  5160  0007A6  372C               	rlcf	(??_CheckWalls+2+0)&0ffh
  5161  0007A8  372D               	rlcf	(??_CheckWalls+2+1)&0ffh
  5162  0007AA  2EE8               	decfsz	wreg
  5163  0007AC  EFD1  F003         	goto	u8815
  5164  0007B0  0E00               	movlw	low(0)
  5165  0007B2  0109               	movlb	9	; () banked
  5166  0007B4  252C               	addwf	(??_CheckWalls+2+0)&0ffh,w
  5167  0007B6  0109               	movlb	9	; () banked
  5168  0007B8  6F2E               	movwf	(??_CheckWalls+4+0)&0ffh
  5169  0007BA  0E00               	movlw	high(0)
  5170  0007BC  0109               	movlb	9	; () banked
  5171  0007BE  212D               	addwfc	(??_CheckWalls+2+1)&0ffh,w
  5172  0007C0  0109               	movlb	9	; () banked
  5173  0007C2  6F2F               	movwf	1+(??_CheckWalls+4+0)&0ffh
  5174  0007C4  0109               	movlb	9	; () banked
  5175  0007C6  512A               	movf	(??_CheckWalls+0+0)&0ffh,w
  5176  0007C8  0109               	movlb	9	; () banked
  5177  0007CA  252E               	addwf	(??_CheckWalls+4+0)&0ffh,w
  5178  0007CC  6EE9               	movwf	c:fsr0l
  5179  0007CE  0109               	movlb	9	; () banked
  5180  0007D0  512B               	movf	(??_CheckWalls+0+1)&0ffh,w
  5181  0007D2  0109               	movlb	9	; () banked
  5182  0007D4  212F               	addwfc	(??_CheckWalls+4+1)&0ffh,w
  5183  0007D6  6EEA               	movwf	1+c:fsr0l
  5184  0007D8  0109               	movlb	9	; () banked
  5185  0007DA  CFEE F93A          	movff	postinc0,(?___wmul)
  5186  0007DE  0109               	movlb	9	; () banked
  5187  0007E0  CFED F93B          	movff	postdec0,(?___wmul+1)
  5188  0007E4  ECDA  F02E         	call	___wmul	;wreg free
  5189  0007E8  90D8               	bcf	status,0
  5190  0007EA  0108               	movlb	8	; () banked
  5191  0007EC  0108               	movlb	8	; () banked
  5192  0007EE  3502               	rlcf	((2050))&0ffh,w
  5193  0007F0  0109               	movlb	9	; () banked
  5194  0007F2  6F30               	movwf	(??_CheckWalls+6+0)&0ffh
  5195  0007F4  0108               	movlb	8	; () banked
  5196  0007F6  0108               	movlb	8	; () banked
  5197  0007F8  3503               	rlcf	((2050+1))&0ffh,w
  5198  0007FA  0109               	movlb	9	; () banked
  5199  0007FC  6F31               	movwf	1+(??_CheckWalls+6+0)&0ffh
  5200  0007FE  0108               	movlb	8	; () banked
  5201  000800  C800 F932          	movff	(2048),??_CheckWalls+8+0
  5202  000804  0108               	movlb	8	; () banked
  5203  000806  C801 F933          	movff	(2048+1),??_CheckWalls+8+0+1
  5204  00080A  0E05               	movlw	05h
  5205  00080C                     u8825:
  5206  00080C  90D8               	bcf	status,0
  5207  00080E  0109               	movlb	9	; () banked
  5208  000810  3732               	rlcf	(??_CheckWalls+8+0)&0ffh
  5209  000812  3733               	rlcf	(??_CheckWalls+8+1)&0ffh
  5210  000814  2EE8               	decfsz	wreg
  5211  000816  EF06  F004         	goto	u8825
  5212  00081A  0E00               	movlw	low(0)
  5213  00081C  0109               	movlb	9	; () banked
  5214  00081E  2532               	addwf	(??_CheckWalls+8+0)&0ffh,w
  5215  000820  0109               	movlb	9	; () banked
  5216  000822  6F34               	movwf	(??_CheckWalls+10+0)&0ffh
  5217  000824  0E00               	movlw	high(0)
  5218  000826  0109               	movlb	9	; () banked
  5219  000828  2133               	addwfc	(??_CheckWalls+8+1)&0ffh,w
  5220  00082A  0109               	movlb	9	; () banked
  5221  00082C  6F35               	movwf	1+(??_CheckWalls+10+0)&0ffh
  5222  00082E  0109               	movlb	9	; () banked
  5223  000830  5130               	movf	(??_CheckWalls+6+0)&0ffh,w
  5224  000832  0109               	movlb	9	; () banked
  5225  000834  2534               	addwf	(??_CheckWalls+10+0)&0ffh,w
  5226  000836  6EE9               	movwf	c:fsr0l
  5227  000838  0109               	movlb	9	; () banked
  5228  00083A  5131               	movf	(??_CheckWalls+6+1)&0ffh,w
  5229  00083C  0109               	movlb	9	; () banked
  5230  00083E  2135               	addwfc	(??_CheckWalls+10+1)&0ffh,w
  5231  000840  6EEA               	movwf	1+c:fsr0l
  5232  000842  0109               	movlb	9	; () banked
  5233  000844  C93A  FFEE         	movff	0+?___wmul,postinc0
  5234  000848  0109               	movlb	9	; () banked
  5235  00084A  C93B  FFED         	movff	1+?___wmul,postdec0
  5236                           
  5237                           	
  5238  00084E                     l567:		; BSR set to: ?
  5239                           
  5240                           	line	658
  5241                           ;main.c: 658: if((mouseX - 1 >= 0) && (wallMap[m
                                 ouseY][mouseX-1] % 5 != 0))
  5242  00084E  0EFF               	movlw	0FFh
  5243  000850  0108               	movlb	8	; () banked
  5244  000852  0108               	movlb	8	; () banked
  5245  000854  2502               	addwf	((2050))&0ffh,w
  5246  000856  0EFF               	movlw	0FFh
  5247  000858  0108               	movlb	8	; () banked
  5248  00085A  2103               	addwfc	((2050+1))&0ffh,w
  5249  00085C  0B80               	andlw	80h
  5250  00085E  A4D8               	btfss	status,2
  5251  000860  EF34  F004         	goto	u8831
  5252  000864  EF36  F004         	goto	u8830
  5253  000868                     u8831:
  5254  000868  EF09  F005         	goto	l566
  5255  00086C                     u8830:
  5256  00086C  0E05               	movlw	low(05h)
  5257  00086E  0109               	movlb	9	; () banked
  5258  000870  0109               	movlb	9	; () banked
  5259  000872  6F54               	movwf	(0+(?___awmod+02h))&0ffh
  5260  000874  0E00               	movlw	high(05h)
  5261  000876  0109               	movlb	9	; () banked
  5262  000878  6F55               	movwf	(1+(?___awmod+02h))&0ffh
  5263  00087A  0108               	movlb	8	; () banked
  5264  00087C  C800 F92A          	movff	(2048),??_CheckWalls+0+0
  5265  000880  0108               	movlb	8	; () banked
  5266  000882  C801 F92B          	movff	(2048+1),??_CheckWalls+0+0+1
  5267  000886  0E05               	movlw	05h
  5268  000888                     u8845:
  5269  000888  90D8               	bcf	status,0
  5270  00088A  0109               	movlb	9	; () banked
  5271  00088C  372A               	rlcf	(??_CheckWalls+0+0)&0ffh
  5272  00088E  372B               	rlcf	(??_CheckWalls+0+1)&0ffh
  5273  000890  2EE8               	decfsz	wreg
  5274  000892  EF44  F004         	goto	u8845
  5275  000896  90D8               	bcf	status,0
  5276  000898  0108               	movlb	8	; () banked
  5277  00089A  0108               	movlb	8	; () banked
  5278  00089C  3502               	rlcf	((2050))&0ffh,w
  5279  00089E  0109               	movlb	9	; () banked
  5280  0008A0  6F2C               	movwf	(??_CheckWalls+2+0)&0ffh
  5281  0008A2  0108               	movlb	8	; () banked
  5282  0008A4  0108               	movlb	8	; () banked
  5283  0008A6  3503               	rlcf	((2050+1))&0ffh,w
  5284  0008A8  0109               	movlb	9	; () banked
  5285  0008AA  6F2D               	movwf	1+(??_CheckWalls+2+0)&0ffh
  5286  0008AC  0EFE               	movlw	low(0FFFEh)
  5287  0008AE  0109               	movlb	9	; () banked
  5288  0008B0  252C               	addwf	(??_CheckWalls+2+0)&0ffh,w
  5289  0008B2  0109               	movlb	9	; () banked
  5290  0008B4  6F2E               	movwf	(??_CheckWalls+4+0)&0ffh
  5291  0008B6  0EFF               	movlw	high(0FFFEh)
  5292  0008B8  0109               	movlb	9	; () banked
  5293  0008BA  212D               	addwfc	(??_CheckWalls+2+1)&0ffh,w
  5294  0008BC  0109               	movlb	9	; () banked
  5295  0008BE  6F2F               	movwf	1+(??_CheckWalls+4+0)&0ffh
  5296  0008C0  0E00               	movlw	low(0)
  5297  0008C2  0109               	movlb	9	; () banked
  5298  0008C4  252E               	addwf	(??_CheckWalls+4+0)&0ffh,w
  5299  0008C6  0109               	movlb	9	; () banked
  5300  0008C8  6F30               	movwf	(??_CheckWalls+6+0)&0ffh
  5301  0008CA  0E00               	movlw	high(0)
  5302  0008CC  0109               	movlb	9	; () banked
  5303  0008CE  212F               	addwfc	(??_CheckWalls+4+1)&0ffh,w
  5304  0008D0  0109               	movlb	9	; () banked
  5305  0008D2  6F31               	movwf	1+(??_CheckWalls+6+0)&0ffh
  5306  0008D4  0109               	movlb	9	; () banked
  5307  0008D6  512A               	movf	(??_CheckWalls+0+0)&0ffh,w
  5308  0008D8  0109               	movlb	9	; () banked
  5309  0008DA  2530               	addwf	(??_CheckWalls+6+0)&0ffh,w
  5310  0008DC  6EE9               	movwf	c:fsr0l
  5311  0008DE  0109               	movlb	9	; () banked
  5312+ 0008E0  512B               	movf	(??_CheckWalls+0+1)&0ffh,w
  5313+ 0008E2  0109               	movlb	9	; () banked
  5314+ 0008E4  2131               	addwfc	(??_CheckWalls+6+1)&0ffh,w
  5315+ 0008E6  6EEA               	movwf	1+c:fsr0l
  5316+ 0008E8  0109               	movlb	9	; () banked
  5317+ 0008EA  CFEE F952          	movff	postinc0,(?___awmod)
  5318+ 0008EE  0109               	movlb	9	; () banked
  5319+ 0008F0  CFED F953          	movff	postdec0,(?___awmod+1)
  5320+ 0008F4  EC94  F02D         	call	___awmod	;wreg free
  5321+ 0008F8  0109               	movlb	9	; () banked
  5322+ 0008FA  5153               	movf	(1+?___awmod)&0ffh,w
  5323+ 0008FC  1152               	iorwf (0+?___awmod)&0ffh,w
  5324+                          
  5325+ 0008FE  B4D8               	btfsc	status,2
  5326+ 000900  EF84  F004         	goto	u8851
  5327+ 000904  EF86  F004         	goto	u8850
  5328+ 000908                     u8851:
  5329+ 000908  EF09  F005         	goto	l566
  5330+ 00090C                     u8850:
  5331+                          	line	659
  5332+                          ;main.c: 659: wallMap[mouseY][mouseX-1] *= 5;
  5333+ 00090C  0E05               	movlw	low(05h)
  5334+ 00090E  0109               	movlb	9	; () banked
  5335+ 000910  0109               	movlb	9	; () banked
  5336+ 000912  6F3C               	movwf	(0+(?___wmul+02h))&0ffh
  5337+ 000914  0E00               	movlw	high(05h)
  5338+ 000916  0109               	movlb	9	; () banked
  5339+ 000918  6F3D               	movwf	(1+(?___wmul+02h))&0ffh
  5340+ 00091A  0108               	movlb	8	; () banked
  5341+ 00091C  C800 F92A          	movff	(2048),??_CheckWalls+0+0
  5342+ 000920  0108               	movlb	8	; () banked
  5343+ 000922  C801 F92B          	movff	(2048+1),??_CheckWalls+0+0+1
  5344+ 000926  0E05               	movlw	05h
  5345+ 000928                     u8865:
  5346+ 000928  90D8               	bcf	status,0
  5347+ 00092A  0109               	movlb	9	; () banked
  5348+ 00092C  372A               	rlcf	(??_CheckWalls+0+0)&0ffh
  5349+ 00092E  372B               	rlcf	(??_CheckWalls+0+1)&0ffh
  5350+ 000930  2EE8               	decfsz	wreg
  5351+ 000932  EF94  F004         	goto	u8865
  5352+ 000936  90D8               	bcf	status,0
  5353+ 000938  0108               	movlb	8	; () banked
  5354+ 00093A  0108               	movlb	8	; () banked
  5355+ 00093C  3502               	rlcf	((2050))&0ffh,w
  5356+ 00093E  0109               	movlb	9	; () banked
  5357+ 000940  6F2C               	movwf	(??_CheckWalls+2+0)&0ffh
  5358+ 000942  0108               	movlb	8	; () banked
  5359+ 000944  0108               	movlb	8	; () banked
  5360+ 000946  3503               	rlcf	((2050+1))&0ffh,w
  5361+ 000948  0109               	movlb	9	; () banked
  5362+ 00094A  6F2D               	movwf	1+(??_CheckWalls+2+0)&0ffh
  5363+ 00094C  0EFE               	movlw	low(0FFFEh)
  5364+ 00094E  0109               	movlb	9	; () banked
  5365+ 000950  252C               	addwf	(??_CheckWalls+2+0)&0ffh,w
  5366+ 000952  0109               	movlb	9	; () banked
  5367+ 000954  6F2E               	movwf	(??_CheckWalls+4+0)&0ffh
  5368+ 000956  0EFF               	movlw	high(0FFFEh)
  5369+ 000958  0109               	movlb	9	; () banked
  5370+ 00095A  212D               	addwfc	(??_CheckWalls+2+1)&0ffh,w
  5371+ 00095C  0109               	movlb	9	; () banked
  5372+ 00095E  6F2F               	movwf	1+(??_CheckWalls+4+0)&0ffh
  5373+ 000960  0E00               	movlw	low(0)
  5374+ 000962  0109               	movlb	9	; () banked
  5375+ 000964  252E               	addwf	(??_CheckWalls+4+0)&0ffh,w
  5376+ 000966  0109               	movlb	9	; () banked
  5377+ 000968  6F30               	movwf	(??_CheckWalls+6+0)&0ffh
  5378+ 00096A  0E00               	movlw	high(0)
  5379+ 00096C  0109               	movlb	9	; () banked
  5380+ 00096E  212F               	addwfc	(??_CheckWalls+4+1)&0ffh,w
  5381+ 000970  0109               	movlb	9	; () banked
  5382+ 000972  6F31               	movwf	1+(??_CheckWalls+6+0)&0ffh
  5383+ 000974  0109               	movlb	9	; () banked
  5384+ 000976  512A               	movf	(??_CheckWalls+0+0)&0ffh,w
  5385+ 000978  0109               	movlb	9	; () banked
  5386+ 00097A  2530               	addwf	(??_CheckWalls+6+0)&0ffh,w
  5387+ 00097C  6EE9               	movwf	c:fsr0l
  5388+ 00097E  0109               	movlb	9	; () banked
  5389+ 000980  512B               	movf	(??_CheckWalls+0+1)&0ffh,w
  5390+ 000982  0109               	movlb	9	; () banked
  5391+ 000984  2131               	addwfc	(??_CheckWalls+6+1)&0ffh,w
  5392+ 000986  6EEA               	movwf	1+c:fsr0l
  5393+ 000988  0109               	movlb	9	; () banked
  5394+ 00098A  CFEE F93A          	movff	postinc0,(?___wmul)
  5395+ 00098E  0109               	movlb	9	; () banked
  5396+ 000990  CFED F93B          	movff	postdec0,(?___wmul+1)
  5397+ 000994  ECDA  F02E         	call	___wmul	;wreg free
  5398+ 000998  0108               	movlb	8	; () banked
  5399+ 00099A  C800 F932          	movff	(2048),??_CheckWalls+8+0
  5400+ 00099E  0108               	movlb	8	; () banked
  5401+ 0009A0  C801 F933          	movff	(2048+1),??_CheckWalls+8+0+1
  5402+ 0009A4  0E05               	movlw	05h
  5403+ 0009A6                     u8875:
  5404+ 0009A6  90D8               	bcf	status,0
  5405+ 0009A8  0109               	movlb	9	; () banked
  5406+ 0009AA  3732               	rlcf	(??_CheckWalls+8+0)&0ffh
  5407+ 0009AC  3733               	rlcf	(??_CheckWalls+8+1)&0ffh
  5408+ 0009AE  2EE8               	decfsz	wreg
  5409+ 0009B0  EFD3  F004         	goto	u8875
  5410+ 0009B4  90D8               	bcf	status,0
  5411+ 0009B6  0108               	movlb	8	; () banked
  5412+ 0009B8  0108               	movlb	8	; () banked
  5413+ 0009BA  3502               	rlcf	((2050))&0ffh,w
  5414+ 0009BC  0109               	movlb	9	; () banked
  5415  0009BE  6F34               	movwf	(??_CheckWalls+10+0)&0ffh
  5416  0009C0  0108               	movlb	8	; () banked
  5417  0009C2  0108               	movlb	8	; () banked
  5418  0009C4  3503               	rlcf	((2050+1))&0ffh,w
  5419  0009C6  0109               	movlb	9	; () banked
  5420  0009C8  6F35               	movwf	1+(??_CheckWalls+10+0)&0ffh
  5421  0009CA  0EFE               	movlw	low(0FFFEh)
  5422  0009CC  0109               	movlb	9	; () banked
  5423  0009CE  2534               	addwf	(??_CheckWalls+10+0)&0ffh,w
  5424  0009D0  0109               	movlb	9	; () banked
  5425  0009D2  6F36               	movwf	(??_CheckWalls+12+0)&0ffh
  5426  0009D4  0EFF               	movlw	high(0FFFEh)
  5427  0009D6  0109               	movlb	9	; () banked
  5428  0009D8  2135               	addwfc	(??_CheckWalls+10+1)&0ffh,w
  5429  0009DA  0109               	movlb	9	; () banked
  5430  0009DC  6F37               	movwf	1+(??_CheckWalls+12+0)&0ffh
  5431  0009DE  0E00               	movlw	low(0)
  5432  0009E0  0109               	movlb	9	; () banked
  5433  0009E2  2536               	addwf	(??_CheckWalls+12+0)&0ffh,w
  5434  0009E4  0109               	movlb	9	; () banked
  5435  0009E6  6F38               	movwf	(??_CheckWalls+14+0)&0ffh
  5436  0009E8  0E00               	movlw	high(0)
  5437  0009EA  0109               	movlb	9	; () banked
  5438  0009EC  2137               	addwfc	(??_CheckWalls+12+1)&0ffh,w
  5439  0009EE  0109               	movlb	9	; () banked
  5440  0009F0  6F39               	movwf	1+(??_CheckWalls+14+0)&0ffh
  5441  0009F2  0109               	movlb	9	; () banked
  5442  0009F4  5132               	movf	(??_CheckWalls+8+0)&0ffh,w
  5443  0009F6  0109               	movlb	9	; () banked
  5444  0009F8  2538               	addwf	(??_CheckWalls+14+0)&0ffh,w
  5445  0009FA  6EE9               	movwf	c:fsr0l
  5446  0009FC  0109               	movlb	9	; () banked
  5447  0009FE  5133               	movf	(??_CheckWalls+8+1)&0ffh,w
  5448  000A00  0109               	movlb	9	; () banked
  5449  000A02  2139               	addwfc	(??_CheckWalls+14+1)&0ffh,w
  5450  000A04  6EEA               	movwf	1+c:fsr0l
  5451  000A06  0109               	movlb	9	; () banked
  5452  000A08  C93A  FFEE         	movff	0+?___wmul,postinc0
  5453  000A0C  0109               	movlb	9	; () banked
  5454  000A0E  C93B  FFED         	movff	1+?___wmul,postdec0
  5455                           
  5456                           	
  5457  000A12                     l568:		; BSR set to: ?
  5458                           
  5459                           	line	660
  5460                           	
  5461  000A12                     l566:		; BSR set to: ?
  5462                           
  5463                           	line	661
  5464                           ;main.c: 660: }
  5465                           ;main.c: 661: break;
  5466  000A12  EFAE  F013         	goto	l557
  5467                           	line	664
  5468                           ;main.c: 664: case 5:
  5469                           	
  5470  000A16                     l569:		; BSR set to: ?
  5471                           
  5472                           	line	665
  5473                           ;main.c: 665: if(RB3 == 0){
  5474  000A16  B681               	btfsc	c:(31755/8),(31755)&7	;volatile
  5475  000A18  EF10  F005         	goto	u8881
  5476  000A1C  EF12  F005         	goto	u8880
  5477  000A20                     u8881:
  5478  000A20  EFA5  F006         	goto	l570
  5479  000A24                     u8880:
  5480                           	line	666
  5481                           ;main.c: 666: if(wallMap[mouseY][mouseX] % 5 != 
                                 0)
  5482  000A24  0E05               	movlw	low(05h)
  5483  000A26  0109               	movlb	9	; () banked
  5484  000A28  0109               	movlb	9	; () banked
  5485  000A2A  6F54               	movwf	(0+(?___awmod+02h))&0ffh
  5486  000A2C  0E00               	movlw	high(05h)
  5487  000A2E  0109               	movlb	9	; () banked
  5488  000A30  6F55               	movwf	(1+(?___awmod+02h))&0ffh
  5489  000A32  90D8               	bcf	status,0
  5490  000A34  0108               	movlb	8	; () banked
  5491  000A36  0108               	movlb	8	; () banked
  5492  000A38  3502               	rlcf	((2050))&0ffh,w
  5493  000A3A  0109               	movlb	9	; () banked
  5494  000A3C  6F2A               	movwf	(??_CheckWalls+0+0)&0ffh
  5495  000A3E  0108               	movlb	8	; () banked
  5496  000A40  0108               	movlb	8	; () banked
  5497  000A42  3503               	rlcf	((2050+1))&0ffh,w
  5498  000A44  0109               	movlb	9	; () banked
  5499  000A46  6F2B               	movwf	1+(??_CheckWalls+0+0)&0ffh
  5500  000A48  0108               	movlb	8	; () banked
  5501  000A4A  C800 F92C          	movff	(2048),??_CheckWalls+2+0
  5502  000A4E  0108               	movlb	8	; () banked
  5503  000A50  C801 F92D          	movff	(2048+1),??_CheckWalls+2+0+1
  5504  000A54  0E05               	movlw	05h
  5505  000A56                     u8895:
  5506  000A56  90D8               	bcf	status,0
  5507  000A58  0109               	movlb	9	; () banked
  5508  000A5A  372C               	rlcf	(??_CheckWalls+2+0)&0ffh
  5509  000A5C  372D               	rlcf	(??_CheckWalls+2+1)&0ffh
  5510  000A5E  2EE8               	decfsz	wreg
  5511  000A60  EF2B  F005         	goto	u8895
  5512  000A64  0E00               	movlw	low(0)
  5513  000A66  0109               	movlb	9	; () banked
  5514  000A68  252C               	addwf	(??_CheckWalls+2+0)&0ffh,w
  5515  000A6A  0109               	movlb	9	; () banked
  5516  000A6C  6F2E               	movwf	(??_CheckWalls+4+0)&0ffh
  5517  000A6E  0E00               	movlw	high(0)
  5518  000A70  0109               	movlb	9	; () banked
  5519  000A72  212D               	addwfc	(??_CheckWalls+2+1)&0ffh,w
  5520  000A74  0109               	movlb	9	; () banked
  5521  000A76  6F2F               	movwf	1+(??_CheckWalls+4+0)&0ffh
  5522  000A78  0109               	movlb	9	; () banked
  5523  000A7A  512A               	movf	(??_CheckWalls+0+0)&0ffh,w
  5524  000A7C  0109               	movlb	9	; () banked
  5525  000A7E  252E               	addwf	(??_CheckWalls+4+0)&0ffh,w
  5526  000A80  6EE9               	movwf	c:fsr0l
  5527  000A82  0109               	movlb	9	; () banked
  5528  000A84  512B               	movf	(??_CheckWalls+0+1)&0ffh,w
  5529  000A86  0109               	movlb	9	; () banked
  5530  000A88  212F               	addwfc	(??_CheckWalls+4+1)&0ffh,w
  5531  000A8A  6EEA               	movwf	1+c:fsr0l
  5532  000A8C  0109               	movlb	9	; () banked
  5533  000A8E  CFEE F952          	movff	postinc0,(?___awmod)
  5534  000A92  0109               	movlb	9	; () banked
  5535  000A94  CFED F953          	movff	postdec0,(?___awmod+1)
  5536  000A98  EC94  F02D         	call	___awmod	;wreg free
  5537  000A9C  0109               	movlb	9	; () banked
  5538  000A9E  5153               	movf	(1+?___awmod)&0ffh,w
  5539  000AA0  1152               	iorwf (0+?___awmod)&0ffh,w
  5540                           
  5541  000AA2  B4D8               	btfsc	status,2
  5542  000AA4  EF56  F005         	goto	u8901
  5543  000AA8  EF58  F005         	goto	u8900
  5544  000AAC                     u8901:
  5545  000AAC  EFC7  F005         	goto	l571
  5546  000AB0                     u8900:
  5547                           	line	667
  5548                           ;main.c: 667: wallMap[mouseY][mouseX] *= 5;
  5549  000AB0  0E05               	movlw	low(05h)
  5550  000AB2  0109               	movlb	9	; () banked
  5551  000AB4  0109               	movlb	9	; () banked
  5552  000AB6  6F3C               	movwf	(0+(?___wmul+02h))&0ffh
  5553  000AB8  0E00               	movlw	high(05h)
  5554  000ABA  0109               	movlb	9	; () banked
  5555  000ABC  6F3D               	movwf	(1+(?___wmul+02h))&0ffh
  5556  000ABE  90D8               	bcf	status,0
  5557  000AC0  0108               	movlb	8	; () banked
  5558  000AC2  0108               	movlb	8	; () banked
  5559  000AC4  3502               	rlcf	((2050))&0ffh,w
  5560  000AC6  0109               	movlb	9	; () banked
  5561  000AC8  6F2A               	movwf	(??_CheckWalls+0+0)&0ffh
  5562  000ACA  0108               	movlb	8	; () banked
  5563  000ACC  0108               	movlb	8	; () banked
  5564  000ACE  3503               	rlcf	((2050+1))&0ffh,w
  5565  000AD0  0109               	movlb	9	; () banked
  5566  000AD2  6F2B               	movwf	1+(??_CheckWalls+0+0)&0ffh
  5567  000AD4  0108               	movlb	8	; () banked
  5568  000AD6  C800 F92C          	movff	(2048),??_CheckWalls+2+0
  5569  000ADA  0108               	movlb	8	; () banked
  5570  000ADC  C801 F92D          	movff	(2048+1),??_CheckWalls+2+0+1
  5571  000AE0  0E05               	movlw	05h
  5572  000AE2                     u8915:
  5573  000AE2  90D8               	bcf	status,0
  5574  000AE4  0109               	movlb	9	; () banked
  5575  000AE6  372C               	rlcf	(??_CheckWalls+2+0)&0ffh
  5576  000AE8  372D               	rlcf	(??_CheckWalls+2+1)&0ffh
  5577  000AEA  2EE8               	decfsz	wreg
  5578  000AEC  EF71  F005         	goto	u8915
  5579  000AF0  0E00               	movlw	low(0)
  5580  000AF2  0109               	movlb	9	; () banked
  5581  000AF4  252C               	addwf	(??_CheckWalls+2+0)&0ffh,w
  5582  000AF6  0109               	movlb	9	; () banked
  5583  000AF8  6F2E               	movwf	(??_CheckWalls+4+0)&0ffh
  5584  000AFA  0E00               	movlw	high(0)
  5585  000AFC  0109               	movlb	9	; () banked
  5586  000AFE  212D               	addwfc	(??_CheckWalls+2+1)&0ffh,w
  5587  000B00  0109               	movlb	9	; () banked
  5588  000B02  6F2F               	movwf	1+(??_CheckWalls+4+0)&0ffh
  5589  000B04  0109               	movlb	9	; () banked
  5590  000B06  512A               	movf	(??_CheckWalls+0+0)&0ffh,w
  5591  000B08  0109               	movlb	9	; () banked
  5592  000B0A  252E               	addwf	(??_CheckWalls+4+0)&0ffh,w
  5593  000B0C  6EE9               	movwf	c:fsr0l
  5594  000B0E  0109               	movlb	9	; () banked
  5595  000B10  512B               	movf	(??_CheckWalls+0+1)&0ffh,w
  5596  000B12  0109               	movlb	9	; () banked
  5597  000B14  212F               	addwfc	(??_CheckWalls+4+1)&0ffh,w
  5598  000B16  6EEA               	movwf	1+c:fsr0l
  5599  000B18  0109               	movlb	9	; () banked
  5600  000B1A  CFEE F93A          	movff	postinc0,(?___wmul)
  5601  000B1E  0109               	movlb	9	; () banked
  5602  000B20  CFED F93B          	movff	postdec0,(?___wmul+1)
  5603  000B24  ECDA  F02E         	call	___wmul	;wreg free
  5604  000B28  90D8               	bcf	status,0
  5605  000B2A  0108               	movlb	8	; () banked
  5606  000B2C  0108               	movlb	8	; () banked
  5607  000B2E  3502               	rlcf	((2050))&0ffh,w
  5608  000B30  0109               	movlb	9	; () banked
  5609  000B32  6F30               	movwf	(??_CheckWalls+6+0)&0ffh
  5610  000B34  0108               	movlb	8	; () banked
  5611  000B36  0108               	movlb	8	; () banked
  5612  000B38  3503               	rlcf	((2050+1))&0ffh,w
  5613  000B3A  0109               	movlb	9	; () banked
  5614  000B3C  6F31               	movwf	1+(??_CheckWalls+6+0)&0ffh
  5615  000B3E  0108               	movlb	8	; () banked
  5616  000B40  C800 F932          	movff	(2048),??_CheckWalls+8+0
  5617  000B44  0108               	movlb	8	; () banked
  5618  000B46  C801 F933          	movff	(2048+1),??_CheckWalls+8+0+1
  5619  000B4A  0E05               	movlw	05h
  5620  000B4C                     u8925:
  5621  000B4C  90D8               	bcf	status,0
  5622  000B4E  0109               	movlb	9	; () banked
  5623  000B50  3732               	rlcf	(??_CheckWalls+8+0)&0ffh
  5624  000B52  3733               	rlcf	(??_CheckWalls+8+1)&0ffh
  5625  000B54  2EE8               	decfsz	wreg
  5626  000B56  EFA6  F005         	goto	u8925
  5627  000B5A  0E00               	movlw	low(0)
  5628  000B5C  0109               	movlb	9	; () banked
  5629  000B5E  2532               	addwf	(??_CheckWalls+8+0)&0ffh,w
  5630  000B60  0109               	movlb	9	; () banked
  5631  000B62  6F34               	movwf	(??_CheckWalls+10+0)&0ffh
  5632  000B64  0E00               	movlw	high(0)
  5633  000B66  0109               	movlb	9	; () banked
  5634  000B68  2133               	addwfc	(??_CheckWalls+8+1)&0ffh,w
  5635  000B6A  0109               	movlb	9	; () banked
  5636  000B6C  6F35               	movwf	1+(??_CheckWalls+10+0)&0ffh
  5637  000B6E  0109               	movlb	9	; () banked
  5638  000B70  5130               	movf	(??_CheckWalls+6+0)&0ffh,w
  5639  000B72  0109               	movlb	9	; () banked
  5640  000B74  2534               	addwf	(??_CheckWalls+10+0)&0ffh,w
  5641  000B76  6EE9               	movwf	c:fsr0l
  5642  000B78  0109               	movlb	9	; () banked
  5643  000B7A  5131               	movf	(??_CheckWalls+6+1)&0ffh,w
  5644  000B7C  0109               	movlb	9	; () banked
  5645  000B7E  2135               	addwfc	(??_CheckWalls+10+1)&0ffh,w
  5646  000B80  6EEA               	movwf	1+c:fsr0l
  5647  000B82  0109               	movlb	9	; () banked
  5648  000B84  C93A  FFEE         	movff	0+?___wmul,postinc0
  5649  000B88  0109               	movlb	9	; () banked
  5650  000B8A  C93B  FFED         	movff	1+?___wmul,postdec0
  5651                           
  5652                           	
  5653  000B8E                     l571:		; BSR set to: ?
  5654                           
  5655                           	line	669
  5656                           ;main.c: 669: if((mouseX + 1 < 16) && (wallMap[m
                                 ouseY][mouseX+1] % 13 != 0))
  5657  000B8E  0E01               	movlw	01h
  5658  000B90  0108               	movlb	8	; () banked
  5659  000B92  0108               	movlb	8	; () banked
  5660  000B94  2502               	addwf	((2050))&0ffh,w
  5661  000B96  0109               	movlb	9	; () banked
  5662  000B98  6F2A               	movwf	(??_CheckWalls+0+0)&0ffh
  5663  000B9A  0E00               	movlw	0
  5664  000B9C  0108               	movlb	8	; () banked
  5665  000B9E  0108               	movlb	8	; () banked
  5666  000BA0  2103               	addwfc	((2050+1))&0ffh,w
  5667  000BA2  0109               	movlb	9	; () banked
  5668  000BA4  6F2B               	movwf	(??_CheckWalls+0+0+1)&0ffh
  5669  000BA6  0109               	movlb	9	; () banked
  5670  000BA8  512B               	movf	(??_CheckWalls+0+1)&0ffh,w
  5671  000BAA  0A80               	xorlw	80h
  5672  000BAC  0F80               	addlw	-((0)^80h)
  5673  000BAE  0E10               	movlw	010h
  5674  000BB0  B4D8               	btfsc	status,2
  5675  000BB2  5D2A               	subwf	(??_CheckWalls+0+0)&0ffh,w
  5676  000BB4  B0D8               	btfsc	status,0
  5677  000BB6  EFDF  F005         	goto	u8931
  5678  000BBA  EFE1  F005         	goto	u8930
  5679  000BBE                     u8931:
  5680  000BBE  EFA5  F006         	goto	l570
  5681  000BC2                     u8930:
  5682  000BC2  0E0D               	movlw	low(0Dh)
  5683  000BC4  0109               	movlb	9	; () banked
  5684  000BC6  0109               	movlb	9	; () banked
  5685  000BC8  6F54               	movwf	(0+(?___awmod+02h))&0ffh
  5686  000BCA  0E00               	movlw	high(0Dh)
  5687  000BCC  0109               	movlb	9	; () banked
  5688  000BCE  6F55               	movwf	(1+(?___awmod+02h))&0ffh
  5689  000BD0  0108               	movlb	8	; () banked
  5690  000BD2  C800 F92A          	movff	(2048),??_CheckWalls+0+0
  5691  000BD6  0108               	movlb	8	; () banked
  5692  000BD8  C801 F92B          	movff	(2048+1),??_CheckWalls+0+0+1
  5693  000BDC  0E05               	movlw	05h
  5694  000BDE                     u8945:
  5695  000BDE  90D8               	bcf	status,0
  5696  000BE0  0109               	movlb	9	; () banked
  5697  000BE2  372A               	rlcf	(??_CheckWalls+0+0)&0ffh
  5698  000BE4  372B               	rlcf	(??_CheckWalls+0+1)&0ffh
  5699  000BE6  2EE8               	decfsz	wreg
  5700  000BE8  EFEF  F005         	goto	u8945
  5701  000BEC  90D8               	bcf	status,0
  5702  000BEE  0108               	movlb	8	; () banked
  5703  000BF0  0108               	movlb	8	; () banked
  5704  000BF2  3502               	rlcf	((2050))&0ffh,w
  5705  000BF4  0109               	movlb	9	; () banked
  5706  000BF6  6F2C               	movwf	(??_CheckWalls+2+0)&0ffh
  5707  000BF8  0108               	movlb	8	; () banked
  5708  000BFA  0108               	movlb	8	; () banked
  5709  000BFC  3503               	rlcf	((2050+1))&0ffh,w
  5710  000BFE  0109               	movlb	9	; () banked
  5711  000C00  6F2D               	movwf	1+(??_CheckWalls+2+0)&0ffh
  5712  000C02  0E02               	movlw	02h
  5713  000C04  0109               	movlb	9	; () banked
  5714  000C06  272C               	addwf	(??_CheckWalls+2+0)&0ffh
  5715  000C08  0E00               	movlw	0
  5716  000C0A  232D               	addwfc	(??_CheckWalls+2+1)&0ffh
  5717  000C0C  0E00               	movlw	low(0)
  5718  000C0E  0109               	movlb	9	; () banked
  5719  000C10  252C               	addwf	(??_CheckWalls+2+0)&0ffh,w
  5720  000C12  0109               	movlb	9	; () banked
  5721  000C14  6F2E               	movwf	(??_CheckWalls+4+0)&0ffh
  5722  000C16  0E00               	movlw	high(0)
  5723  000C18  0109               	movlb	9	; () banked
  5724  000C1A  212D               	addwfc	(??_CheckWalls+2+1)&0ffh,w
  5725  000C1C  0109               	movlb	9	; () banked
  5726  000C1E  6F2F               	movwf	1+(??_CheckWalls+4+0)&0ffh
  5727  000C20  0109               	movlb	9	; () banked
  5728  000C22  512A               	movf	(??_CheckWalls+0+0)&0ffh,w
  5729  000C24  0109               	movlb	9	; () banked
  5730  000C26  252E               	addwf	(??_CheckWalls+4+0)&0ffh,w
  5731  000C28  6EE9               	movwf	c:fsr0l
  5732  000C2A  0109               	movlb	9	; () banked
  5733  000C2C  512B               	movf	(??_CheckWalls+0+1)&0ffh,w
  5734  000C2E  0109               	movlb	9	; () banked
  5735  000C30  212F               	addwfc	(??_CheckWalls+4+1)&0ffh,w
  5736  000C32  6EEA               	movwf	1+c:fsr0l
  5737  000C34  0109               	movlb	9	; () banked
  5738  000C36  CFEE F952          	movff	postinc0,(?___awmod)
  5739  000C3A  0109               	movlb	9	; () banked
  5740  000C3C  CFED F953          	movff	postdec0,(?___awmod+1)
  5741  000C40  EC94  F02D         	call	___awmod	;wreg free
  5742  000C44  0109               	movlb	9	; () banked
  5743  000C46  5153               	movf	(1+?___awmod)&0ffh,w
  5744  000C48  1152               	iorwf (0+?___awmod)&0ffh,w
  5745                           
  5746  000C4A  B4D8               	btfsc	status,2
  5747  000C4C  EF2A  F006         	goto	u8951
  5748  000C50  EF2C  F006         	goto	u8950
  5749  000C54                     u8951:
  5750  000C54  EFA5  F006         	goto	l570
  5751  000C58                     u8950:
  5752                           	line	670
  5753                           ;main.c: 670: wallMap[mouseY][mouseX+1] *= 13;
  5754  000C58  0E0D               	movlw	low(0Dh)
  5755  000C5A  0109               	movlb	9	; () banked
  5756  000C5C  0109               	movlb	9	; () banked
  5757  000C5E  6F3C               	movwf	(0+(?___wmul+02h))&0ffh
  5758  000C60  0E00               	movlw	high(0Dh)
  5759  000C62  0109               	movlb	9	; () banked
  5760  000C64  6F3D               	movwf	(1+(?___wmul+02h))&0ffh
  5761  000C66  0108               	movlb	8	; () banked
  5762  000C68  C800 F92A          	movff	(2048),??_CheckWalls+0+0
  5763  000C6C  0108               	movlb	8	; () banked
  5764  000C6E  C801 F92B          	movff	(2048+1),??_CheckWalls+0+0+1
  5765  000C72  0E05               	movlw	05h
  5766  000C74                     u8965:
  5767  000C74  90D8               	bcf	status,0
  5768  000C76  0109               	movlb	9	; () banked
  5769  000C78  372A               	rlcf	(??_CheckWalls+0+0)&0ffh
  5770  000C7A  372B               	rlcf	(??_CheckWalls+0+1)&0ffh
  5771  000C7C  2EE8               	decfsz	wreg
  5772  000C7E  EF3A  F006         	goto	u8965
  5773  000C82  90D8               	bcf	status,0
  5774  000C84  0108               	movlb	8	; () banked
  5775  000C86  0108               	movlb	8	; () banked
  5776  000C88  3502               	rlcf	((2050))&0ffh,w
  5777  000C8A  0109               	movlb	9	; () banked
  5778  000C8C  6F2C               	movwf	(??_CheckWalls+2+0)&0ffh
  5779  000C8E  0108               	movlb	8	; () banked
  5780  000C90  0108               	movlb	8	; () banked
  5781  000C92  3503               	rlcf	((2050+1))&0ffh,w
  5782  000C94  0109               	movlb	9	; () banked
  5783  000C96  6F2D               	movwf	1+(??_CheckWalls+2+0)&0ffh
  5784  000C98  0E02               	movlw	02h
  5785  000C9A  0109               	movlb	9	; () banked
  5786  000C9C  272C               	addwf	(??_CheckWalls+2+0)&0ffh
  5787  000C9E  0E00               	movlw	0
  5788  000CA0  232D               	addwfc	(??_CheckWalls+2+1)&0ffh
  5789  000CA2  0E00               	movlw	low(0)
  5790  000CA4  0109               	movlb	9	; () banked
  5791  000CA6  252C               	addwf	(??_CheckWalls+2+0)&0ffh,w
  5792  000CA8  0109               	movlb	9	; () banked
  5793  000CAA  6F2E               	movwf	(??_CheckWalls+4+0)&0ffh
  5794  000CAC  0E00               	movlw	high(0)
  5795  000CAE  0109               	movlb	9	; () banked
  5796  000CB0  212D               	addwfc	(??_CheckWalls+2+1)&0ffh,w
  5797  000CB2  0109               	movlb	9	; () banked
  5798  000CB4  6F2F               	movwf	1+(??_CheckWalls+4+0)&0ffh
  5799  000CB6  0109               	movlb	9	; () banked
  5800  000CB8  512A               	movf	(??_CheckWalls+0+0)&0ffh,w
  5801  000CBA  0109               	movlb	9	; () banked
  5802  000CBC  252E               	addwf	(??_CheckWalls+4+0)&0ffh,w
  5803  000CBE  6EE9               	movwf	c:fsr0l
  5804  000CC0  0109               	movlb	9	; () banked
  5805  000CC2  512B               	movf	(??_CheckWalls+0+1)&0ffh,w
  5806  000CC4  0109               	movlb	9	; () banked
  5807  000CC6  212F               	addwfc	(??_CheckWalls+4+1)&0ffh,w
  5808  000CC8  6EEA               	movwf	1+c:fsr0l
  5809  000CCA  0109               	movlb	9	; () banked
  5810  000CCC  CFEE F93A          	movff	postinc0,(?___wmul)
  5811  000CD0  0109               	movlb	9	; () banked
  5812  000CD2  CFED F93B          	movff	postdec0,(?___wmul+1)
  5813  000CD6  ECDA  F02E         	call	___wmul	;wreg free
  5814  000CDA  0108               	movlb	8	; () banked
  5815  000CDC  C800 F930          	movff	(2048),??_CheckWalls+6+0
  5816  000CE0  0108               	movlb	8	; () banked
  5817  000CE2  C801 F931          	movff	(2048+1),??_CheckWalls+6+0+1
  5818  000CE6  0E05               	movlw	05h
  5819  000CE8                     u8975:
  5820  000CE8  90D8               	bcf	status,0
  5821  000CEA  0109               	movlb	9	; () banked
  5822  000CEC  3730               	rlcf	(??_CheckWalls+6+0)&0ffh
  5823  000CEE  3731               	rlcf	(??_CheckWalls+6+1)&0ffh
  5824  000CF0  2EE8               	decfsz	wreg
  5825  000CF2  EF74  F006         	goto	u8975
  5826  000CF6  90D8               	bcf	status,0
  5827  000CF8  0108               	movlb	8	; () banked
  5828  000CFA  0108               	movlb	8	; () banked
  5829  000CFC  3502               	rlcf	((2050))&0ffh,w
  5830  000CFE  0109               	movlb	9	; () banked
  5831  000D00  6F32               	movwf	(??_CheckWalls+8+0)&0ffh
  5832  000D02  0108               	movlb	8	; () banked
  5833  000D04  0108               	movlb	8	; () banked
  5834  000D06  3503               	rlcf	((2050+1))&0ffh,w
  5835  000D08  0109               	movlb	9	; () banked
  5836  000D0A  6F33               	movwf	1+(??_CheckWalls+8+0)&0ffh
  5837  000D0C  0E02               	movlw	02h
  5838  000D0E  0109               	movlb	9	; () banked
  5839  000D10  2732               	addwf	(??_CheckWalls+8+0)&0ffh
  5840  000D12  0E00               	movlw	0
  5841  000D14  2333               	addwfc	(??_CheckWalls+8+1)&0ffh
  5842  000D16  0E00               	movlw	low(0)
  5843  000D18  0109               	movlb	9	; () banked
  5844  000D1A  2532               	addwf	(??_CheckWalls+8+0)&0ffh,w
  5845  000D1C  0109               	movlb	9	; () banked
  5846  000D1E  6F34               	movwf	(??_CheckWalls+10+0)&0ffh
  5847  000D20  0E00               	movlw	high(0)
  5848  000D22  0109               	movlb	9	; () banked
  5849  000D24  2133               	addwfc	(??_CheckWalls+8+1)&0ffh,w
  5850  000D26  0109               	movlb	9	; () banked
  5851  000D28  6F35               	movwf	1+(??_CheckWalls+10+0)&0ffh
  5852  000D2A  0109               	movlb	9	; () banked
  5853  000D2C  5130               	movf	(??_CheckWalls+6+0)&0ffh,w
  5854  000D2E  0109               	movlb	9	; () banked
  5855  000D30  2534               	addwf	(??_CheckWalls+10+0)&0ffh,w
  5856  000D32  6EE9               	movwf	c:fsr0l
  5857  000D34  0109               	movlb	9	; () banked
  5858  000D36  5131               	movf	(??_CheckWalls+6+1)&0ffh,w
  5859  000D38  0109               	movlb	9	; () banked
  5860  000D3A  2135               	addwfc	(??_CheckWalls+10+1)&0ffh,w
  5861  000D3C  6EEA               	movwf	1+c:fsr0l
  5862  000D3E  0109               	movlb	9	; () banked
  5863  000D40  C93A  FFEE         	movff	0+?___wmul,postinc0
  5864  000D44  0109               	movlb	9	; () banked
  5865  000D46  C93B  FFED         	movff	1+?___wmul,postdec0
  5866                           
  5867                           	
  5868  000D4A                     l572:		; BSR set to: ?
  5869                           
  5870                           	line	671
  5871                           	
  5872  000D4A                     l570:		; BSR set to: ?
  5873                           
  5874                           	line	673
  5875                           ;main.c: 671: }
  5876                           ;main.c: 673: if(RB4 == 0){
  5877  000D4A  B881               	btfsc	c:(31756/8),(31756)&7	;volatile
  5878  000D4C  EFAA  F006         	goto	u8981
  5879  000D50  EFAC  F006         	goto	u8980
  5880  000D54                     u8981:
  5881  000D54  EF3F  F008         	goto	l573
  5882  000D58                     u8980:
  5883                           	line	674
  5884                           ;main.c: 674: if(wallMap[mouseY][mouseX] % 7 != 
                                 0);
  5885  000D58  0E07               	movlw	low(07h)
  5886  000D5A  0109               	movlb	9	; () banked
  5887  000D5C  0109               	movlb	9	; () banked
  5888  000D5E  6F54               	movwf	(0+(?___awmod+02h))&0ffh
  5889  000D60  0E00               	movlw	high(07h)
  5890  000D62  0109               	movlb	9	; () banked
  5891  000D64  6F55               	movwf	(1+(?___awmod+02h))&0ffh
  5892  000D66  90D8               	bcf	status,0
  5893  000D68  0108               	movlb	8	; () banked
  5894  000D6A  0108               	movlb	8	; () banked
  5895  000D6C  3502               	rlcf	((2050))&0ffh,w
  5896  000D6E  0109               	movlb	9	; () banked
  5897  000D70  6F2A               	movwf	(??_CheckWalls+0+0)&0ffh
  5898  000D72  0108               	movlb	8	; () banked
  5899  000D74  0108               	movlb	8	; () banked
  5900  000D76  3503               	rlcf	((2050+1))&0ffh,w
  5901  000D78  0109               	movlb	9	; () banked
  5902  000D7A  6F2B               	movwf	1+(??_CheckWalls+0+0)&0ffh
  5903  000D7C  0108               	movlb	8	; () banked
  5904  000D7E  C800 F92C          	movff	(2048),??_CheckWalls+2+0
  5905  000D82  0108               	movlb	8	; () banked
  5906  000D84  C801 F92D          	movff	(2048+1),??_CheckWalls+2+0+1
  5907  000D88  0E05               	movlw	05h
  5908  000D8A                     u8995:
  5909  000D8A  90D8               	bcf	status,0
  5910  000D8C  0109               	movlb	9	; () banked
  5911  000D8E  372C               	rlcf	(??_CheckWalls+2+0)&0ffh
  5912  000D90  372D               	rlcf	(??_CheckWalls+2+1)&0ffh
  5913  000D92  2EE8               	decfsz	wreg
  5914  000D94  EFC5  F006         	goto	u8995
  5915  000D98  0E00               	movlw	low(0)
  5916  000D9A  0109               	movlb	9	; () banked
  5917  000D9C  252C               	addwf	(??_CheckWalls+2+0)&0ffh,w
  5918  000D9E  0109               	movlb	9	; () banked
  5919  000DA0  6F2E               	movwf	(??_CheckWalls+4+0)&0ffh
  5920  000DA2  0E00               	movlw	high(0)
  5921  000DA4  0109               	movlb	9	; () banked
  5922  000DA6  212D               	addwfc	(??_CheckWalls+2+1)&0ffh,w
  5923  000DA8  0109               	movlb	9	; () banked
  5924  000DAA  6F2F               	movwf	1+(??_CheckWalls+4+0)&0ffh
  5925  000DAC  0109               	movlb	9	; () banked
  5926  000DAE  512A               	movf	(??_CheckWalls+0+0)&0ffh,w
  5927  000DB0  0109               	movlb	9	; () banked
  5928  000DB2  252E               	addwf	(??_CheckWalls+4+0)&0ffh,w
  5929  000DB4  6EE9               	movwf	c:fsr0l
  5930  000DB6  0109               	movlb	9	; () banked
  5931  000DB8  512B               	movf	(??_CheckWalls+0+1)&0ffh,w
  5932  000DBA  0109               	movlb	9	; () banked
  5933  000DBC  212F               	addwfc	(??_CheckWalls+4+1)&0ffh,w
  5934  000DBE  6EEA               	movwf	1+c:fsr0l
  5935  000DC0  0109               	movlb	9	; () banked
  5936  000DC2  CFEE F952          	movff	postinc0,(?___awmod)
  5937  000DC6  0109               	movlb	9	; () banked
  5938  000DC8  CFED F953          	movff	postdec0,(?___awmod+1)
  5939  000DCC  EC94  F02D         	call	___awmod	;wreg free
  5940  000DD0  0109               	movlb	9	; () banked
  5941  000DD2  5153               	movf	(1+?___awmod)&0ffh,w
  5942  000DD4  1152               	iorwf (0+?___awmod)&0ffh,w
  5943                           
  5944  000DD6  B4D8               	btfsc	status,2
  5945  000DD8  EFF0  F006         	goto	u9001
  5946  000DDC  EFF2  F006         	goto	u9000
  5947  000DE0                     u9001:
  5948  000DE0  EFF2  F006         	goto	l574
  5949  000DE4                     u9000:
  5950                           	
  5951  000DE4                     l574:		; BSR set to: ?
  5952                           
  5953                           	line	675
  5954                           ;main.c: 675: wallMap[mouseY][mouseX] *= 7;
  5955  000DE4  0E07               	movlw	low(07h)
  5956  000DE6  0109               	movlb	9	; () banked
  5957  000DE8  0109               	movlb	9	; () banked
  5958  000DEA  6F3C               	movwf	(0+(?___wmul+02h))&0ffh
  5959  000DEC  0E00               	movlw	high(07h)
  5960  000DEE  0109               	movlb	9	; () banked
  5961  000DF0  6F3D               	movwf	(1+(?___wmul+02h))&0ffh
  5962  000DF2  90D8               	bcf	status,0
  5963  000DF4  0108               	movlb	8	; () banked
  5964  000DF6  0108               	movlb	8	; () banked
  5965  000DF8  3502               	rlcf	((2050))&0ffh,w
  5966  000DFA  0109               	movlb	9	; () banked
  5967  000DFC  6F2A               	movwf	(??_CheckWalls+0+0)&0ffh
  5968  000DFE  0108               	movlb	8	; () banked
  5969  000E00  0108               	movlb	8	; () banked
  5970  000E02  3503               	rlcf	((2050+1))&0ffh,w
  5971  000E04  0109               	movlb	9	; () banked
  5972  000E06  6F2B               	movwf	1+(??_CheckWalls+0+0)&0ffh
  5973  000E08  0108               	movlb	8	; () banked
  5974  000E0A  C800 F92C          	movff	(2048),??_CheckWalls+2+0
  5975  000E0E  0108               	movlb	8	; () banked
  5976  000E10  C801 F92D          	movff	(2048+1),??_CheckWalls+2+0+1
  5977  000E14  0E05               	movlw	05h
  5978  000E16                     u9015:
  5979  000E16  90D8               	bcf	status,0
  5980  000E18  0109               	movlb	9	; () banked
  5981  000E1A  372C               	rlcf	(??_CheckWalls+2+0)&0ffh
  5982  000E1C  372D               	rlcf	(??_CheckWalls+2+1)&0ffh
  5983  000E1E  2EE8               	decfsz	wreg
  5984  000E20  EF0B  F007         	goto	u9015
  5985  000E24  0E00               	movlw	low(0)
  5986  000E26  0109               	movlb	9	; () banked
  5987  000E28  252C               	addwf	(??_CheckWalls+2+0)&0ffh,w
  5988  000E2A  0109               	movlb	9	; () banked
  5989  000E2C  6F2E               	movwf	(??_CheckWalls+4+0)&0ffh
  5990  000E2E  0E00               	movlw	high(0)
  5991  000E30  0109               	movlb	9	; () banked
  5992  000E32  212D               	addwfc	(??_CheckWalls+2+1)&0ffh,w
  5993  000E34  0109               	movlb	9	; () banked
  5994  000E36  6F2F               	movwf	1+(??_CheckWalls+4+0)&0ffh
  5995  000E38  0109               	movlb	9	; () banked
  5996  000E3A  512A               	movf	(??_CheckWalls+0+0)&0ffh,w
  5997  000E3C  0109               	movlb	9	; () banked
  5998  000E3E  252E               	addwf	(??_CheckWalls+4+0)&0ffh,w
  5999  000E40  6EE9               	movwf	c:fsr0l
  6000  000E42  0109               	movlb	9	; () banked
  6001  000E44  512B               	movf	(??_CheckWalls+0+1)&0ffh,w
  6002  000E46  0109               	movlb	9	; () banked
  6003  000E48  212F               	addwfc	(??_CheckWalls+4+1)&0ffh,w
  6004  000E4A  6EEA               	movwf	1+c:fsr0l
  6005  000E4C  0109               	movlb	9	; () banked
  6006  000E4E  CFEE F93A          	movff	postinc0,(?___wmul)
  6007  000E52  0109               	movlb	9	; () banked
  6008  000E54  CFED F93B          	movff	postdec0,(?___wmul+1)
  6009  000E58  ECDA  F02E         	call	___wmul	;wreg free
  6010  000E5C  90D8               	bcf	status,0
  6011  000E5E  0108               	movlb	8	; () banked
  6012  000E60  0108               	movlb	8	; () banked
  6013  000E62  3502               	rlcf	((2050))&0ffh,w
  6014  000E64  0109               	movlb	9	; () banked
  6015  000E66  6F30               	movwf	(??_CheckWalls+6+0)&0ffh
  6016  000E68  0108               	movlb	8	; () banked
  6017  000E6A  0108               	movlb	8	; () banked
  6018  000E6C  3503               	rlcf	((2050+1))&0ffh,w
  6019  000E6E  0109               	movlb	9	; () banked
  6020  000E70  6F31               	movwf	1+(??_CheckWalls+6+0)&0ffh
  6021  000E72  0108               	movlb	8	; () banked
  6022  000E74  C800 F932          	movff	(2048),??_CheckWalls+8+0
  6023  000E78  0108               	movlb	8	; () banked
  6024  000E7A  C801 F933          	movff	(2048+1),??_CheckWalls+8+0+1
  6025  000E7E  0E05               	movlw	05h
  6026  000E80                     u9025:
  6027  000E80  90D8               	bcf	status,0
  6028  000E82  0109               	movlb	9	; () banked
  6029  000E84  3732               	rlcf	(??_CheckWalls+8+0)&0ffh
  6030  000E86  3733               	rlcf	(??_CheckWalls+8+1)&0ffh
  6031  000E88  2EE8               	decfsz	wreg
  6032  000E8A  EF40  F007         	goto	u9025
  6033  000E8E  0E00               	movlw	low(0)
  6034  000E90  0109               	movlb	9	; () banked
  6035  000E92  2532               	addwf	(??_CheckWalls+8+0)&0ffh,w
  6036  000E94  0109               	movlb	9	; () banked
  6037  000E96  6F34               	movwf	(??_CheckWalls+10+0)&0ffh
  6038  000E98  0E00               	movlw	high(0)
  6039  000E9A  0109               	movlb	9	; () banked
  6040  000E9C  2133               	addwfc	(??_CheckWalls+8+1)&0ffh,w
  6041  000E9E  0109               	movlb	9	; () banked
  6042  000EA0  6F35               	movwf	1+(??_CheckWalls+10+0)&0ffh
  6043  000EA2  0109               	movlb	9	; () banked
  6044  000EA4  5130               	movf	(??_CheckWalls+6+0)&0ffh,w
  6045  000EA6  0109               	movlb	9	; () banked
  6046  000EA8  2534               	addwf	(??_CheckWalls+10+0)&0ffh,w
  6047  000EAA  6EE9               	movwf	c:fsr0l
  6048  000EAC  0109               	movlb	9	; () banked
  6049  000EAE  5131               	movf	(??_CheckWalls+6+1)&0ffh,w
  6050  000EB0  0109               	movlb	9	; () banked
  6051  000EB2  2135               	addwfc	(??_CheckWalls+10+1)&0ffh,w
  6052  000EB4  6EEA               	movwf	1+c:fsr0l
  6053  000EB6  0109               	movlb	9	; () banked
  6054  000EB8  C93A  FFEE         	movff	0+?___wmul,postinc0
  6055  000EBC  0109               	movlb	9	; () banked
  6056  000EBE  C93B  FFED         	movff	1+?___wmul,postdec0
  6057                           
  6058                           	line	677
  6059                           ;main.c: 677: if((mouseY + 1 < 16) && (wallMap[m
                                 ouseY+1][mouseX] % 3 != 0))
  6060  000EC2  0E01               	movlw	01h
  6061  000EC4  0108               	movlb	8	; () banked
  6062  000EC6  0108               	movlb	8	; () banked
  6063  000EC8  2500               	addwf	((2048))&0ffh,w
  6064  000ECA  0109               	movlb	9	; () banked
  6065  000ECC  6F2A               	movwf	(??_CheckWalls+0+0)&0ffh
  6066  000ECE  0E00               	movlw	0
  6067  000ED0  0108               	movlb	8	; () banked
  6068  000ED2  0108               	movlb	8	; () banked
  6069  000ED4  2101               	addwfc	((2048+1))&0ffh,w
  6070  000ED6  0109               	movlb	9	; () banked
  6071  000ED8  6F2B               	movwf	(??_CheckWalls+0+0+1)&0ffh
  6072  000EDA  0109               	movlb	9	; () banked
  6073  000EDC  512B               	movf	(??_CheckWalls+0+1)&0ffh,w
  6074  000EDE  0A80               	xorlw	80h
  6075  000EE0  0F80               	addlw	-((0)^80h)
  6076  000EE2  0E10               	movlw	010h
  6077  000EE4  B4D8               	btfsc	status,2
  6078  000EE6  5D2A               	subwf	(??_CheckWalls+0+0)&0ffh,w
  6079  000EE8  B0D8               	btfsc	status,0
  6080  000EEA  EF79  F007         	goto	u9031
  6081  000EEE  EF7B  F007         	goto	u9030
  6082  000EF2                     u9031:
  6083  000EF2  EF3F  F008         	goto	l573
  6084  000EF6                     u9030:
  6085  000EF6  0E03               	movlw	low(03h)
  6086  000EF8  0109               	movlb	9	; () banked
  6087  000EFA  0109               	movlb	9	; () banked
  6088  000EFC  6F54               	movwf	(0+(?___awmod+02h))&0ffh
  6089  000EFE  0E00               	movlw	high(03h)
  6090  000F00  0109               	movlb	9	; () banked
  6091  000F02  6F55               	movwf	(1+(?___awmod+02h))&0ffh
  6092  000F04  90D8               	bcf	status,0
  6093  000F06  0108               	movlb	8	; () banked
  6094  000F08  0108               	movlb	8	; () banked
  6095  000F0A  3502               	rlcf	((2050))&0ffh,w
  6096  000F0C  0109               	movlb	9	; () banked
  6097  000F0E  6F2A               	movwf	(??_CheckWalls+0+0)&0ffh
  6098  000F10  0108               	movlb	8	; () banked
  6099  000F12  0108               	movlb	8	; () banked
  6100  000F14  3503               	rlcf	((2050+1))&0ffh,w
  6101  000F16  0109               	movlb	9	; () banked
  6102  000F18  6F2B               	movwf	1+(??_CheckWalls+0+0)&0ffh
  6103  000F1A  0108               	movlb	8	; () banked
  6104  000F1C  C800 F92C          	movff	(2048),??_CheckWalls+2+0
  6105  000F20  0108               	movlb	8	; () banked
  6106  000F22  C801 F92D          	movff	(2048+1),??_CheckWalls+2+0+1
  6107  000F26  0E05               	movlw	05h
  6108  000F28                     u9045:
  6109  000F28  90D8               	bcf	status,0
  6110  000F2A  0109               	movlb	9	; () banked
  6111  000F2C  372C               	rlcf	(??_CheckWalls+2+0)&0ffh
  6112  000F2E  372D               	rlcf	(??_CheckWalls+2+1)&0ffh
  6113  000F30  2EE8               	decfsz	wreg
  6114  000F32  EF94  F007         	goto	u9045
  6115  000F36  0E20               	movlw	020h
  6116  000F38  0109               	movlb	9	; () banked
  6117  000F3A  272C               	addwf	(??_CheckWalls+2+0)&0ffh
  6118  000F3C  0E00               	movlw	0
  6119  000F3E  232D               	addwfc	(??_CheckWalls+2+1)&0ffh
  6120  000F40  0E00               	movlw	low(0)
  6121  000F42  0109               	movlb	9	; () banked
  6122  000F44  252C               	addwf	(??_CheckWalls+2+0)&0ffh,w
  6123  000F46  0109               	movlb	9	; () banked
  6124  000F48  6F2E               	movwf	(??_CheckWalls+4+0)&0ffh
  6125  000F4A  0E00               	movlw	high(0)
  6126  000F4C  0109               	movlb	9	; () banked
  6127  000F4E  212D               	addwfc	(??_CheckWalls+2+1)&0ffh,w
  6128  000F50  0109               	movlb	9	; () banked
  6129  000F52  6F2F               	movwf	1+(??_CheckWalls+4+0)&0ffh
  6130  000F54  0109               	movlb	9	; () banked
  6131  000F56  512A               	movf	(??_CheckWalls+0+0)&0ffh,w
  6132  000F58  0109               	movlb	9	; () banked
  6133  000F5A  252E               	addwf	(??_CheckWalls+4+0)&0ffh,w
  6134  000F5C  6EE9               	movwf	c:fsr0l
  6135  000F5E  0109               	movlb	9	; () banked
  6136  000F60  512B               	movf	(??_CheckWalls+0+1)&0ffh,w
  6137  000F62  0109               	movlb	9	; () banked
  6138  000F64  212F               	addwfc	(??_CheckWalls+4+1)&0ffh,w
  6139  000F66  6EEA               	movwf	1+c:fsr0l
  6140  000F68  0109               	movlb	9	; () banked
  6141  000F6A  CFEE F952          	movff	postinc0,(?___awmod)
  6142  000F6E  0109               	movlb	9	; () banked
  6143  000F70  CFED F953          	movff	postdec0,(?___awmod+1)
  6144  000F74  EC94  F02D         	call	___awmod	;wreg free
  6145  000F78  0109               	movlb	9	; () banked
  6146  000F7A  5153               	movf	(1+?___awmod)&0ffh,w
  6147  000F7C  1152               	iorwf (0+?___awmod)&0ffh,w
  6148                           
  6149  000F7E  B4D8               	btfsc	status,2
  6150  000F80  EFC4  F007         	goto	u9051
  6151  000F84  EFC6  F007         	goto	u9050
  6152  000F88                     u9051:
  6153  000F88  EF3F  F008         	goto	l573
  6154  000F8C                     u9050:
  6155                           	line	678
  6156                           ;main.c: 678: wallMap[mouseY+1][mouseX] *= 3;
  6157  000F8C  0E03               	movlw	low(03h)
  6158  000F8E  0109               	movlb	9	; () banked
  6159  000F90  0109               	movlb	9	; () banked
  6160  000F92  6F3C               	movwf	(0+(?___wmul+02h))&0ffh
  6161  000F94  0E00               	movlw	high(03h)
  6162  000F96  0109               	movlb	9	; () banked
  6163  000F98  6F3D               	movwf	(1+(?___wmul+02h))&0ffh
  6164  000F9A  90D8               	bcf	status,0
  6165  000F9C  0108               	movlb	8	; () banked
  6166  000F9E  0108               	movlb	8	; () banked
  6167  000FA0  3502               	rlcf	((2050))&0ffh,w
  6168  000FA2  0109               	movlb	9	; () banked
  6169  000FA4  6F2A               	movwf	(??_CheckWalls+0+0)&0ffh
  6170  000FA6  0108               	movlb	8	; () banked
  6171  000FA8  0108               	movlb	8	; () banked
  6172  000FAA  3503               	rlcf	((2050+1))&0ffh,w
  6173  000FAC  0109               	movlb	9	; () banked
  6174  000FAE  6F2B               	movwf	1+(??_CheckWalls+0+0)&0ffh
  6175  000FB0  0108               	movlb	8	; () banked
  6176  000FB2  C800 F92C          	movff	(2048),??_CheckWalls+2+0
  6177  000FB6  0108               	movlb	8	; () banked
  6178  000FB8  C801 F92D          	movff	(2048+1),??_CheckWalls+2+0+1
  6179  000FBC  0E05               	movlw	05h
  6180  000FBE                     u9065:
  6181  000FBE  90D8               	bcf	status,0
  6182  000FC0  0109               	movlb	9	; () banked
  6183  000FC2  372C               	rlcf	(??_CheckWalls+2+0)&0ffh
  6184  000FC4  372D               	rlcf	(??_CheckWalls+2+1)&0ffh
  6185  000FC6  2EE8               	decfsz	wreg
  6186  000FC8  EFDF  F007         	goto	u9065
  6187  000FCC  0E20               	movlw	020h
  6188  000FCE  0109               	movlb	9	; () banked
  6189  000FD0  272C               	addwf	(??_CheckWalls+2+0)&0ffh
  6190  000FD2  0E00               	movlw	0
  6191  000FD4  232D               	addwfc	(??_CheckWalls+2+1)&0ffh
  6192  000FD6  0E00               	movlw	low(0)
  6193  000FD8  0109               	movlb	9	; () banked
  6194  000FDA  252C               	addwf	(??_CheckWalls+2+0)&0ffh,w
  6195  000FDC  0109               	movlb	9	; () banked
  6196  000FDE  6F2E               	movwf	(??_CheckWalls+4+0)&0ffh
  6197  000FE0  0E00               	movlw	high(0)
  6198  000FE2  0109               	movlb	9	; () banked
  6199  000FE4  212D               	addwfc	(??_CheckWalls+2+1)&0ffh,w
  6200  000FE6  0109               	movlb	9	; () banked
  6201  000FE8  6F2F               	movwf	1+(??_CheckWalls+4+0)&0ffh
  6202  000FEA  0109               	movlb	9	; () banked
  6203  000FEC  512A               	movf	(??_CheckWalls+0+0)&0ffh,w
  6204  000FEE  0109               	movlb	9	; () banked
  6205  000FF0  252E               	addwf	(??_CheckWalls+4+0)&0ffh,w
  6206  000FF2  6EE9               	movwf	c:fsr0l
  6207  000FF4  0109               	movlb	9	; () banked
  6208  000FF6  512B               	movf	(??_CheckWalls+0+1)&0ffh,w
  6209  000FF8  0109               	movlb	9	; () banked
  6210  000FFA  212F               	addwfc	(??_CheckWalls+4+1)&0ffh,w
  6211  000FFC  6EEA               	movwf	1+c:fsr0l
  6212  000FFE  0109               	movlb	9	; () banked
  6213  001000  CFEE F93A          	movff	postinc0,(?___wmul)
  6214  001004  0109               	movlb	9	; () banked
  6215  001006  CFED F93B          	movff	postdec0,(?___wmul+1)
  6216  00100A  ECDA  F02E         	call	___wmul	;wreg free
  6217  00100E  90D8               	bcf	status,0
  6218  001010  0108               	movlb	8	; () banked
  6219  001012  0108               	movlb	8	; () banked
  6220  001014  3502               	rlcf	((2050))&0ffh,w
  6221  001016  0109               	movlb	9	; () banked
  6222  001018  6F30               	movwf	(??_CheckWalls+6+0)&0ffh
  6223  00101A  0108               	movlb	8	; () banked
  6224  00101C  0108               	movlb	8	; () banked
  6225  00101E  3503               	rlcf	((2050+1))&0ffh,w
  6226  001020  0109               	movlb	9	; () banked
  6227  001022  6F31               	movwf	1+(??_CheckWalls+6+0)&0ffh
  6228  001024  0108               	movlb	8	; () banked
  6229  001026  C800 F932          	movff	(2048),??_CheckWalls+8+0
  6230  00102A  0108               	movlb	8	; () banked
  6231  00102C  C801 F933          	movff	(2048+1),??_CheckWalls+8+0+1
  6232  001030  0E05               	movlw	05h
  6233  001032                     u9075:
  6234  001032  90D8               	bcf	status,0
  6235  001034  0109               	movlb	9	; () banked
  6236  001036  3732               	rlcf	(??_CheckWalls+8+0)&0ffh
  6237  001038  3733               	rlcf	(??_CheckWalls+8+1)&0ffh
  6238  00103A  2EE8               	decfsz	wreg
  6239  00103C  EF19  F008         	goto	u9075
  6240  001040  0E20               	movlw	020h
  6241  001042  0109               	movlb	9	; () banked
  6242  001044  2732               	addwf	(??_CheckWalls+8+0)&0ffh
  6243  001046  0E00               	movlw	0
  6244  001048  2333               	addwfc	(??_CheckWalls+8+1)&0ffh
  6245  00104A  0E00               	movlw	low(0)
  6246  00104C  0109               	movlb	9	; () banked
  6247  00104E  2532               	addwf	(??_CheckWalls+8+0)&0ffh,w
  6248  001050  0109               	movlb	9	; () banked
  6249  001052  6F34               	movwf	(??_CheckWalls+10+0)&0ffh
  6250  001054  0E00               	movlw	high(0)
  6251  001056  0109               	movlb	9	; () banked
  6252  001058  2133               	addwfc	(??_CheckWalls+8+1)&0ffh,w
  6253  00105A  0109               	movlb	9	; () banked
  6254  00105C  6F35               	movwf	1+(??_CheckWalls+10+0)&0ffh
  6255  00105E  0109               	movlb	9	; () banked
  6256  001060  5130               	movf	(??_CheckWalls+6+0)&0ffh,w
  6257  001062  0109               	movlb	9	; () banked
  6258  001064  2534               	addwf	(??_CheckWalls+10+0)&0ffh,w
  6259  001066  6EE9               	movwf	c:fsr0l
  6260  001068  0109               	movlb	9	; () banked
  6261  00106A  5131               	movf	(??_CheckWalls+6+1)&0ffh,w
  6262  00106C  0109               	movlb	9	; () banked
  6263  00106E  2135               	addwfc	(??_CheckWalls+10+1)&0ffh,w
  6264  001070  6EEA               	movwf	1+c:fsr0l
  6265  001072  0109               	movlb	9	; () banked
  6266  001074  C93A  FFEE         	movff	0+?___wmul,postinc0
  6267  001078  0109               	movlb	9	; () banked
  6268  00107A  C93B  FFED         	movff	1+?___wmul,postdec0
  6269                           
  6270                           	
  6271  00107E                     l575:		; BSR set to: ?
  6272                           
  6273                           	line	679
  6274                           	
  6275  00107E                     l573:		; BSR set to: ?
  6276                           
  6277                           	line	681
  6278                           ;main.c: 679: }
  6279                           ;main.c: 681: if(RB2 == 0){
  6280  00107E  B481               	btfsc	c:(31754/8),(31754)&7	;volatile
  6281  001080  EF44  F008         	goto	u9081
  6282  001084  EF46  F008         	goto	u9080
  6283  001088                     u9081:
  6284  001088  EF09  F005         	goto	l566
  6285  00108C                     u9080:
  6286                           	line	682
  6287                           ;main.c: 682: if(wallMap[mouseY][mouseX] % 3 != 
                                 0)
  6288  00108C  0E03               	movlw	low(03h)
  6289  00108E  0109               	movlb	9	; () banked
  6290  001090  0109               	movlb	9	; () banked
  6291  001092  6F54               	movwf	(0+(?___awmod+02h))&0ffh
  6292  001094  0E00               	movlw	high(03h)
  6293  001096  0109               	movlb	9	; () banked
  6294  001098  6F55               	movwf	(1+(?___awmod+02h))&0ffh
  6295  00109A  90D8               	bcf	status,0
  6296  00109C  0108               	movlb	8	; () banked
  6297  00109E  0108               	movlb	8	; () banked
  6298  0010A0  3502               	rlcf	((2050))&0ffh,w
  6299  0010A2  0109               	movlb	9	; () banked
  6300  0010A4  6F2A               	movwf	(??_CheckWalls+0+0)&0ffh
  6301  0010A6  0108               	movlb	8	; () banked
  6302  0010A8  0108               	movlb	8	; () banked
  6303  0010AA  3503               	rlcf	((2050+1))&0ffh,w
  6304  0010AC  0109               	movlb	9	; () banked
  6305  0010AE  6F2B               	movwf	1+(??_CheckWalls+0+0)&0ffh
  6306  0010B0  0108               	movlb	8	; () banked
  6307  0010B2  C800 F92C          	movff	(2048),??_CheckWalls+2+0
  6308  0010B6  0108               	movlb	8	; () banked
  6309  0010B8  C801 F92D          	movff	(2048+1),??_CheckWalls+2+0+1
  6310  0010BC  0E05               	movlw	05h
  6311  0010BE                     u9095:
  6312  0010BE  90D8               	bcf	status,0
  6313  0010C0  0109               	movlb	9	; () banked
  6314  0010C2  372C               	rlcf	(??_CheckWalls+2+0)&0ffh
  6315  0010C4  372D               	rlcf	(??_CheckWalls+2+1)&0ffh
  6316  0010C6  2EE8               	decfsz	wreg
  6317  0010C8  EF5F  F008         	goto	u9095
  6318  0010CC  0E00               	movlw	low(0)
  6319  0010CE  0109               	movlb	9	; () banked
  6320  0010D0  252C               	addwf	(??_CheckWalls+2+0)&0ffh,w
  6321  0010D2  0109               	movlb	9	; () banked
  6322  0010D4  6F2E               	movwf	(??_CheckWalls+4+0)&0ffh
  6323  0010D6  0E00               	movlw	high(0)
  6324  0010D8  0109               	movlb	9	; () banked
  6325  0010DA  212D               	addwfc	(??_CheckWalls+2+1)&0ffh,w
  6326  0010DC  0109               	movlb	9	; () banked
  6327  0010DE  6F2F               	movwf	1+(??_CheckWalls+4+0)&0ffh
  6328  0010E0  0109               	movlb	9	; () banked
  6329  0010E2  512A               	movf	(??_CheckWalls+0+0)&0ffh,w
  6330  0010E4  0109               	movlb	9	; () banked
  6331  0010E6  252E               	addwf	(??_CheckWalls+4+0)&0ffh,w
  6332  0010E8  6EE9               	movwf	c:fsr0l
  6333  0010EA  0109               	movlb	9	; () banked
  6334  0010EC  512B               	movf	(??_CheckWalls+0+1)&0ffh,w
  6335  0010EE  0109               	movlb	9	; () banked
  6336  0010F0  212F               	addwfc	(??_CheckWalls+4+1)&0ffh,w
  6337  0010F2  6EEA               	movwf	1+c:fsr0l
  6338  0010F4  0109               	movlb	9	; () banked
  6339  0010F6  CFEE F952          	movff	postinc0,(?___awmod)
  6340  0010FA  0109               	movlb	9	; () banked
  6341  0010FC  CFED F953          	movff	postdec0,(?___awmod+1)
  6342  001100  EC94  F02D         	call	___awmod	;wreg free
  6343  001104  0109               	movlb	9	; () banked
  6344  001106  5153               	movf	(1+?___awmod)&0ffh,w
  6345  001108  1152               	iorwf (0+?___awmod)&0ffh,w
  6346                           
  6347  00110A  B4D8               	btfsc	status,2
  6348  00110C  EF8A  F008         	goto	u9101
  6349  001110  EF8C  F008         	goto	u9100
  6350  001114                     u9101:
  6351  001114  EFFB  F008         	goto	l577
  6352  001118                     u9100:
  6353                           	line	683
  6354                           ;main.c: 683: wallMap[mouseY][mouseX] *= 3;
  6355  001118  0E03               	movlw	low(03h)
  6356  00111A  0109               	movlb	9	; () banked
  6357  00111C  0109               	movlb	9	; () banked
  6358  00111E  6F3C               	movwf	(0+(?___wmul+02h))&0ffh
  6359  001120  0E00               	movlw	high(03h)
  6360  001122  0109               	movlb	9	; () banked
  6361  001124  6F3D               	movwf	(1+(?___wmul+02h))&0ffh
  6362  001126  90D8               	bcf	status,0
  6363  001128  0108               	movlb	8	; () banked
  6364  00112A  0108               	movlb	8	; () banked
  6365  00112C  3502               	rlcf	((2050))&0ffh,w
  6366  00112E  0109               	movlb	9	; () banked
  6367  001130  6F2A               	movwf	(??_CheckWalls+0+0)&0ffh
  6368  001132  0108               	movlb	8	; () banked
  6369  001134  0108               	movlb	8	; () banked
  6370  001136  3503               	rlcf	((2050+1))&0ffh,w
  6371  001138  0109               	movlb	9	; () banked
  6372  00113A  6F2B               	movwf	1+(??_CheckWalls+0+0)&0ffh
  6373  00113C  0108               	movlb	8	; () banked
  6374  00113E  C800 F92C          	movff	(2048),??_CheckWalls+2+0
  6375  001142  0108               	movlb	8	; () banked
  6376  001144  C801 F92D          	movff	(2048+1),??_CheckWalls+2+0+1
  6377  001148  0E05               	movlw	05h
  6378  00114A                     u9115:
  6379  00114A  90D8               	bcf	status,0
  6380  00114C  0109               	movlb	9	; () banked
  6381  00114E  372C               	rlcf	(??_CheckWalls+2+0)&0ffh
  6382  001150  372D               	rlcf	(??_CheckWalls+2+1)&0ffh
  6383  001152  2EE8               	decfsz	wreg
  6384  001154  EFA5  F008         	goto	u9115
  6385  001158  0E00               	movlw	low(0)
  6386  00115A  0109               	movlb	9	; () banked
  6387  00115C  252C               	addwf	(??_CheckWalls+2+0)&0ffh,w
  6388  00115E  0109               	movlb	9	; () banked
  6389  001160  6F2E               	movwf	(??_CheckWalls+4+0)&0ffh
  6390  001162  0E00               	movlw	high(0)
  6391  001164  0109               	movlb	9	; () banked
  6392  001166  212D               	addwfc	(??_CheckWalls+2+1)&0ffh,w
  6393  001168  0109               	movlb	9	; () banked
  6394  00116A  6F2F               	movwf	1+(??_CheckWalls+4+0)&0ffh
  6395  00116C  0109               	movlb	9	; () banked
  6396  00116E  512A               	movf	(??_CheckWalls+0+0)&0ffh,w
  6397  001170  0109               	movlb	9	; () banked
  6398  001172  252E               	addwf	(??_CheckWalls+4+0)&0ffh,w
  6399  001174  6EE9               	movwf	c:fsr0l
  6400  001176  0109               	movlb	9	; () banked
  6401  001178  512B               	movf	(??_CheckWalls+0+1)&0ffh,w
  6402  00117A  0109               	movlb	9	; () banked
  6403  00117C  212F               	addwfc	(??_CheckWalls+4+1)&0ffh,w
  6404  00117E  6EEA               	movwf	1+c:fsr0l
  6405  001180  0109               	movlb	9	; () banked
  6406  001182  CFEE F93A          	movff	postinc0,(?___wmul)
  6407  001186  0109               	movlb	9	; () banked
  6408  001188  CFED F93B          	movff	postdec0,(?___wmul+1)
  6409  00118C  ECDA  F02E         	call	___wmul	;wreg free
  6410  001190  90D8               	bcf	status,0
  6411  001192  0108               	movlb	8	; () banked
  6412  001194  0108               	movlb	8	; () banked
  6413  001196  3502               	rlcf	((2050))&0ffh,w
  6414  001198  0109               	movlb	9	; () banked
  6415  00119A  6F30               	movwf	(??_CheckWalls+6+0)&0ffh
  6416  00119C  0108               	movlb	8	; () banked
  6417  00119E  0108               	movlb	8	; () banked
  6418  0011A0  3503               	rlcf	((2050+1))&0ffh,w
  6419  0011A2  0109               	movlb	9	; () banked
  6420  0011A4  6F31               	movwf	1+(??_CheckWalls+6+0)&0ffh
  6421  0011A6  0108               	movlb	8	; () banked
  6422  0011A8  C800 F932          	movff	(2048),??_CheckWalls+8+0
  6423  0011AC  0108               	movlb	8	; () banked
  6424  0011AE  C801 F933          	movff	(2048+1),??_CheckWalls+8+0+1
  6425  0011B2  0E05               	movlw	05h
  6426  0011B4                     u9125:
  6427  0011B4  90D8               	bcf	status,0
  6428  0011B6  0109               	movlb	9	; () banked
  6429  0011B8  3732               	rlcf	(??_CheckWalls+8+0)&0ffh
  6430  0011BA  3733               	rlcf	(??_CheckWalls+8+1)&0ffh
  6431  0011BC  2EE8               	decfsz	wreg
  6432  0011BE  EFDA  F008         	goto	u9125
  6433  0011C2  0E00               	movlw	low(0)
  6434  0011C4  0109               	movlb	9	; () banked
  6435  0011C6  2532               	addwf	(??_CheckWalls+8+0)&0ffh,w
  6436  0011C8  0109               	movlb	9	; () banked
  6437  0011CA  6F34               	movwf	(??_CheckWalls+10+0)&0ffh
  6438  0011CC  0E00               	movlw	high(0)
  6439  0011CE  0109               	movlb	9	; () banked
  6440  0011D0  2133               	addwfc	(??_CheckWalls+8+1)&0ffh,w
  6441  0011D2  0109               	movlb	9	; () banked
  6442  0011D4  6F35               	movwf	1+(??_CheckWalls+10+0)&0ffh
  6443  0011D6  0109               	movlb	9	; () banked
  6444  0011D8  5130               	movf	(??_CheckWalls+6+0)&0ffh,w
  6445  0011DA  0109               	movlb	9	; () banked
  6446  0011DC  2534               	addwf	(??_CheckWalls+10+0)&0ffh,w
  6447  0011DE  6EE9               	movwf	c:fsr0l
  6448  0011E0  0109               	movlb	9	; () banked
  6449  0011E2  5131               	movf	(??_CheckWalls+6+1)&0ffh,w
  6450  0011E4  0109               	movlb	9	; () banked
  6451  0011E6  2135               	addwfc	(??_CheckWalls+10+1)&0ffh,w
  6452  0011E8  6EEA               	movwf	1+c:fsr0l
  6453  0011EA  0109               	movlb	9	; () banked
  6454  0011EC  C93A  FFEE         	movff	0+?___wmul,postinc0
  6455  0011F0  0109               	movlb	9	; () banked
  6456  0011F2  C93B  FFED         	movff	1+?___wmul,postdec0
  6457                           
  6458                           	
  6459  0011F6                     l577:		; BSR set to: ?
  6460                           
  6461                           	line	685
  6462                           ;main.c: 685: if((mouseY - 1 >= 0) && (wallMap[m
                                 ouseY-1][mouseX] % 7 != 0))
  6463  0011F6  0EFF               	movlw	0FFh
  6464  0011F8  0108               	movlb	8	; () banked
  6465  0011FA  0108               	movlb	8	; () banked
  6466  0011FC  2500               	addwf	((2048))&0ffh,w
  6467  0011FE  0EFF               	movlw	0FFh
  6468  001200  0108               	movlb	8	; () banked
  6469  001202  2101               	addwfc	((2048+1))&0ffh,w
  6470  001204  0B80               	andlw	80h
  6471  001206  A4D8               	btfss	status,2
  6472  001208  EF08  F009         	goto	u9131
  6473  00120C  EF0A  F009         	goto	u9130
  6474  001210                     u9131:
  6475  001210  EFDD  F009         	goto	l576
  6476  001214                     u9130:
  6477  001214  0E07               	movlw	low(07h)
  6478  001216  0109               	movlb	9	; () banked
  6479  001218  0109               	movlb	9	; () banked
  6480  00121A  6F54               	movwf	(0+(?___awmod+02h))&0ffh
  6481  00121C  0E00               	movlw	high(07h)
  6482  00121E  0109               	movlb	9	; () banked
  6483  001220  6F55               	movwf	(1+(?___awmod+02h))&0ffh
  6484  001222  90D8               	bcf	status,0
  6485  001224  0108               	movlb	8	; () banked
  6486  001226  0108               	movlb	8	; () banked
  6487  001228  3502               	rlcf	((2050))&0ffh,w
  6488  00122A  0109               	movlb	9	; () banked
  6489  00122C  6F2A               	movwf	(??_CheckWalls+0+0)&0ffh
  6490  00122E  0108               	movlb	8	; () banked
  6491  001230  0108               	movlb	8	; () banked
  6492  001232  3503               	rlcf	((2050+1))&0ffh,w
  6493  001234  0109               	movlb	9	; () banked
  6494  001236  6F2B               	movwf	1+(??_CheckWalls+0+0)&0ffh
  6495  001238  0108               	movlb	8	; () banked
  6496  00123A  C800 F92C          	movff	(2048),??_CheckWalls+2+0
  6497  00123E  0108               	movlb	8	; () banked
  6498  001240  C801 F92D          	movff	(2048+1),??_CheckWalls+2+0+1
  6499  001244  0E05               	movlw	05h
  6500  001246                     u9145:
  6501  001246  90D8               	bcf	status,0
  6502  001248  0109               	movlb	9	; () banked
  6503  00124A  372C               	rlcf	(??_CheckWalls+2+0)&0ffh
  6504  00124C  372D               	rlcf	(??_CheckWalls+2+1)&0ffh
  6505  00124E  2EE8               	decfsz	wreg
  6506  001250  EF23  F009         	goto	u9145
  6507  001254  0EE0               	movlw	low(0FFE0h)
  6508  001256  0109               	movlb	9	; () banked
  6509  001258  252C               	addwf	(??_CheckWalls+2+0)&0ffh,w
  6510  00125A  0109               	movlb	9	; () banked
  6511  00125C  6F2E               	movwf	(??_CheckWalls+4+0)&0ffh
  6512  00125E  0EFF               	movlw	high(0FFE0h)
  6513  001260  0109               	movlb	9	; () banked
  6514  001262  212D               	addwfc	(??_CheckWalls+2+1)&0ffh,w
  6515  001264  0109               	movlb	9	; () banked
  6516  001266  6F2F               	movwf	1+(??_CheckWalls+4+0)&0ffh
  6517  001268  0E00               	movlw	low(0)
  6518  00126A  0109               	movlb	9	; () banked
  6519  00126C  252E               	addwf	(??_CheckWalls+4+0)&0ffh,w
  6520  00126E  0109               	movlb	9	; () banked
  6521  001270  6F30               	movwf	(??_CheckWalls+6+0)&0ffh
  6522  001272  0E00               	movlw	high(0)
  6523  001274  0109               	movlb	9	; () banked
  6524  001276  212F               	addwfc	(??_CheckWalls+4+1)&0ffh,w
  6525  001278  0109               	movlb	9	; () banked
  6526  00127A  6F31               	movwf	1+(??_CheckWalls+6+0)&0ffh
  6527  00127C  0109               	movlb	9	; () banked
  6528  00127E  512A               	movf	(??_CheckWalls+0+0)&0ffh,w
  6529  001280  0109               	movlb	9	; () banked
  6530  001282  2530               	addwf	(??_CheckWalls+6+0)&0ffh,w
  6531  001284  6EE9               	movwf	c:fsr0l
  6532  001286  0109               	movlb	9	; () banked
  6533  001288  512B               	movf	(??_CheckWalls+0+1)&0ffh,w
  6534  00128A  0109               	movlb	9	; () banked
  6535  00128C  2131               	addwfc	(??_CheckWalls+6+1)&0ffh,w
  6536  00128E  6EEA               	movwf	1+c:fsr0l
  6537  001290  0109               	movlb	9	; () banked
  6538  001292  CFEE F952          	movff	postinc0,(?___awmod)
  6539  001296  0109               	movlb	9	; () banked
  6540  001298  CFED F953          	movff	postdec0,(?___awmod+1)
  6541  00129C  EC94  F02D         	call	___awmod	;wreg free
  6542  0012A0  0109               	movlb	9	; () banked
  6543  0012A2  5153               	movf	(1+?___awmod)&0ffh,w
  6544  0012A4  1152               	iorwf (0+?___awmod)&0ffh,w
  6545                           
  6546  0012A6  B4D8               	btfsc	status,2
  6547  0012A8  EF58  F009         	goto	u9151
  6548  0012AC  EF5A  F009         	goto	u9150
  6549  0012B0                     u9151:
  6550  0012B0  EFDD  F009         	goto	l576
  6551  0012B4                     u9150:
  6552                           	line	686
  6553                           ;main.c: 686: wallMap[mouseY-1][mouseX] *= 7;
  6554  0012B4  0E07               	movlw	low(07h)
  6555  0012B6  0109               	movlb	9	; () banked
  6556  0012B8  0109               	movlb	9	; () banked
  6557  0012BA  6F3C               	movwf	(0+(?___wmul+02h))&0ffh
  6558  0012BC  0E00               	movlw	high(07h)
  6559  0012BE  0109               	movlb	9	; () banked
  6560  0012C0  6F3D               	movwf	(1+(?___wmul+02h))&0ffh
  6561  0012C2  90D8               	bcf	status,0
  6562  0012C4  0108               	movlb	8	; () banked
  6563  0012C6  0108               	movlb	8	; () banked
  6564  0012C8  3502               	rlcf	((2050))&0ffh,w
  6565  0012CA  0109               	movlb	9	; () banked
  6566  0012CC  6F2A               	movwf	(??_CheckWalls+0+0)&0ffh
  6567  0012CE  0108               	movlb	8	; () banked
  6568  0012D0  0108               	movlb	8	; () banked
  6569  0012D2  3503               	rlcf	((2050+1))&0ffh,w
  6570  0012D4  0109               	movlb	9	; () banked
  6571  0012D6  6F2B               	movwf	1+(??_CheckWalls+0+0)&0ffh
  6572  0012D8  0108               	movlb	8	; () banked
  6573  0012DA  C800 F92C          	movff	(2048),??_CheckWalls+2+0
  6574  0012DE  0108               	movlb	8	; () banked
  6575  0012E0  C801 F92D          	movff	(2048+1),??_CheckWalls+2+0+1
  6576  0012E4  0E05               	movlw	05h
  6577  0012E6                     u9165:
  6578  0012E6  90D8               	bcf	status,0
  6579  0012E8  0109               	movlb	9	; () banked
  6580  0012EA  372C               	rlcf	(??_CheckWalls+2+0)&0ffh
  6581  0012EC  372D               	rlcf	(??_CheckWalls+2+1)&0ffh
  6582  0012EE  2EE8               	decfsz	wreg
  6583  0012F0  EF73  F009         	goto	u9165
  6584  0012F4  0EE0               	movlw	low(0FFE0h)
  6585  0012F6  0109               	movlb	9	; () banked
  6586  0012F8  252C               	addwf	(??_CheckWalls+2+0)&0ffh,w
  6587  0012FA  0109               	movlb	9	; () banked
  6588  0012FC  6F2E               	movwf	(??_CheckWalls+4+0)&0ffh
  6589  0012FE  0EFF               	movlw	high(0FFE0h)
  6590  001300  0109               	movlb	9	; () banked
  6591  001302  212D               	addwfc	(??_CheckWalls+2+1)&0ffh,w
  6592  001304  0109               	movlb	9	; () banked
  6593  001306  6F2F               	movwf	1+(??_CheckWalls+4+0)&0ffh
  6594  001308  0E00               	movlw	low(0)
  6595  00130A  0109               	movlb	9	; () banked
  6596  00130C  252E               	addwf	(??_CheckWalls+4+0)&0ffh,w
  6597  00130E  0109               	movlb	9	; () banked
  6598  001310  6F30               	movwf	(??_CheckWalls+6+0)&0ffh
  6599  001312  0E00               	movlw	high(0)
  6600  001314  0109               	movlb	9	; () banked
  6601  001316  212F               	addwfc	(??_CheckWalls+4+1)&0ffh,w
  6602  001318  0109               	movlb	9	; () banked
  6603  00131A  6F31               	movwf	1+(??_CheckWalls+6+0)&0ffh
  6604  00131C  0109               	movlb	9	; () banked
  6605  00131E  512A               	movf	(??_CheckWalls+0+0)&0ffh,w
  6606  001320  0109               	movlb	9	; () banked
  6607  001322  2530               	addwf	(??_CheckWalls+6+0)&0ffh,w
  6608  001324  6EE9               	movwf	c:fsr0l
  6609  001326  0109               	movlb	9	; () banked
  6610  001328  512B               	movf	(??_CheckWalls+0+1)&0ffh,w
  6611  00132A  0109               	movlb	9	; () banked
  6612  00132C  2131               	addwfc	(??_CheckWalls+6+1)&0ffh,w
  6613  00132E  6EEA               	movwf	1+c:fsr0l
  6614  001330  0109               	movlb	9	; () banked
  6615  001332  CFEE F93A          	movff	postinc0,(?___wmul)
  6616  001336  0109               	movlb	9	; () banked
  6617  001338  CFED F93B          	movff	postdec0,(?___wmul+1)
  6618  00133C  ECDA  F02E         	call	___wmul	;wreg free
  6619  001340  90D8               	bcf	status,0
  6620  001342  0108               	movlb	8	; () banked
  6621  001344  0108               	movlb	8	; () banked
  6622  001346  3502               	rlcf	((2050))&0ffh,w
  6623  001348  0109               	movlb	9	; () banked
  6624  00134A  6F32               	movwf	(??_CheckWalls+8+0)&0ffh
  6625  00134C  0108               	movlb	8	; () banked
  6626  00134E  0108               	movlb	8	; () banked
  6627  001350  3503               	rlcf	((2050+1))&0ffh,w
  6628  001352  0109               	movlb	9	; () banked
  6629  001354  6F33               	movwf	1+(??_CheckWalls+8+0)&0ffh
  6630  001356  0108               	movlb	8	; () banked
  6631  001358  C800 F934          	movff	(2048),??_CheckWalls+10+0
  6632  00135C  0108               	movlb	8	; () banked
  6633  00135E  C801 F935          	movff	(2048+1),??_CheckWalls+10+0+1
  6634  001362  0E05               	movlw	05h
  6635  001364                     u9175:
  6636  001364  90D8               	bcf	status,0
  6637  001366  0109               	movlb	9	; () banked
  6638  001368  3734               	rlcf	(??_CheckWalls+10+0)&0ffh
  6639  00136A  3735               	rlcf	(??_CheckWalls+10+1)&0ffh
  6640  00136C  2EE8               	decfsz	wreg
  6641  00136E  EFB2  F009         	goto	u9175
  6642  001372  0EE0               	movlw	low(0FFE0h)
  6643  001374  0109               	movlb	9	; () banked
  6644  001376  2534               	addwf	(??_CheckWalls+10+0)&0ffh,w
  6645  001378  0109               	movlb	9	; () banked
  6646  00137A  6F36               	movwf	(??_CheckWalls+12+0)&0ffh
  6647  00137C  0EFF               	movlw	high(0FFE0h)
  6648  00137E  0109               	movlb	9	; () banked
  6649  001380  2135               	addwfc	(??_CheckWalls+10+1)&0ffh,w
  6650  001382  0109               	movlb	9	; () banked
  6651  001384  6F37               	movwf	1+(??_CheckWalls+12+0)&0ffh
  6652  001386  0E00               	movlw	low(0)
  6653  001388  0109               	movlb	9	; () banked
  6654  00138A  2536               	addwf	(??_CheckWalls+12+0)&0ffh,w
  6655  00138C  0109               	movlb	9	; () banked
  6656  00138E  6F38               	movwf	(??_CheckWalls+14+0)&0ffh
  6657  001390  0E00               	movlw	high(0)
  6658  001392  0109               	movlb	9	; () banked
  6659  001394  2137               	addwfc	(??_CheckWalls+12+1)&0ffh,w
  6660  001396  0109               	movlb	9	; () banked
  6661  001398  6F39               	movwf	1+(??_CheckWalls+14+0)&0ffh
  6662  00139A  0109               	movlb	9	; () banked
  6663  00139C  5132               	movf	(??_CheckWalls+8+0)&0ffh,w
  6664  00139E  0109               	movlb	9	; () banked
  6665  0013A0  2538               	addwf	(??_CheckWalls+14+0)&0ffh,w
  6666  0013A2  6EE9               	movwf	c:fsr0l
  6667  0013A4  0109               	movlb	9	; () banked
  6668  0013A6  5133               	movf	(??_CheckWalls+8+1)&0ffh,w
  6669  0013A8  0109               	movlb	9	; () banked
  6670  0013AA  2139               	addwfc	(??_CheckWalls+14+1)&0ffh,w
  6671  0013AC  6EEA               	movwf	1+c:fsr0l
  6672  0013AE  0109               	movlb	9	; () banked
  6673  0013B0  C93A  FFEE         	movff	0+?___wmul,postinc0
  6674  0013B4  0109               	movlb	9	; () banked
  6675  0013B6  C93B  FFED         	movff	1+?___wmul,postdec0
  6676                           
  6677                           	
  6678  0013BA                     l578:		; BSR set to: ?
  6679                           
  6680                           	line	687
  6681                           	
  6682  0013BA                     l576:		; BSR set to: ?
  6683                           
  6684                           	line	689
  6685                           ;main.c: 687: }
  6686                           ;main.c: 689: break;
  6687  0013BA  EFAE  F013         	goto	l557
  6688                           	line	692
  6689                           ;main.c: 692: case 7:
  6690                           	
  6691  0013BE                     l579:		; BSR set to: ?
  6692                           
  6693                           	line	693
  6694                           ;main.c: 693: if(RB3 == 0){
  6695  0013BE  B681               	btfsc	c:(31755/8),(31755)&7	;volatile
  6696  0013C0  EFE4  F009         	goto	u9181
  6697  0013C4  EFE6  F009         	goto	u9180
  6698  0013C8                     u9181:
  6699  0013C8  EF79  F00B         	goto	l580
  6700  0013CC                     u9180:
  6701                           	line	694
  6702                           ;main.c: 694: if(wallMap[mouseY][mouseX] % 7 != 
                                 0)
  6703  0013CC  0E07               	movlw	low(07h)
  6704  0013CE  0109               	movlb	9	; () banked
  6705  0013D0  0109               	movlb	9	; () banked
  6706  0013D2  6F54               	movwf	(0+(?___awmod+02h))&0ffh
  6707  0013D4  0E00               	movlw	high(07h)
  6708  0013D6  0109               	movlb	9	; () banked
  6709  0013D8  6F55               	movwf	(1+(?___awmod+02h))&0ffh
  6710  0013DA  90D8               	bcf	status,0
  6711  0013DC  0108               	movlb	8	; () banked
  6712  0013DE  0108               	movlb	8	; () banked
  6713  0013E0  3502               	rlcf	((2050))&0ffh,w
  6714  0013E2  0109               	movlb	9	; () banked
  6715  0013E4  6F2A               	movwf	(??_CheckWalls+0+0)&0ffh
  6716  0013E6  0108               	movlb	8	; () banked
  6717  0013E8  0108               	movlb	8	; () banked
  6718  0013EA  3503               	rlcf	((2050+1))&0ffh,w
  6719  0013EC  0109               	movlb	9	; () banked
  6720  0013EE  6F2B               	movwf	1+(??_CheckWalls+0+0)&0ffh
  6721  0013F0  0108               	movlb	8	; () banked
  6722  0013F2  C800 F92C          	movff	(2048),??_CheckWalls+2+0
  6723  0013F6  0108               	movlb	8	; () banked
  6724  0013F8  C801 F92D          	movff	(2048+1),??_CheckWalls+2+0+1
  6725  0013FC  0E05               	movlw	05h
  6726  0013FE                     u9195:
  6727  0013FE  90D8               	bcf	status,0
  6728  001400  0109               	movlb	9	; () banked
  6729  001402  372C               	rlcf	(??_CheckWalls+2+0)&0ffh
  6730  001404  372D               	rlcf	(??_CheckWalls+2+1)&0ffh
  6731  001406  2EE8               	decfsz	wreg
  6732  001408  EFFF  F009         	goto	u9195
  6733  00140C  0E00               	movlw	low(0)
  6734  00140E  0109               	movlb	9	; () banked
  6735  001410  252C               	addwf	(??_CheckWalls+2+0)&0ffh,w
  6736  001412  0109               	movlb	9	; () banked
  6737  001414  6F2E               	movwf	(??_CheckWalls+4+0)&0ffh
  6738  001416  0E00               	movlw	high(0)
  6739  001418  0109               	movlb	9	; () banked
  6740  00141A  212D               	addwfc	(??_CheckWalls+2+1)&0ffh,w
  6741  00141C  0109               	movlb	9	; () banked
  6742  00141E  6F2F               	movwf	1+(??_CheckWalls+4+0)&0ffh
  6743  001420  0109               	movlb	9	; () banked
  6744  001422  512A               	movf	(??_CheckWalls+0+0)&0ffh,w
  6745  001424  0109               	movlb	9	; () banked
  6746  001426  252E               	addwf	(??_CheckWalls+4+0)&0ffh,w
  6747  001428  6EE9               	movwf	c:fsr0l
  6748  00142A  0109               	movlb	9	; () banked
  6749  00142C  512B               	movf	(??_CheckWalls+0+1)&0ffh,w
  6750  00142E  0109               	movlb	9	; () banked
  6751  001430  212F               	addwfc	(??_CheckWalls+4+1)&0ffh,w
  6752  001432  6EEA               	movwf	1+c:fsr0l
  6753  001434  0109               	movlb	9	; () banked
  6754  001436  CFEE F952          	movff	postinc0,(?___awmod)
  6755  00143A  0109               	movlb	9	; () banked
  6756  00143C  CFED F953          	movff	postdec0,(?___awmod+1)
  6757  001440  EC94  F02D         	call	___awmod	;wreg free
  6758  001444  0109               	movlb	9	; () banked
  6759  001446  5153               	movf	(1+?___awmod)&0ffh,w
  6760  001448  1152               	iorwf (0+?___awmod)&0ffh,w
  6761                           
  6762  00144A  B4D8               	btfsc	status,2
  6763  00144C  EF2A  F00A         	goto	u9201
  6764  001450  EF2C  F00A         	goto	u9200
  6765  001454                     u9201:
  6766  001454  EF9B  F00A         	goto	l581
  6767  001458                     u9200:
  6768                           	line	695
  6769                           ;main.c: 695: wallMap[mouseY][mouseX] *= 7;
  6770  001458  0E07               	movlw	low(07h)
  6771  00145A  0109               	movlb	9	; () banked
  6772  00145C  0109               	movlb	9	; () banked
  6773  00145E  6F3C               	movwf	(0+(?___wmul+02h))&0ffh
  6774  001460  0E00               	movlw	high(07h)
  6775  001462  0109               	movlb	9	; () banked
  6776  001464  6F3D               	movwf	(1+(?___wmul+02h))&0ffh
  6777  001466  90D8               	bcf	status,0
  6778  001468  0108               	movlb	8	; () banked
  6779  00146A  0108               	movlb	8	; () banked
  6780  00146C  3502               	rlcf	((2050))&0ffh,w
  6781  00146E  0109               	movlb	9	; () banked
  6782  001470  6F2A               	movwf	(??_CheckWalls+0+0)&0ffh
  6783  001472  0108               	movlb	8	; () banked
  6784  001474  0108               	movlb	8	; () banked
  6785  001476  3503               	rlcf	((2050+1))&0ffh,w
  6786  001478  0109               	movlb	9	; () banked
  6787  00147A  6F2B               	movwf	1+(??_CheckWalls+0+0)&0ffh
  6788  00147C  0108               	movlb	8	; () banked
  6789  00147E  C800 F92C          	movff	(2048),??_CheckWalls+2+0
  6790  001482  0108               	movlb	8	; () banked
  6791  001484  C801 F92D          	movff	(2048+1),??_CheckWalls+2+0+1
  6792  001488  0E05               	movlw	05h
  6793  00148A                     u9215:
  6794  00148A  90D8               	bcf	status,0
  6795  00148C  0109               	movlb	9	; () banked
  6796  00148E  372C               	rlcf	(??_CheckWalls+2+0)&0ffh
  6797  001490  372D               	rlcf	(??_CheckWalls+2+1)&0ffh
  6798  001492  2EE8               	decfsz	wreg
  6799  001494  EF45  F00A         	goto	u9215
  6800  001498  0E00               	movlw	low(0)
  6801  00149A  0109               	movlb	9	; () banked
  6802  00149C  252C               	addwf	(??_CheckWalls+2+0)&0ffh,w
  6803  00149E  0109               	movlb	9	; () banked
  6804  0014A0  6F2E               	movwf	(??_CheckWalls+4+0)&0ffh
  6805  0014A2  0E00               	movlw	high(0)
  6806  0014A4  0109               	movlb	9	; () banked
  6807  0014A6  212D               	addwfc	(??_CheckWalls+2+1)&0ffh,w
  6808  0014A8  0109               	movlb	9	; () banked
  6809  0014AA  6F2F               	movwf	1+(??_CheckWalls+4+0)&0ffh
  6810  0014AC  0109               	movlb	9	; () banked
  6811  0014AE  512A               	movf	(??_CheckWalls+0+0)&0ffh,w
  6812  0014B0  0109               	movlb	9	; () banked
  6813  0014B2  252E               	addwf	(??_CheckWalls+4+0)&0ffh,w
  6814  0014B4  6EE9               	movwf	c:fsr0l
  6815  0014B6  0109               	movlb	9	; () banked
  6816  0014B8  512B               	movf	(??_CheckWalls+0+1)&0ffh,w
  6817  0014BA  0109               	movlb	9	; () banked
  6818  0014BC  212F               	addwfc	(??_CheckWalls+4+1)&0ffh,w
  6819  0014BE  6EEA               	movwf	1+c:fsr0l
  6820  0014C0  0109               	movlb	9	; () banked
  6821  0014C2  CFEE F93A          	movff	postinc0,(?___wmul)
  6822  0014C6  0109               	movlb	9	; () banked
  6823  0014C8  CFED F93B          	movff	postdec0,(?___wmul+1)
  6824  0014CC  ECDA  F02E         	call	___wmul	;wreg free
  6825  0014D0  90D8               	bcf	status,0
  6826  0014D2  0108               	movlb	8	; () banked
  6827  0014D4  0108               	movlb	8	; () banked
  6828  0014D6  3502               	rlcf	((2050))&0ffh,w
  6829  0014D8  0109               	movlb	9	; () banked
  6830  0014DA  6F30               	movwf	(??_CheckWalls+6+0)&0ffh
  6831  0014DC  0108               	movlb	8	; () banked
  6832  0014DE  0108               	movlb	8	; () banked
  6833  0014E0  3503               	rlcf	((2050+1))&0ffh,w
  6834  0014E2  0109               	movlb	9	; () banked
  6835  0014E4  6F31               	movwf	1+(??_CheckWalls+6+0)&0ffh
  6836  0014E6  0108               	movlb	8	; () banked
  6837  0014E8  C800 F932          	movff	(2048),??_CheckWalls+8+0
  6838  0014EC  0108               	movlb	8	; () banked
  6839  0014EE  C801 F933          	movff	(2048+1),??_CheckWalls+8+0+1
  6840  0014F2  0E05               	movlw	05h
  6841  0014F4                     u9225:
  6842  0014F4  90D8               	bcf	status,0
  6843  0014F6  0109               	movlb	9	; () banked
  6844  0014F8  3732               	rlcf	(??_CheckWalls+8+0)&0ffh
  6845  0014FA  3733               	rlcf	(??_CheckWalls+8+1)&0ffh
  6846  0014FC  2EE8               	decfsz	wreg
  6847  0014FE  EF7A  F00A         	goto	u9225
  6848  001502  0E00               	movlw	low(0)
  6849  001504  0109               	movlb	9	; () banked
  6850  001506  2532               	addwf	(??_CheckWalls+8+0)&0ffh,w
  6851  001508  0109               	movlb	9	; () banked
  6852  00150A  6F34               	movwf	(??_CheckWalls+10+0)&0ffh
  6853  00150C  0E00               	movlw	high(0)
  6854  00150E  0109               	movlb	9	; () banked
  6855  001510  2133               	addwfc	(??_CheckWalls+8+1)&0ffh,w
  6856  001512  0109               	movlb	9	; () banked
  6857  001514  6F35               	movwf	1+(??_CheckWalls+10+0)&0ffh
  6858  001516  0109               	movlb	9	; () banked
  6859  001518  5130               	movf	(??_CheckWalls+6+0)&0ffh,w
  6860  00151A  0109               	movlb	9	; () banked
  6861  00151C  2534               	addwf	(??_CheckWalls+10+0)&0ffh,w
  6862  00151E  6EE9               	movwf	c:fsr0l
  6863  001520  0109               	movlb	9	; () banked
  6864  001522  5131               	movf	(??_CheckWalls+6+1)&0ffh,w
  6865  001524  0109               	movlb	9	; () banked
  6866  001526  2135               	addwfc	(??_CheckWalls+10+1)&0ffh,w
  6867  001528  6EEA               	movwf	1+c:fsr0l
  6868  00152A  0109               	movlb	9	; () banked
  6869  00152C  C93A  FFEE         	movff	0+?___wmul,postinc0
  6870  001530  0109               	movlb	9	; () banked
  6871  001532  C93B  FFED         	movff	1+?___wmul,postdec0
  6872                           
  6873                           	
  6874  001536                     l581:		; BSR set to: ?
  6875                           
  6876                           	line	697
  6877                           ;main.c: 697: if((mouseY + 1 < 16) && (wallMap[m
                                 ouseY+1][mouseX] % 3 != 0))
  6878  001536  0E01               	movlw	01h
  6879  001538  0108               	movlb	8	; () banked
  6880  00153A  0108               	movlb	8	; () banked
  6881  00153C  2500               	addwf	((2048))&0ffh,w
  6882  00153E  0109               	movlb	9	; () banked
  6883  001540  6F2A               	movwf	(??_CheckWalls+0+0)&0ffh
  6884  001542  0E00               	movlw	0
  6885  001544  0108               	movlb	8	; () banked
  6886  001546  0108               	movlb	8	; () banked
  6887  001548  2101               	addwfc	((2048+1))&0ffh,w
  6888  00154A  0109               	movlb	9	; () banked
  6889  00154C  6F2B               	movwf	(??_CheckWalls+0+0+1)&0ffh
  6890  00154E  0109               	movlb	9	; () banked
  6891  001550  512B               	movf	(??_CheckWalls+0+1)&0ffh,w
  6892  001552  0A80               	xorlw	80h
  6893  001554  0F80               	addlw	-((0)^80h)
  6894  001556  0E10               	movlw	010h
  6895  001558  B4D8               	btfsc	status,2
  6896  00155A  5D2A               	subwf	(??_CheckWalls+0+0)&0ffh,w
  6897  00155C  B0D8               	btfsc	status,0
  6898  00155E  EFB3  F00A         	goto	u9231
  6899  001562  EFB5  F00A         	goto	u9230
  6900  001566                     u9231:
  6901  001566  EF79  F00B         	goto	l580
  6902  00156A                     u9230:
  6903  00156A  0E03               	movlw	low(03h)
  6904  00156C  0109               	movlb	9	; () banked
  6905  00156E  0109               	movlb	9	; () banked
  6906  001570  6F54               	movwf	(0+(?___awmod+02h))&0ffh
  6907  001572  0E00               	movlw	high(03h)
  6908  001574  0109               	movlb	9	; () banked
  6909  001576  6F55               	movwf	(1+(?___awmod+02h))&0ffh
  6910  001578  90D8               	bcf	status,0
  6911  00157A  0108               	movlb	8	; () banked
  6912  00157C  0108               	movlb	8	; () banked
  6913  00157E  3502               	rlcf	((2050))&0ffh,w
  6914  001580  0109               	movlb	9	; () banked
  6915  001582  6F2A               	movwf	(??_CheckWalls+0+0)&0ffh
  6916  001584  0108               	movlb	8	; () banked
  6917  001586  0108               	movlb	8	; () banked
  6918  001588  3503               	rlcf	((2050+1))&0ffh,w
  6919  00158A  0109               	movlb	9	; () banked
  6920  00158C  6F2B               	movwf	1+(??_CheckWalls+0+0)&0ffh
  6921  00158E  0108               	movlb	8	; () banked
  6922  001590  C800 F92C          	movff	(2048),??_CheckWalls+2+0
  6923  001594  0108               	movlb	8	; () banked
  6924  001596  C801 F92D          	movff	(2048+1),??_CheckWalls+2+0+1
  6925  00159A  0E05               	movlw	05h
  6926  00159C                     u9245:
  6927  00159C  90D8               	bcf	status,0
  6928  00159E  0109               	movlb	9	; () banked
  6929  0015A0  372C               	rlcf	(??_CheckWalls+2+0)&0ffh
  6930  0015A2  372D               	rlcf	(??_CheckWalls+2+1)&0ffh
  6931  0015A4  2EE8               	decfsz	wreg
  6932  0015A6  EFCE  F00A         	goto	u9245
  6933  0015AA  0E20               	movlw	020h
  6934  0015AC  0109               	movlb	9	; () banked
  6935  0015AE  272C               	addwf	(??_CheckWalls+2+0)&0ffh
  6936  0015B0  0E00               	movlw	0
  6937  0015B2  232D               	addwfc	(??_CheckWalls+2+1)&0ffh
  6938  0015B4  0E00               	movlw	low(0)
  6939  0015B6  0109               	movlb	9	; () banked
  6940  0015B8  252C               	addwf	(??_CheckWalls+2+0)&0ffh,w
  6941  0015BA  0109               	movlb	9	; () banked
  6942  0015BC  6F2E               	movwf	(??_CheckWalls+4+0)&0ffh
  6943  0015BE  0E00               	movlw	high(0)
  6944  0015C0  0109               	movlb	9	; () banked
  6945  0015C2  212D               	addwfc	(??_CheckWalls+2+1)&0ffh,w
  6946  0015C4  0109               	movlb	9	; () banked
  6947  0015C6  6F2F               	movwf	1+(??_CheckWalls+4+0)&0ffh
  6948  0015C8  0109               	movlb	9	; () banked
  6949  0015CA  512A               	movf	(??_CheckWalls+0+0)&0ffh,w
  6950  0015CC  0109               	movlb	9	; () banked
  6951  0015CE  252E               	addwf	(??_CheckWalls+4+0)&0ffh,w
  6952  0015D0  6EE9               	movwf	c:fsr0l
  6953  0015D2  0109               	movlb	9	; () banked
  6954  0015D4  512B               	movf	(??_CheckWalls+0+1)&0ffh,w
  6955  0015D6  0109               	movlb	9	; () banked
  6956  0015D8  212F               	addwfc	(??_CheckWalls+4+1)&0ffh,w
  6957  0015DA  6EEA               	movwf	1+c:fsr0l
  6958  0015DC  0109               	movlb	9	; () banked
  6959  0015DE  CFEE F952          	movff	postinc0,(?___awmod)
  6960  0015E2  0109               	movlb	9	; () banked
  6961  0015E4  CFED F953          	movff	postdec0,(?___awmod+1)
  6962  0015E8  EC94  F02D         	call	___awmod	;wreg free
  6963  0015EC  0109               	movlb	9	; () banked
  6964  0015EE  5153               	movf	(1+?___awmod)&0ffh,w
  6965  0015F0  1152               	iorwf (0+?___awmod)&0ffh,w
  6966                           
  6967  0015F2  B4D8               	btfsc	status,2
  6968  0015F4  EFFE  F00A         	goto	u9251
  6969  0015F8  EF00  F00B         	goto	u9250
  6970  0015FC                     u9251:
  6971  0015FC  EF79  F00B         	goto	l580
  6972  001600                     u9250:
  6973                           	line	698
  6974                           ;main.c: 698: wallMap[mouseY+1][mouseX] *= 3;
  6975  001600  0E03               	movlw	low(03h)
  6976  001602  0109               	movlb	9	; () banked
  6977  001604  0109               	movlb	9	; () banked
  6978  001606  6F3C               	movwf	(0+(?___wmul+02h))&0ffh
  6979  001608  0E00               	movlw	high(03h)
  6980  00160A  0109               	movlb	9	; () banked
  6981  00160C  6F3D               	movwf	(1+(?___wmul+02h))&0ffh
  6982  00160E  90D8               	bcf	status,0
  6983  001610  0108               	movlb	8	; () banked
  6984  001612  0108               	movlb	8	; () banked
  6985  001614  3502               	rlcf	((2050))&0ffh,w
  6986  001616  0109               	movlb	9	; () banked
  6987  001618  6F2A               	movwf	(??_CheckWalls+0+0)&0ffh
  6988  00161A  0108               	movlb	8	; () banked
  6989  00161C  0108               	movlb	8	; () banked
  6990  00161E  3503               	rlcf	((2050+1))&0ffh,w
  6991  001620  0109               	movlb	9	; () banked
  6992  001622  6F2B               	movwf	1+(??_CheckWalls+0+0)&0ffh
  6993  001624  0108               	movlb	8	; () banked
  6994  001626  C800 F92C          	movff	(2048),??_CheckWalls+2+0
  6995  00162A  0108               	movlb	8	; () banked
  6996  00162C  C801 F92D          	movff	(2048+1),??_CheckWalls+2+0+1
  6997  001630  0E05               	movlw	05h
  6998  001632                     u9265:
  6999  001632  90D8               	bcf	status,0
  7000  001634  0109               	movlb	9	; () banked
  7001  001636  372C               	rlcf	(??_CheckWalls+2+0)&0ffh
  7002  001638  372D               	rlcf	(??_CheckWalls+2+1)&0ffh
  7003  00163A  2EE8               	decfsz	wreg
  7004  00163C  EF19  F00B         	goto	u9265
  7005  001640  0E20               	movlw	020h
  7006  001642  0109               	movlb	9	; () banked
  7007  001644  272C               	addwf	(??_CheckWalls+2+0)&0ffh
  7008  001646  0E00               	movlw	0
  7009  001648  232D               	addwfc	(??_CheckWalls+2+1)&0ffh
  7010  00164A  0E00               	movlw	low(0)
  7011  00164C  0109               	movlb	9	; () banked
  7012  00164E  252C               	addwf	(??_CheckWalls+2+0)&0ffh,w
  7013  001650  0109               	movlb	9	; () banked
  7014  001652  6F2E               	movwf	(??_CheckWalls+4+0)&0ffh
  7015  001654  0E00               	movlw	high(0)
  7016  001656  0109               	movlb	9	; () banked
  7017  001658  212D               	addwfc	(??_CheckWalls+2+1)&0ffh,w
  7018  00165A  0109               	movlb	9	; () banked
  7019  00165C  6F2F               	movwf	1+(??_CheckWalls+4+0)&0ffh
  7020  00165E  0109               	movlb	9	; () banked
  7021  001660  512A               	movf	(??_CheckWalls+0+0)&0ffh,w
  7022  001662  0109               	movlb	9	; () banked
  7023  001664  252E               	addwf	(??_CheckWalls+4+0)&0ffh,w
  7024  001666  6EE9               	movwf	c:fsr0l
  7025  001668  0109               	movlb	9	; () banked
  7026  00166A  512B               	movf	(??_CheckWalls+0+1)&0ffh,w
  7027  00166C  0109               	movlb	9	; () banked
  7028  00166E  212F               	addwfc	(??_CheckWalls+4+1)&0ffh,w
  7029  001670  6EEA               	movwf	1+c:fsr0l
  7030  001672  0109               	movlb	9	; () banked
  7031  001674  CFEE F93A          	movff	postinc0,(?___wmul)
  7032  001678  0109               	movlb	9	; () banked
  7033  00167A  CFED F93B          	movff	postdec0,(?___wmul+1)
  7034  00167E  ECDA  F02E         	call	___wmul	;wreg free
  7035  001682  90D8               	bcf	status,0
  7036  001684  0108               	movlb	8	; () banked
  7037  001686  0108               	movlb	8	; () banked
  7038  001688  3502               	rlcf	((2050))&0ffh,w
  7039  00168A  0109               	movlb	9	; () banked
  7040  00168C  6F30               	movwf	(??_CheckWalls+6+0)&0ffh
  7041  00168E  0108               	movlb	8	; () banked
  7042  001690  0108               	movlb	8	; () banked
  7043  001692  3503               	rlcf	((2050+1))&0ffh,w
  7044  001694  0109               	movlb	9	; () banked
  7045  001696  6F31               	movwf	1+(??_CheckWalls+6+0)&0ffh
  7046  001698  0108               	movlb	8	; () banked
  7047  00169A  C800 F932          	movff	(2048),??_CheckWalls+8+0
  7048  00169E  0108               	movlb	8	; () banked
  7049  0016A0  C801 F933          	movff	(2048+1),??_CheckWalls+8+0+1
  7050  0016A4  0E05               	movlw	05h
  7051  0016A6                     u9275:
  7052  0016A6  90D8               	bcf	status,0
  7053  0016A8  0109               	movlb	9	; () banked
  7054  0016AA  3732               	rlcf	(??_CheckWalls+8+0)&0ffh
  7055  0016AC  3733               	rlcf	(??_CheckWalls+8+1)&0ffh
  7056  0016AE  2EE8               	decfsz	wreg
  7057  0016B0  EF53  F00B         	goto	u9275
  7058  0016B4  0E20               	movlw	020h
  7059  0016B6  0109               	movlb	9	; () banked
  7060  0016B8  2732               	addwf	(??_CheckWalls+8+0)&0ffh
  7061  0016BA  0E00               	movlw	0
  7062  0016BC  2333               	addwfc	(??_CheckWalls+8+1)&0ffh
  7063  0016BE  0E00               	movlw	low(0)
  7064  0016C0  0109               	movlb	9	; () banked
  7065  0016C2  2532               	addwf	(??_CheckWalls+8+0)&0ffh,w
  7066  0016C4  0109               	movlb	9	; () banked
  7067  0016C6  6F34               	movwf	(??_CheckWalls+10+0)&0ffh
  7068  0016C8  0E00               	movlw	high(0)
  7069  0016CA  0109               	movlb	9	; () banked
  7070  0016CC  2133               	addwfc	(??_CheckWalls+8+1)&0ffh,w
  7071  0016CE  0109               	movlb	9	; () banked
  7072  0016D0  6F35               	movwf	1+(??_CheckWalls+10+0)&0ffh
  7073  0016D2  0109               	movlb	9	; () banked
  7074  0016D4  5130               	movf	(??_CheckWalls+6+0)&0ffh,w
  7075  0016D6  0109               	movlb	9	; () banked
  7076  0016D8  2534               	addwf	(??_CheckWalls+10+0)&0ffh,w
  7077  0016DA  6EE9               	movwf	c:fsr0l
  7078  0016DC  0109               	movlb	9	; () banked
  7079  0016DE  5131               	movf	(??_CheckWalls+6+1)&0ffh,w
  7080  0016E0  0109               	movlb	9	; () banked
  7081  0016E2  2135               	addwfc	(??_CheckWalls+10+1)&0ffh,w
  7082  0016E4  6EEA               	movwf	1+c:fsr0l
  7083  0016E6  0109               	movlb	9	; () banked
  7084  0016E8  C93A  FFEE         	movff	0+?___wmul,postinc0
  7085  0016EC  0109               	movlb	9	; () banked
  7086  0016EE  C93B  FFED         	movff	1+?___wmul,postdec0
  7087                           
  7088                           	
  7089  0016F2                     l582:		; BSR set to: ?
  7090                           
  7091                           	line	699
  7092                           	
  7093  0016F2                     l580:		; BSR set to: ?
  7094                           
  7095                           	line	701
  7096                           ;main.c: 699: }
  7097                           ;main.c: 701: if(RB4 == 0){
  7098  0016F2  B881               	btfsc	c:(31756/8),(31756)&7	;volatile
  7099  0016F4  EF7E  F00B         	goto	u9281
  7100  0016F8  EF80  F00B         	goto	u9280
  7101  0016FC                     u9281:
  7102  0016FC  EF17  F00D         	goto	l583
  7103  001700                     u9280:
  7104                           	line	702
  7105                           ;main.c: 702: if(wallMap[mouseY][mouseX] % 13 !=
                                 0 )
  7106  001700  0E0D               	movlw	low(0Dh)
  7107  001702  0109               	movlb	9	; () banked
  7108  001704  0109               	movlb	9	; () banked
  7109  001706  6F54               	movwf	(0+(?___awmod+02h))&0ffh
  7110  001708  0E00               	movlw	high(0Dh)
  7111  00170A  0109               	movlb	9	; () banked
  7112  00170C  6F55               	movwf	(1+(?___awmod+02h))&0ffh
  7113  00170E  90D8               	bcf	status,0
  7114  001710  0108               	movlb	8	; () banked
  7115  001712  0108               	movlb	8	; () banked
  7116  001714  3502               	rlcf	((2050))&0ffh,w
  7117  001716  0109               	movlb	9	; () banked
  7118  001718  6F2A               	movwf	(??_CheckWalls+0+0)&0ffh
  7119  00171A  0108               	movlb	8	; () banked
  7120  00171C  0108               	movlb	8	; () banked
  7121  00171E  3503               	rlcf	((2050+1))&0ffh,w
  7122  001720  0109               	movlb	9	; () banked
  7123  001722  6F2B               	movwf	1+(??_CheckWalls+0+0)&0ffh
  7124  001724  0108               	movlb	8	; () banked
  7125  001726  C800 F92C          	movff	(2048),??_CheckWalls+2+0
  7126  00172A  0108               	movlb	8	; () banked
  7127  00172C  C801 F92D          	movff	(2048+1),??_CheckWalls+2+0+1
  7128  001730  0E05               	movlw	05h
  7129  001732                     u9295:
  7130  001732  90D8               	bcf	status,0
  7131  001734  0109               	movlb	9	; () banked
  7132  001736  372C               	rlcf	(??_CheckWalls+2+0)&0ffh
  7133  001738  372D               	rlcf	(??_CheckWalls+2+1)&0ffh
  7134  00173A  2EE8               	decfsz	wreg
  7135  00173C  EF99  F00B         	goto	u9295
  7136  001740  0E00               	movlw	low(0)
  7137  001742  0109               	movlb	9	; () banked
  7138  001744  252C               	addwf	(??_CheckWalls+2+0)&0ffh,w
  7139  001746  0109               	movlb	9	; () banked
  7140  001748  6F2E               	movwf	(??_CheckWalls+4+0)&0ffh
  7141  00174A  0E00               	movlw	high(0)
  7142  00174C  0109               	movlb	9	; () banked
  7143  00174E  212D               	addwfc	(??_CheckWalls+2+1)&0ffh,w
  7144  001750  0109               	movlb	9	; () banked
  7145  001752  6F2F               	movwf	1+(??_CheckWalls+4+0)&0ffh
  7146  001754  0109               	movlb	9	; () banked
  7147  001756  512A               	movf	(??_CheckWalls+0+0)&0ffh,w
  7148  001758  0109               	movlb	9	; () banked
  7149  00175A  252E               	addwf	(??_CheckWalls+4+0)&0ffh,w
  7150  00175C  6EE9               	movwf	c:fsr0l
  7151  00175E  0109               	movlb	9	; () banked
  7152  001760  512B               	movf	(??_CheckWalls+0+1)&0ffh,w
  7153  001762  0109               	movlb	9	; () banked
  7154  001764  212F               	addwfc	(??_CheckWalls+4+1)&0ffh,w
  7155  001766  6EEA               	movwf	1+c:fsr0l
  7156  001768  0109               	movlb	9	; () banked
  7157  00176A  CFEE F952          	movff	postinc0,(?___awmod)
  7158  00176E  0109               	movlb	9	; () banked
  7159  001770  CFED F953          	movff	postdec0,(?___awmod+1)
  7160  001774  EC94  F02D         	call	___awmod	;wreg free
  7161  001778  0109               	movlb	9	; () banked
  7162  00177A  5153               	movf	(1+?___awmod)&0ffh,w
  7163  00177C  1152               	iorwf (0+?___awmod)&0ffh,w
  7164                           
  7165  00177E  B4D8               	btfsc	status,2
  7166  001780  EFC4  F00B         	goto	u9301
  7167  001784  EFC6  F00B         	goto	u9300
  7168  001788                     u9301:
  7169  001788  EF35  F00C         	goto	l584
  7170  00178C                     u9300:
  7171                           	line	703
  7172                           ;main.c: 703: wallMap[mouseY][mouseX] *= 13;
  7173  00178C  0E0D               	movlw	low(0Dh)
  7174  00178E  0109               	movlb	9	; () banked
  7175  001790  0109               	movlb	9	; () banked
  7176  001792  6F3C               	movwf	(0+(?___wmul+02h))&0ffh
  7177  001794  0E00               	movlw	high(0Dh)
  7178  001796  0109               	movlb	9	; () banked
  7179  001798  6F3D               	movwf	(1+(?___wmul+02h))&0ffh
  7180  00179A  90D8               	bcf	status,0
  7181  00179C  0108               	movlb	8	; () banked
  7182  00179E  0108               	movlb	8	; () banked
  7183  0017A0  3502               	rlcf	((2050))&0ffh,w
  7184  0017A2  0109               	movlb	9	; () banked
  7185  0017A4  6F2A               	movwf	(??_CheckWalls+0+0)&0ffh
  7186  0017A6  0108               	movlb	8	; () banked
  7187  0017A8  0108               	movlb	8	; () banked
  7188  0017AA  3503               	rlcf	((2050+1))&0ffh,w
  7189  0017AC  0109               	movlb	9	; () banked
  7190  0017AE  6F2B               	movwf	1+(??_CheckWalls+0+0)&0ffh
  7191  0017B0  0108               	movlb	8	; () banked
  7192  0017B2  C800 F92C          	movff	(2048),??_CheckWalls+2+0
  7193  0017B6  0108               	movlb	8	; () banked
  7194  0017B8  C801 F92D          	movff	(2048+1),??_CheckWalls+2+0+1
  7195  0017BC  0E05               	movlw	05h
  7196  0017BE                     u9315:
  7197  0017BE  90D8               	bcf	status,0
  7198  0017C0  0109               	movlb	9	; () banked
  7199  0017C2  372C               	rlcf	(??_CheckWalls+2+0)&0ffh
  7200  0017C4  372D               	rlcf	(??_CheckWalls+2+1)&0ffh
  7201  0017C6  2EE8               	decfsz	wreg
  7202  0017C8  EFDF  F00B         	goto	u9315
  7203  0017CC  0E00               	movlw	low(0)
  7204  0017CE  0109               	movlb	9	; () banked
  7205  0017D0  252C               	addwf	(??_CheckWalls+2+0)&0ffh,w
  7206  0017D2  0109               	movlb	9	; () banked
  7207  0017D4  6F2E               	movwf	(??_CheckWalls+4+0)&0ffh
  7208  0017D6  0E00               	movlw	high(0)
  7209  0017D8  0109               	movlb	9	; () banked
  7210  0017DA  212D               	addwfc	(??_CheckWalls+2+1)&0ffh,w
  7211  0017DC  0109               	movlb	9	; () banked
  7212  0017DE  6F2F               	movwf	1+(??_CheckWalls+4+0)&0ffh
  7213  0017E0  0109               	movlb	9	; () banked
  7214  0017E2  512A               	movf	(??_CheckWalls+0+0)&0ffh,w
  7215  0017E4  0109               	movlb	9	; () banked
  7216  0017E6  252E               	addwf	(??_CheckWalls+4+0)&0ffh,w
  7217  0017E8  6EE9               	movwf	c:fsr0l
  7218  0017EA  0109               	movlb	9	; () banked
  7219  0017EC  512B               	movf	(??_CheckWalls+0+1)&0ffh,w
  7220  0017EE  0109               	movlb	9	; () banked
  7221  0017F0  212F               	addwfc	(??_CheckWalls+4+1)&0ffh,w
  7222  0017F2  6EEA               	movwf	1+c:fsr0l
  7223  0017F4  0109               	movlb	9	; () banked
  7224  0017F6  CFEE F93A          	movff	postinc0,(?___wmul)
  7225  0017FA  0109               	movlb	9	; () banked
  7226  0017FC  CFED F93B          	movff	postdec0,(?___wmul+1)
  7227  001800  ECDA  F02E         	call	___wmul	;wreg free
  7228  001804  90D8               	bcf	status,0
  7229  001806  0108               	movlb	8	; () banked
  7230  001808  0108               	movlb	8	; () banked
  7231  00180A  3502               	rlcf	((2050))&0ffh,w
  7232  00180C  0109               	movlb	9	; () banked
  7233  00180E  6F30               	movwf	(??_CheckWalls+6+0)&0ffh
  7234  001810  0108               	movlb	8	; () banked
  7235  001812  0108               	movlb	8	; () banked
  7236  001814  3503               	rlcf	((2050+1))&0ffh,w
  7237  001816  0109               	movlb	9	; () banked
  7238  001818  6F31               	movwf	1+(??_CheckWalls+6+0)&0ffh
  7239  00181A  0108               	movlb	8	; () banked
  7240  00181C  C800 F932          	movff	(2048),??_CheckWalls+8+0
  7241  001820  0108               	movlb	8	; () banked
  7242  001822  C801 F933          	movff	(2048+1),??_CheckWalls+8+0+1
  7243  001826  0E05               	movlw	05h
  7244  001828                     u9325:
  7245  001828  90D8               	bcf	status,0
  7246  00182A  0109               	movlb	9	; () banked
  7247  00182C  3732               	rlcf	(??_CheckWalls+8+0)&0ffh
  7248  00182E  3733               	rlcf	(??_CheckWalls+8+1)&0ffh
  7249  001830  2EE8               	decfsz	wreg
  7250  001832  EF14  F00C         	goto	u9325
  7251  001836  0E00               	movlw	low(0)
  7252  001838  0109               	movlb	9	; () banked
  7253  00183A  2532               	addwf	(??_CheckWalls+8+0)&0ffh,w
  7254  00183C  0109               	movlb	9	; () banked
  7255  00183E  6F34               	movwf	(??_CheckWalls+10+0)&0ffh
  7256  001840  0E00               	movlw	high(0)
  7257  001842  0109               	movlb	9	; () banked
  7258  001844  2133               	addwfc	(??_CheckWalls+8+1)&0ffh,w
  7259  001846  0109               	movlb	9	; () banked
  7260  001848  6F35               	movwf	1+(??_CheckWalls+10+0)&0ffh
  7261  00184A  0109               	movlb	9	; () banked
  7262  00184C  5130               	movf	(??_CheckWalls+6+0)&0ffh,w
  7263  00184E  0109               	movlb	9	; () banked
  7264  001850  2534               	addwf	(??_CheckWalls+10+0)&0ffh,w
  7265  001852  6EE9               	movwf	c:fsr0l
  7266  001854  0109               	movlb	9	; () banked
  7267  001856  5131               	movf	(??_CheckWalls+6+1)&0ffh,w
  7268  001858  0109               	movlb	9	; () banked
  7269  00185A  2135               	addwfc	(??_CheckWalls+10+1)&0ffh,w
  7270  00185C  6EEA               	movwf	1+c:fsr0l
  7271  00185E  0109               	movlb	9	; () banked
  7272  001860  C93A  FFEE         	movff	0+?___wmul,postinc0
  7273  001864  0109               	movlb	9	; () banked
  7274  001866  C93B  FFED         	movff	1+?___wmul,postdec0
  7275                           
  7276                           	
  7277  00186A                     l584:		; BSR set to: ?
  7278                           
  7279                           	line	705
  7280                           ;main.c: 705: if((mouseX - 1 >= 0) && (wallMap[m
                                 ouseY][mouseX-1] % 5 != 0))
  7281  00186A  0EFF               	movlw	0FFh
  7282  00186C  0108               	movlb	8	; () banked
  7283  00186E  0108               	movlb	8	; () banked
  7284  001870  2502               	addwf	((2050))&0ffh,w
  7285  001872  0EFF               	movlw	0FFh
  7286  001874  0108               	movlb	8	; () banked
  7287  001876  2103               	addwfc	((2050+1))&0ffh,w
  7288  001878  0B80               	andlw	80h
  7289  00187A  A4D8               	btfss	status,2
  7290  00187C  EF42  F00C         	goto	u9331
  7291  001880  EF44  F00C         	goto	u9330
  7292  001884                     u9331:
  7293  001884  EF17  F00D         	goto	l583
  7294  001888                     u9330:
  7295  001888  0E05               	movlw	low(05h)
  7296  00188A  0109               	movlb	9	; () banked
  7297  00188C  0109               	movlb	9	; () banked
  7298  00188E  6F54               	movwf	(0+(?___awmod+02h))&0ffh
  7299  001890  0E00               	movlw	high(05h)
  7300  001892  0109               	movlb	9	; () banked
  7301  001894  6F55               	movwf	(1+(?___awmod+02h))&0ffh
  7302  001896  0108               	movlb	8	; () banked
  7303  001898  C800 F92A          	movff	(2048),??_CheckWalls+0+0
  7304  00189C  0108               	movlb	8	; () banked
  7305  00189E  C801 F92B          	movff	(2048+1),??_CheckWalls+0+0+1
  7306  0018A2  0E05               	movlw	05h
  7307  0018A4                     u9345:
  7308  0018A4  90D8               	bcf	status,0
  7309  0018A6  0109               	movlb	9	; () banked
  7310  0018A8  372A               	rlcf	(??_CheckWalls+0+0)&0ffh
  7311  0018AA  372B               	rlcf	(??_CheckWalls+0+1)&0ffh
  7312  0018AC  2EE8               	decfsz	wreg
  7313  0018AE  EF52  F00C         	goto	u9345
  7314  0018B2  90D8               	bcf	status,0
  7315  0018B4  0108               	movlb	8	; () banked
  7316  0018B6  0108               	movlb	8	; () banked
  7317  0018B8  3502               	rlcf	((2050))&0ffh,w
  7318  0018BA  0109               	movlb	9	; () banked
  7319  0018BC  6F2C               	movwf	(??_CheckWalls+2+0)&0ffh
  7320  0018BE  0108               	movlb	8	; () banked
  7321  0018C0  0108               	movlb	8	; () banked
  7322  0018C2  3503               	rlcf	((2050+1))&0ffh,w
  7323  0018C4  0109               	movlb	9	; () banked
  7324  0018C6  6F2D               	movwf	1+(??_CheckWalls+2+0)&0ffh
  7325  0018C8  0EFE               	movlw	low(0FFFEh)
  7326  0018CA  0109               	movlb	9	; () banked
  7327  0018CC  252C               	addwf	(??_CheckWalls+2+0)&0ffh,w
  7328  0018CE  0109               	movlb	9	; () banked
  7329  0018D0  6F2E               	movwf	(??_CheckWalls+4+0)&0ffh
  7330  0018D2  0EFF               	movlw	high(0FFFEh)
  7331  0018D4  0109               	movlb	9	; () banked
  7332  0018D6  212D               	addwfc	(??_CheckWalls+2+1)&0ffh,w
  7333  0018D8  0109               	movlb	9	; () banked
  7334  0018DA  6F2F               	movwf	1+(??_CheckWalls+4+0)&0ffh
  7335  0018DC  0E00               	movlw	low(0)
  7336  0018DE  0109               	movlb	9	; () banked
  7337  0018E0  252E               	addwf	(??_CheckWalls+4+0)&0ffh,w
  7338  0018E2  0109               	movlb	9	; () banked
  7339  0018E4  6F30               	movwf	(??_CheckWalls+6+0)&0ffh
  7340  0018E6  0E00               	movlw	high(0)
  7341  0018E8  0109               	movlb	9	; () banked
  7342  0018EA  212F               	addwfc	(??_CheckWalls+4+1)&0ffh,w
  7343  0018EC  0109               	movlb	9	; () banked
  7344  0018EE  6F31               	movwf	1+(??_CheckWalls+6+0)&0ffh
  7345  0018F0  0109               	movlb	9	; () banked
  7346  0018F2  512A               	movf	(??_CheckWalls+0+0)&0ffh,w
  7347  0018F4  0109               	movlb	9	; () banked
  7348  0018F6  2530               	addwf	(??_CheckWalls+6+0)&0ffh,w
  7349  0018F8  6EE9               	movwf	c:fsr0l
  7350  0018FA  0109               	movlb	9	; () banked
  7351  0018FC  512B               	movf	(??_CheckWalls+0+1)&0ffh,w
  7352  0018FE  0109               	movlb	9	; () banked
  7353  001900  2131               	addwfc	(??_CheckWalls+6+1)&0ffh,w
  7354  001902  6EEA               	movwf	1+c:fsr0l
  7355  001904  0109               	movlb	9	; () banked
  7356  001906  CFEE F952          	movff	postinc0,(?___awmod)
  7357  00190A  0109               	movlb	9	; () banked
  7358  00190C  CFED F953          	movff	postdec0,(?___awmod+1)
  7359  001910  EC94  F02D         	call	___awmod	;wreg free
  7360  001914  0109               	movlb	9	; () banked
  7361  001916  5153               	movf	(1+?___awmod)&0ffh,w
  7362  001918  1152               	iorwf (0+?___awmod)&0ffh,w
  7363                           
  7364  00191A  B4D8               	btfsc	status,2
  7365  00191C  EF92  F00C         	goto	u9351
  7366  001920  EF94  F00C         	goto	u9350
  7367  001924                     u9351:
  7368  001924  EF17  F00D         	goto	l583
  7369  001928                     u9350:
  7370                           	line	706
  7371                           ;main.c: 706: wallMap[mouseY][mouseX-1] *= 5;
  7372  001928  0E05               	movlw	low(05h)
  7373  00192A  0109               	movlb	9	; () banked
  7374  00192C  0109               	movlb	9	; () banked
  7375  00192E  6F3C               	movwf	(0+(?___wmul+02h))&0ffh
  7376  001930  0E00               	movlw	high(05h)
  7377  001932  0109               	movlb	9	; () banked
  7378  001934  6F3D               	movwf	(1+(?___wmul+02h))&0ffh
  7379  001936  0108               	movlb	8	; () banked
  7380  001938  C800 F92A          	movff	(2048),??_CheckWalls+0+0
  7381  00193C  0108               	movlb	8	; () banked
  7382  00193E  C801 F92B          	movff	(2048+1),??_CheckWalls+0+0+1
  7383  001942  0E05               	movlw	05h
  7384  001944                     u9365:
  7385  001944  90D8               	bcf	status,0
  7386  001946  0109               	movlb	9	; () banked
  7387  001948  372A               	rlcf	(??_CheckWalls+0+0)&0ffh
  7388  00194A  372B               	rlcf	(??_CheckWalls+0+1)&0ffh
  7389  00194C  2EE8               	decfsz	wreg
  7390  00194E  EFA2  F00C         	goto	u9365
  7391  001952  90D8               	bcf	status,0
  7392  001954  0108               	movlb	8	; () banked
  7393  001956  0108               	movlb	8	; () banked
  7394  001958  3502               	rlcf	((2050))&0ffh,w
  7395  00195A  0109               	movlb	9	; () banked
  7396  00195C  6F2C               	movwf	(??_CheckWalls+2+0)&0ffh
  7397  00195E  0108               	movlb	8	; () banked
  7398  001960  0108               	movlb	8	; () banked
  7399  001962  3503               	rlcf	((2050+1))&0ffh,w
  7400  001964  0109               	movlb	9	; () banked
  7401  001966  6F2D               	movwf	1+(??_CheckWalls+2+0)&0ffh
  7402  001968  0EFE               	movlw	low(0FFFEh)
  7403  00196A  0109               	movlb	9	; () banked
  7404  00196C  252C               	addwf	(??_CheckWalls+2+0)&0ffh,w
  7405  00196E  0109               	movlb	9	; () banked
  7406  001970  6F2E               	movwf	(??_CheckWalls+4+0)&0ffh
  7407  001972  0EFF               	movlw	high(0FFFEh)
  7408  001974  0109               	movlb	9	; () banked
  7409  001976  212D               	addwfc	(??_CheckWalls+2+1)&0ffh,w
  7410  001978  0109               	movlb	9	; () banked
  7411  00197A  6F2F               	movwf	1+(??_CheckWalls+4+0)&0ffh
  7412  00197C  0E00               	movlw	low(0)
  7413  00197E  0109               	movlb	9	; () banked
  7414  001980  252E               	addwf	(??_CheckWalls+4+0)&0ffh,w
  7415  001982  0109               	movlb	9	; () banked
  7416  001984  6F30               	movwf	(??_CheckWalls+6+0)&0ffh
  7417  001986  0E00               	movlw	high(0)
  7418  001988  0109               	movlb	9	; () banked
  7419  00198A  212F               	addwfc	(??_CheckWalls+4+1)&0ffh,w
  7420  00198C  0109               	movlb	9	; () banked
  7421  00198E  6F31               	movwf	1+(??_CheckWalls+6+0)&0ffh
  7422  001990  0109               	movlb	9	; () banked
  7423  001992  512A               	movf	(??_CheckWalls+0+0)&0ffh,w
  7424  001994  0109               	movlb	9	; () banked
  7425  001996  2530               	addwf	(??_CheckWalls+6+0)&0ffh,w
  7426  001998  6EE9               	movwf	c:fsr0l
  7427  00199A  0109               	movlb	9	; () banked
  7428  00199C  512B               	movf	(??_CheckWalls+0+1)&0ffh,w
  7429  00199E  0109               	movlb	9	; () banked
  7430  0019A0  2131               	addwfc	(??_CheckWalls+6+1)&0ffh,w
  7431  0019A2  6EEA               	movwf	1+c:fsr0l
  7432  0019A4  0109               	movlb	9	; () banked
  7433  0019A6  CFEE F93A          	movff	postinc0,(?___wmul)
  7434  0019AA  0109               	movlb	9	; () banked
  7435  0019AC  CFED F93B          	movff	postdec0,(?___wmul+1)
  7436  0019B0  ECDA  F02E         	call	___wmul	;wreg free
  7437  0019B4  0108               	movlb	8	; () banked
  7438  0019B6  C800 F932          	movff	(2048),??_CheckWalls+8+0
  7439  0019BA  0108               	movlb	8	; () banked
  7440  0019BC  C801 F933          	movff	(2048+1),??_CheckWalls+8+0+1
  7441  0019C0  0E05               	movlw	05h
  7442  0019C2                     u9375:
  7443  0019C2  90D8               	bcf	status,0
  7444  0019C4  0109               	movlb	9	; () banked
  7445  0019C6  3732               	rlcf	(??_CheckWalls+8+0)&0ffh
  7446  0019C8  3733               	rlcf	(??_CheckWalls+8+1)&0ffh
  7447  0019CA  2EE8               	decfsz	wreg
  7448  0019CC  EFE1  F00C         	goto	u9375
  7449  0019D0  90D8               	bcf	status,0
  7450  0019D2  0108               	movlb	8	; () banked
  7451  0019D4  0108               	movlb	8	; () banked
  7452  0019D6  3502               	rlcf	((2050))&0ffh,w
  7453  0019D8  0109               	movlb	9	; () banked
  7454  0019DA  6F34               	movwf	(??_CheckWalls+10+0)&0ffh
  7455  0019DC  0108               	movlb	8	; () banked
  7456  0019DE  0108               	movlb	8	; () banked
  7457  0019E0  3503               	rlcf	((2050+1))&0ffh,w
  7458  0019E2  0109               	movlb	9	; () banked
  7459  0019E4  6F35               	movwf	1+(??_CheckWalls+10+0)&0ffh
  7460  0019E6  0EFE               	movlw	low(0FFFEh)
  7461  0019E8  0109               	movlb	9	; () banked
  7462  0019EA  2534               	addwf	(??_CheckWalls+10+0)&0ffh,w
  7463  0019EC  0109               	movlb	9	; () banked
  7464  0019EE  6F36               	movwf	(??_CheckWalls+12+0)&0ffh
  7465  0019F0  0EFF               	movlw	high(0FFFEh)
  7466  0019F2  0109               	movlb	9	; () banked
  7467  0019F4  2135               	addwfc	(??_CheckWalls+10+1)&0ffh,w
  7468  0019F6  0109               	movlb	9	; () banked
  7469  0019F8  6F37               	movwf	1+(??_CheckWalls+12+0)&0ffh
  7470  0019FA  0E00               	movlw	low(0)
  7471  0019FC  0109               	movlb	9	; () banked
  7472  0019FE  2536               	addwf	(??_CheckWalls+12+0)&0ffh,w
  7473  001A00  0109               	movlb	9	; () banked
  7474  001A02  6F38               	movwf	(??_CheckWalls+14+0)&0ffh
  7475  001A04  0E00               	movlw	high(0)
  7476  001A06  0109               	movlb	9	; () banked
  7477  001A08  2137               	addwfc	(??_CheckWalls+12+1)&0ffh,w
  7478  001A0A  0109               	movlb	9	; () banked
  7479  001A0C  6F39               	movwf	1+(??_CheckWalls+14+0)&0ffh
  7480  001A0E  0109               	movlb	9	; () banked
  7481  001A10  5132               	movf	(??_CheckWalls+8+0)&0ffh,w
  7482  001A12  0109               	movlb	9	; () banked
  7483  001A14  2538               	addwf	(??_CheckWalls+14+0)&0ffh,w
  7484  001A16  6EE9               	movwf	c:fsr0l
  7485  001A18  0109               	movlb	9	; () banked
  7486  001A1A  5133               	movf	(??_CheckWalls+8+1)&0ffh,w
  7487  001A1C  0109               	movlb	9	; () banked
  7488  001A1E  2139               	addwfc	(??_CheckWalls+14+1)&0ffh,w
  7489  001A20  6EEA               	movwf	1+c:fsr0l
  7490  001A22  0109               	movlb	9	; () banked
  7491  001A24  C93A  FFEE         	movff	0+?___wmul,postinc0
  7492  001A28  0109               	movlb	9	; () banked
  7493  001A2A  C93B  FFED         	movff	1+?___wmul,postdec0
  7494                           
  7495                           	
  7496  001A2E                     l585:		; BSR set to: ?
  7497                           
  7498                           	line	707
  7499                           	
  7500  001A2E                     l583:		; BSR set to: ?
  7501                           
  7502                           	line	709
  7503                           ;main.c: 707: }
  7504                           ;main.c: 709: if(RB2 == 0){
  7505  001A2E  B481               	btfsc	c:(31754/8),(31754)&7	;volatile
  7506  001A30  EF1C  F00D         	goto	u9381
  7507  001A34  EF1E  F00D         	goto	u9380
  7508  001A38                     u9381:
  7509  001A38  EF09  F005         	goto	l566
  7510  001A3C                     u9380:
  7511                           	line	710
  7512                           ;main.c: 710: if(wallMap[mouseY][mouseX] % 5 != 
                                 0)
  7513  001A3C  0E05               	movlw	low(05h)
  7514  001A3E  0109               	movlb	9	; () banked
  7515  001A40  0109               	movlb	9	; () banked
  7516  001A42  6F54               	movwf	(0+(?___awmod+02h))&0ffh
  7517  001A44  0E00               	movlw	high(05h)
  7518  001A46  0109               	movlb	9	; () banked
  7519  001A48  6F55               	movwf	(1+(?___awmod+02h))&0ffh
  7520  001A4A  90D8               	bcf	status,0
  7521  001A4C  0108               	movlb	8	; () banked
  7522  001A4E  0108               	movlb	8	; () banked
  7523  001A50  3502               	rlcf	((2050))&0ffh,w
  7524  001A52  0109               	movlb	9	; () banked
  7525  001A54  6F2A               	movwf	(??_CheckWalls+0+0)&0ffh
  7526  001A56  0108               	movlb	8	; () banked
  7527  001A58  0108               	movlb	8	; () banked
  7528  001A5A  3503               	rlcf	((2050+1))&0ffh,w
  7529  001A5C  0109               	movlb	9	; () banked
  7530  001A5E  6F2B               	movwf	1+(??_CheckWalls+0+0)&0ffh
  7531  001A60  0108               	movlb	8	; () banked
  7532  001A62  C800 F92C          	movff	(2048),??_CheckWalls+2+0
  7533  001A66  0108               	movlb	8	; () banked
  7534  001A68  C801 F92D          	movff	(2048+1),??_CheckWalls+2+0+1
  7535  001A6C  0E05               	movlw	05h
  7536  001A6E                     u9395:
  7537  001A6E  90D8               	bcf	status,0
  7538  001A70  0109               	movlb	9	; () banked
  7539  001A72  372C               	rlcf	(??_CheckWalls+2+0)&0ffh
  7540  001A74  372D               	rlcf	(??_CheckWalls+2+1)&0ffh
  7541  001A76  2EE8               	decfsz	wreg
  7542  001A78  EF37  F00D         	goto	u9395
  7543  001A7C  0E00               	movlw	low(0)
  7544  001A7E  0109               	movlb	9	; () banked
  7545  001A80  252C               	addwf	(??_CheckWalls+2+0)&0ffh,w
  7546  001A82  0109               	movlb	9	; () banked
  7547  001A84  6F2E               	movwf	(??_CheckWalls+4+0)&0ffh
  7548  001A86  0E00               	movlw	high(0)
  7549  001A88  0109               	movlb	9	; () banked
  7550  001A8A  212D               	addwfc	(??_CheckWalls+2+1)&0ffh,w
  7551  001A8C  0109               	movlb	9	; () banked
  7552  001A8E  6F2F               	movwf	1+(??_CheckWalls+4+0)&0ffh
  7553  001A90  0109               	movlb	9	; () banked
  7554  001A92  512A               	movf	(??_CheckWalls+0+0)&0ffh,w
  7555  001A94  0109               	movlb	9	; () banked
  7556  001A96  252E               	addwf	(??_CheckWalls+4+0)&0ffh,w
  7557  001A98  6EE9               	movwf	c:fsr0l
  7558  001A9A  0109               	movlb	9	; () banked
  7559  001A9C  512B               	movf	(??_CheckWalls+0+1)&0ffh,w
  7560  001A9E  0109               	movlb	9	; () banked
  7561  001AA0  212F               	addwfc	(??_CheckWalls+4+1)&0ffh,w
  7562  001AA2  6EEA               	movwf	1+c:fsr0l
  7563  001AA4  0109               	movlb	9	; () banked
  7564  001AA6  CFEE F952          	movff	postinc0,(?___awmod)
  7565  001AAA  0109               	movlb	9	; () banked
  7566  001AAC  CFED F953          	movff	postdec0,(?___awmod+1)
  7567  001AB0  EC94  F02D         	call	___awmod	;wreg free
  7568  001AB4  0109               	movlb	9	; () banked
  7569  001AB6  5153               	movf	(1+?___awmod)&0ffh,w
  7570  001AB8  1152               	iorwf (0+?___awmod)&0ffh,w
  7571                           
  7572  001ABA  B4D8               	btfsc	status,2
  7573  001ABC  EF62  F00D         	goto	u9401
  7574  001AC0  EF64  F00D         	goto	u9400
  7575  001AC4                     u9401:
  7576  001AC4  EFD3  F00D         	goto	l587
  7577  001AC8                     u9400:
  7578                           	line	711
  7579                           ;main.c: 711: wallMap[mouseY][mouseX] *= 5;
  7580  001AC8  0E05               	movlw	low(05h)
  7581  001ACA  0109               	movlb	9	; () banked
  7582  001ACC  0109               	movlb	9	; () banked
  7583  001ACE  6F3C               	movwf	(0+(?___wmul+02h))&0ffh
  7584  001AD0  0E00               	movlw	high(05h)
  7585  001AD2  0109               	movlb	9	; () banked
  7586  001AD4  6F3D               	movwf	(1+(?___wmul+02h))&0ffh
  7587  001AD6  90D8               	bcf	status,0
  7588  001AD8  0108               	movlb	8	; () banked
  7589  001ADA  0108               	movlb	8	; () banked
  7590  001ADC  3502               	rlcf	((2050))&0ffh,w
  7591  001ADE  0109               	movlb	9	; () banked
  7592  001AE0  6F2A               	movwf	(??_CheckWalls+0+0)&0ffh
  7593  001AE2  0108               	movlb	8	; () banked
  7594  001AE4  0108               	movlb	8	; () banked
  7595  001AE6  3503               	rlcf	((2050+1))&0ffh,w
  7596  001AE8  0109               	movlb	9	; () banked
  7597  001AEA  6F2B               	movwf	1+(??_CheckWalls+0+0)&0ffh
  7598  001AEC  0108               	movlb	8	; () banked
  7599  001AEE  C800 F92C          	movff	(2048),??_CheckWalls+2+0
  7600  001AF2  0108               	movlb	8	; () banked
  7601  001AF4  C801 F92D          	movff	(2048+1),??_CheckWalls+2+0+1
  7602  001AF8  0E05               	movlw	05h
  7603  001AFA                     u9415:
  7604  001AFA  90D8               	bcf	status,0
  7605  001AFC  0109               	movlb	9	; () banked
  7606  001AFE  372C               	rlcf	(??_CheckWalls+2+0)&0ffh
  7607  001B00  372D               	rlcf	(??_CheckWalls+2+1)&0ffh
  7608  001B02  2EE8               	decfsz	wreg
  7609  001B04  EF7D  F00D         	goto	u9415
  7610  001B08  0E00               	movlw	low(0)
  7611  001B0A  0109               	movlb	9	; () banked
  7612  001B0C  252C               	addwf	(??_CheckWalls+2+0)&0ffh,w
  7613  001B0E  0109               	movlb	9	; () banked
  7614  001B10  6F2E               	movwf	(??_CheckWalls+4+0)&0ffh
  7615  001B12  0E00               	movlw	high(0)
  7616  001B14  0109               	movlb	9	; () banked
  7617  001B16  212D               	addwfc	(??_CheckWalls+2+1)&0ffh,w
  7618  001B18  0109               	movlb	9	; () banked
  7619  001B1A  6F2F               	movwf	1+(??_CheckWalls+4+0)&0ffh
  7620  001B1C  0109               	movlb	9	; () banked
  7621  001B1E  512A               	movf	(??_CheckWalls+0+0)&0ffh,w
  7622  001B20  0109               	movlb	9	; () banked
  7623  001B22  252E               	addwf	(??_CheckWalls+4+0)&0ffh,w
  7624  001B24  6EE9               	movwf	c:fsr0l
  7625  001B26  0109               	movlb	9	; () banked
  7626  001B28  512B               	movf	(??_CheckWalls+0+1)&0ffh,w
  7627  001B2A  0109               	movlb	9	; () banked
  7628  001B2C  212F               	addwfc	(??_CheckWalls+4+1)&0ffh,w
  7629  001B2E  6EEA               	movwf	1+c:fsr0l
  7630  001B30  0109               	movlb	9	; () banked
  7631  001B32  CFEE F93A          	movff	postinc0,(?___wmul)
  7632  001B36  0109               	movlb	9	; () banked
  7633  001B38  CFED F93B          	movff	postdec0,(?___wmul+1)
  7634  001B3C  ECDA  F02E         	call	___wmul	;wreg free
  7635  001B40  90D8               	bcf	status,0
  7636  001B42  0108               	movlb	8	; () banked
  7637  001B44  0108               	movlb	8	; () banked
  7638  001B46  3502               	rlcf	((2050))&0ffh,w
  7639  001B48  0109               	movlb	9	; () banked
  7640  001B4A  6F30               	movwf	(??_CheckWalls+6+0)&0ffh
  7641  001B4C  0108               	movlb	8	; () banked
  7642  001B4E  0108               	movlb	8	; () banked
  7643  001B50  3503               	rlcf	((2050+1))&0ffh,w
  7644  001B52  0109               	movlb	9	; () banked
  7645  001B54  6F31               	movwf	1+(??_CheckWalls+6+0)&0ffh
  7646  001B56  0108               	movlb	8	; () banked
  7647  001B58  C800 F932          	movff	(2048),??_CheckWalls+8+0
  7648  001B5C  0108               	movlb	8	; () banked
  7649  001B5E  C801 F933          	movff	(2048+1),??_CheckWalls+8+0+1
  7650  001B62  0E05               	movlw	05h
  7651  001B64                     u9425:
  7652  001B64  90D8               	bcf	status,0
  7653  001B66  0109               	movlb	9	; () banked
  7654  001B68  3732               	rlcf	(??_CheckWalls+8+0)&0ffh
  7655  001B6A  3733               	rlcf	(??_CheckWalls+8+1)&0ffh
  7656  001B6C  2EE8               	decfsz	wreg
  7657  001B6E  EFB2  F00D         	goto	u9425
  7658  001B72  0E00               	movlw	low(0)
  7659  001B74  0109               	movlb	9	; () banked
  7660  001B76  2532               	addwf	(??_CheckWalls+8+0)&0ffh,w
  7661  001B78  0109               	movlb	9	; () banked
  7662  001B7A  6F34               	movwf	(??_CheckWalls+10+0)&0ffh
  7663  001B7C  0E00               	movlw	high(0)
  7664  001B7E  0109               	movlb	9	; () banked
  7665  001B80  2133               	addwfc	(??_CheckWalls+8+1)&0ffh,w
  7666  001B82  0109               	movlb	9	; () banked
  7667  001B84  6F35               	movwf	1+(??_CheckWalls+10+0)&0ffh
  7668  001B86  0109               	movlb	9	; () banked
  7669  001B88  5130               	movf	(??_CheckWalls+6+0)&0ffh,w
  7670  001B8A  0109               	movlb	9	; () banked
  7671  001B8C  2534               	addwf	(??_CheckWalls+10+0)&0ffh,w
  7672  001B8E  6EE9               	movwf	c:fsr0l
  7673  001B90  0109               	movlb	9	; () banked
  7674  001B92  5131               	movf	(??_CheckWalls+6+1)&0ffh,w
  7675  001B94  0109               	movlb	9	; () banked
  7676  001B96  2135               	addwfc	(??_CheckWalls+10+1)&0ffh,w
  7677  001B98  6EEA               	movwf	1+c:fsr0l
  7678  001B9A  0109               	movlb	9	; () banked
  7679  001B9C  C93A  FFEE         	movff	0+?___wmul,postinc0
  7680  001BA0  0109               	movlb	9	; () banked
  7681  001BA2  C93B  FFED         	movff	1+?___wmul,postdec0
  7682                           
  7683                           	
  7684  001BA6                     l587:		; BSR set to: ?
  7685                           
  7686                           	line	713
  7687                           ;main.c: 713: if((mouseX + 1 < 16) && (wallMap[m
                                 ouseY][mouseX+1] % 13 != 0))
  7688  001BA6  0E01               	movlw	01h
  7689  001BA8  0108               	movlb	8	; () banked
  7690  001BAA  0108               	movlb	8	; () banked
  7691  001BAC  2502               	addwf	((2050))&0ffh,w
  7692  001BAE  0109               	movlb	9	; () banked
  7693  001BB0  6F2A               	movwf	(??_CheckWalls+0+0)&0ffh
  7694  001BB2  0E00               	movlw	0
  7695  001BB4  0108               	movlb	8	; () banked
  7696  001BB6  0108               	movlb	8	; () banked
  7697  001BB8  2103               	addwfc	((2050+1))&0ffh,w
  7698  001BBA  0109               	movlb	9	; () banked
  7699  001BBC  6F2B               	movwf	(??_CheckWalls+0+0+1)&0ffh
  7700  001BBE  0109               	movlb	9	; () banked
  7701  001BC0  512B               	movf	(??_CheckWalls+0+1)&0ffh,w
  7702  001BC2  0A80               	xorlw	80h
  7703  001BC4  0F80               	addlw	-((0)^80h)
  7704  001BC6  0E10               	movlw	010h
  7705  001BC8  B4D8               	btfsc	status,2
  7706  001BCA  5D2A               	subwf	(??_CheckWalls+0+0)&0ffh,w
  7707  001BCC  B0D8               	btfsc	status,0
  7708  001BCE  EFEB  F00D         	goto	u9431
  7709  001BD2  EFED  F00D         	goto	u9430
  7710  001BD6                     u9431:
  7711  001BD6  EFB1  F00E         	goto	l586
  7712  001BDA                     u9430:
  7713  001BDA  0E0D               	movlw	low(0Dh)
  7714  001BDC  0109               	movlb	9	; () banked
  7715  001BDE  0109               	movlb	9	; () banked
  7716  001BE0  6F54               	movwf	(0+(?___awmod+02h))&0ffh
  7717  001BE2  0E00               	movlw	high(0Dh)
  7718  001BE4  0109               	movlb	9	; () banked
  7719  001BE6  6F55               	movwf	(1+(?___awmod+02h))&0ffh
  7720  001BE8  0108               	movlb	8	; () banked
  7721  001BEA  C800 F92A          	movff	(2048),??_CheckWalls+0+0
  7722  001BEE  0108               	movlb	8	; () banked
  7723  001BF0  C801 F92B          	movff	(2048+1),??_CheckWalls+0+0+1
  7724  001BF4  0E05               	movlw	05h
  7725  001BF6                     u9445:
  7726  001BF6  90D8               	bcf	status,0
  7727  001BF8  0109               	movlb	9	; () banked
  7728  001BFA  372A               	rlcf	(??_CheckWalls+0+0)&0ffh
  7729  001BFC  372B               	rlcf	(??_CheckWalls+0+1)&0ffh
  7730  001BFE  2EE8               	decfsz	wreg
  7731  001C00  EFFB  F00D         	goto	u9445
  7732  001C04  90D8               	bcf	status,0
  7733  001C06  0108               	movlb	8	; () banked
  7734  001C08  0108               	movlb	8	; () banked
  7735  001C0A  3502               	rlcf	((2050))&0ffh,w
  7736  001C0C  0109               	movlb	9	; () banked
  7737  001C0E  6F2C               	movwf	(??_CheckWalls+2+0)&0ffh
  7738  001C10  0108               	movlb	8	; () banked
  7739  001C12  0108               	movlb	8	; () banked
  7740  001C14  3503               	rlcf	((2050+1))&0ffh,w
  7741  001C16  0109               	movlb	9	; () banked
  7742  001C18  6F2D               	movwf	1+(??_CheckWalls+2+0)&0ffh
  7743  001C1A  0E02               	movlw	02h
  7744  001C1C  0109               	movlb	9	; () banked
  7745  001C1E  272C               	addwf	(??_CheckWalls+2+0)&0ffh
  7746  001C20  0E00               	movlw	0
  7747  001C22  232D               	addwfc	(??_CheckWalls+2+1)&0ffh
  7748  001C24  0E00               	movlw	low(0)
  7749  001C26  0109               	movlb	9	; () banked
  7750  001C28  252C               	addwf	(??_CheckWalls+2+0)&0ffh,w
  7751  001C2A  0109               	movlb	9	; () banked
  7752  001C2C  6F2E               	movwf	(??_CheckWalls+4+0)&0ffh
  7753  001C2E  0E00               	movlw	high(0)
  7754  001C30  0109               	movlb	9	; () banked
  7755  001C32  212D               	addwfc	(??_CheckWalls+2+1)&0ffh,w
  7756  001C34  0109               	movlb	9	; () banked
  7757  001C36  6F2F               	movwf	1+(??_CheckWalls+4+0)&0ffh
  7758  001C38  0109               	movlb	9	; () banked
  7759  001C3A  512A               	movf	(??_CheckWalls+0+0)&0ffh,w
  7760  001C3C  0109               	movlb	9	; () banked
  7761  001C3E  252E               	addwf	(??_CheckWalls+4+0)&0ffh,w
  7762  001C40  6EE9               	movwf	c:fsr0l
  7763  001C42  0109               	movlb	9	; () banked
  7764  001C44  512B               	movf	(??_CheckWalls+0+1)&0ffh,w
  7765  001C46  0109               	movlb	9	; () banked
  7766  001C48  212F               	addwfc	(??_CheckWalls+4+1)&0ffh,w
  7767  001C4A  6EEA               	movwf	1+c:fsr0l
  7768  001C4C  0109               	movlb	9	; () banked
  7769  001C4E  CFEE F952          	movff	postinc0,(?___awmod)
  7770  001C52  0109               	movlb	9	; () banked
  7771  001C54  CFED F953          	movff	postdec0,(?___awmod+1)
  7772  001C58  EC94  F02D         	call	___awmod	;wreg free
  7773  001C5C  0109               	movlb	9	; () banked
  7774  001C5E  5153               	movf	(1+?___awmod)&0ffh,w
  7775  001C60  1152               	iorwf (0+?___awmod)&0ffh,w
  7776                           
  7777  001C62  B4D8               	btfsc	status,2
  7778  001C64  EF36  F00E         	goto	u9451
  7779  001C68  EF38  F00E         	goto	u9450
  7780  001C6C                     u9451:
  7781  001C6C  EFB1  F00E         	goto	l586
  7782  001C70                     u9450:
  7783                           	line	714
  7784                           ;main.c: 714: wallMap[mouseY][mouseX+1] *= 13;
  7785  001C70  0E0D               	movlw	low(0Dh)
  7786  001C72  0109               	movlb	9	; () banked
  7787  001C74  0109               	movlb	9	; () banked
  7788  001C76  6F3C               	movwf	(0+(?___wmul+02h))&0ffh
  7789  001C78  0E00               	movlw	high(0Dh)
  7790  001C7A  0109               	movlb	9	; () banked
  7791  001C7C  6F3D               	movwf	(1+(?___wmul+02h))&0ffh
  7792  001C7E  0108               	movlb	8	; () banked
  7793  001C80  C800 F92A          	movff	(2048),??_CheckWalls+0+0
  7794  001C84  0108               	movlb	8	; () banked
  7795  001C86  C801 F92B          	movff	(2048+1),??_CheckWalls+0+0+1
  7796  001C8A  0E05               	movlw	05h
  7797  001C8C                     u9465:
  7798  001C8C  90D8               	bcf	status,0
  7799  001C8E  0109               	movlb	9	; () banked
  7800  001C90  372A               	rlcf	(??_CheckWalls+0+0)&0ffh
  7801  001C92  372B               	rlcf	(??_CheckWalls+0+1)&0ffh
  7802  001C94  2EE8               	decfsz	wreg
  7803  001C96  EF46  F00E         	goto	u9465
  7804  001C9A  90D8               	bcf	status,0
  7805  001C9C  0108               	movlb	8	; () banked
  7806  001C9E  0108               	movlb	8	; () banked
  7807  001CA0  3502               	rlcf	((2050))&0ffh,w
  7808  001CA2  0109               	movlb	9	; () banked
  7809  001CA4  6F2C               	movwf	(??_CheckWalls+2+0)&0ffh
  7810  001CA6  0108               	movlb	8	; () banked
  7811  001CA8  0108               	movlb	8	; () banked
  7812  001CAA  3503               	rlcf	((2050+1))&0ffh,w
  7813  001CAC  0109               	movlb	9	; () banked
  7814  001CAE  6F2D               	movwf	1+(??_CheckWalls+2+0)&0ffh
  7815  001CB0  0E02               	movlw	02h
  7816  001CB2  0109               	movlb	9	; () banked
  7817  001CB4  272C               	addwf	(??_CheckWalls+2+0)&0ffh
  7818  001CB6  0E00               	movlw	0
  7819  001CB8  232D               	addwfc	(??_CheckWalls+2+1)&0ffh
  7820  001CBA  0E00               	movlw	low(0)
  7821  001CBC  0109               	movlb	9	; () banked
  7822  001CBE  252C               	addwf	(??_CheckWalls+2+0)&0ffh,w
  7823  001CC0  0109               	movlb	9	; () banked
  7824  001CC2  6F2E               	movwf	(??_CheckWalls+4+0)&0ffh
  7825  001CC4  0E00               	movlw	high(0)
  7826  001CC6  0109               	movlb	9	; () banked
  7827  001CC8  212D               	addwfc	(??_CheckWalls+2+1)&0ffh,w
  7828  001CCA  0109               	movlb	9	; () banked
  7829  001CCC  6F2F               	movwf	1+(??_CheckWalls+4+0)&0ffh
  7830  001CCE  0109               	movlb	9	; () banked
  7831  001CD0  512A               	movf	(??_CheckWalls+0+0)&0ffh,w
  7832  001CD2  0109               	movlb	9	; () banked
  7833  001CD4  252E               	addwf	(??_CheckWalls+4+0)&0ffh,w
  7834  001CD6  6EE9               	movwf	c:fsr0l
  7835  001CD8  0109               	movlb	9	; () banked
  7836  001CDA  512B               	movf	(??_CheckWalls+0+1)&0ffh,w
  7837  001CDC  0109               	movlb	9	; () banked
  7838  001CDE  212F               	addwfc	(??_CheckWalls+4+1)&0ffh,w
  7839  001CE0  6EEA               	movwf	1+c:fsr0l
  7840  001CE2  0109               	movlb	9	; () banked
  7841  001CE4  CFEE F93A          	movff	postinc0,(?___wmul)
  7842  001CE8  0109               	movlb	9	; () banked
  7843  001CEA  CFED F93B          	movff	postdec0,(?___wmul+1)
  7844  001CEE  ECDA  F02E         	call	___wmul	;wreg free
  7845  001CF2  0108               	movlb	8	; () banked
  7846  001CF4  C800 F930          	movff	(2048),??_CheckWalls+6+0
  7847  001CF8  0108               	movlb	8	; () banked
  7848  001CFA  C801 F931          	movff	(2048+1),??_CheckWalls+6+0+1
  7849  001CFE  0E05               	movlw	05h
  7850  001D00                     u9475:
  7851  001D00  90D8               	bcf	status,0
  7852  001D02  0109               	movlb	9	; () banked
  7853  001D04  3730               	rlcf	(??_CheckWalls+6+0)&0ffh
  7854  001D06  3731               	rlcf	(??_CheckWalls+6+1)&0ffh
  7855  001D08  2EE8               	decfsz	wreg
  7856  001D0A  EF80  F00E         	goto	u9475
  7857  001D0E  90D8               	bcf	status,0
  7858  001D10  0108               	movlb	8	; () banked
  7859  001D12  0108               	movlb	8	; () banked
  7860  001D14  3502               	rlcf	((2050))&0ffh,w
  7861  001D16  0109               	movlb	9	; () banked
  7862  001D18  6F32               	movwf	(??_CheckWalls+8+0)&0ffh
  7863  001D1A  0108               	movlb	8	; () banked
  7864  001D1C  0108               	movlb	8	; () banked
  7865  001D1E  3503               	rlcf	((2050+1))&0ffh,w
  7866  001D20  0109               	movlb	9	; () banked
  7867  001D22  6F33               	movwf	1+(??_CheckWalls+8+0)&0ffh
  7868  001D24  0E02               	movlw	02h
  7869  001D26  0109               	movlb	9	; () banked
  7870  001D28  2732               	addwf	(??_CheckWalls+8+0)&0ffh
  7871  001D2A  0E00               	movlw	0
  7872  001D2C  2333               	addwfc	(??_CheckWalls+8+1)&0ffh
  7873  001D2E  0E00               	movlw	low(0)
  7874  001D30  0109               	movlb	9	; () banked
  7875  001D32  2532               	addwf	(??_CheckWalls+8+0)&0ffh,w
  7876  001D34  0109               	movlb	9	; () banked
  7877  001D36  6F34               	movwf	(??_CheckWalls+10+0)&0ffh
  7878  001D38  0E00               	movlw	high(0)
  7879  001D3A  0109               	movlb	9	; () banked
  7880  001D3C  2133               	addwfc	(??_CheckWalls+8+1)&0ffh,w
  7881  001D3E  0109               	movlb	9	; () banked
  7882  001D40  6F35               	movwf	1+(??_CheckWalls+10+0)&0ffh
  7883  001D42  0109               	movlb	9	; () banked
  7884  001D44  5130               	movf	(??_CheckWalls+6+0)&0ffh,w
  7885  001D46  0109               	movlb	9	; () banked
  7886  001D48  2534               	addwf	(??_CheckWalls+10+0)&0ffh,w
  7887  001D4A  6EE9               	movwf	c:fsr0l
  7888  001D4C  0109               	movlb	9	; () banked
  7889  001D4E  5131               	movf	(??_CheckWalls+6+1)&0ffh,w
  7890  001D50  0109               	movlb	9	; () banked
  7891  001D52  2135               	addwfc	(??_CheckWalls+10+1)&0ffh,w
  7892  001D54  6EEA               	movwf	1+c:fsr0l
  7893  001D56  0109               	movlb	9	; () banked
  7894  001D58  C93A  FFEE         	movff	0+?___wmul,postinc0
  7895  001D5C  0109               	movlb	9	; () banked
  7896  001D5E  C93B  FFED         	movff	1+?___wmul,postdec0
  7897                           
  7898                           	
  7899  001D62                     l588:		; BSR set to: ?
  7900                           
  7901                           	line	715
  7902                           	
  7903  001D62                     l586:		; BSR set to: ?
  7904                           
  7905                           	line	717
  7906                           ;main.c: 715: }
  7907                           ;main.c: 717: break;
  7908  001D62  EFAE  F013         	goto	l557
  7909                           	line	720
  7910                           ;main.c: 720: case 13:
  7911                           	
  7912  001D66                     l589:		; BSR set to: ?
  7913                           
  7914                           	line	721
  7915                           ;main.c: 721: if(RB3 == 0){
  7916  001D66  B681               	btfsc	c:(31755/8),(31755)&7	;volatile
  7917  001D68  EFB8  F00E         	goto	u9481
  7918  001D6C  EFBA  F00E         	goto	u9480
  7919  001D70                     u9481:
  7920  001D70  EF51  F010         	goto	l590
  7921  001D74                     u9480:
  7922                           	line	722
  7923                           ;main.c: 722: if(wallMap[mouseY][mouseX] % 13 !=
                                  0)
  7924  001D74  0E0D               	movlw	low(0Dh)
  7925  001D76  0109               	movlb	9	; () banked
  7926  001D78  0109               	movlb	9	; () banked
  7927  001D7A  6F54               	movwf	(0+(?___awmod+02h))&0ffh
  7928  001D7C  0E00               	movlw	high(0Dh)
  7929  001D7E  0109               	movlb	9	; () banked
  7930  001D80  6F55               	movwf	(1+(?___awmod+02h))&0ffh
  7931  001D82  90D8               	bcf	status,0
  7932  001D84  0108               	movlb	8	; () banked
  7933  001D86  0108               	movlb	8	; () banked
  7934  001D88  3502               	rlcf	((2050))&0ffh,w
  7935  001D8A  0109               	movlb	9	; () banked
  7936  001D8C  6F2A               	movwf	(??_CheckWalls+0+0)&0ffh
  7937  001D8E  0108               	movlb	8	; () banked
  7938  001D90  0108               	movlb	8	; () banked
  7939  001D92  3503               	rlcf	((2050+1))&0ffh,w
  7940  001D94  0109               	movlb	9	; () banked
  7941  001D96  6F2B               	movwf	1+(??_CheckWalls+0+0)&0ffh
  7942  001D98  0108               	movlb	8	; () banked
  7943  001D9A  C800 F92C          	movff	(2048),??_CheckWalls+2+0
  7944  001D9E  0108               	movlb	8	; () banked
  7945  001DA0  C801 F92D          	movff	(2048+1),??_CheckWalls+2+0+1
  7946  001DA4  0E05               	movlw	05h
  7947  001DA6                     u9495:
  7948  001DA6  90D8               	bcf	status,0
  7949  001DA8  0109               	movlb	9	; () banked
  7950  001DAA  372C               	rlcf	(??_CheckWalls+2+0)&0ffh
  7951  001DAC  372D               	rlcf	(??_CheckWalls+2+1)&0ffh
  7952  001DAE  2EE8               	decfsz	wreg
  7953  001DB0  EFD3  F00E         	goto	u9495
  7954  001DB4  0E00               	movlw	low(0)
  7955  001DB6  0109               	movlb	9	; () banked
  7956  001DB8  252C               	addwf	(??_CheckWalls+2+0)&0ffh,w
  7957  001DBA  0109               	movlb	9	; () banked
  7958  001DBC  6F2E               	movwf	(??_CheckWalls+4+0)&0ffh
  7959  001DBE  0E00               	movlw	high(0)
  7960  001DC0  0109               	movlb	9	; () banked
  7961  001DC2  212D               	addwfc	(??_CheckWalls+2+1)&0ffh,w
  7962  001DC4  0109               	movlb	9	; () banked
  7963  001DC6  6F2F               	movwf	1+(??_CheckWalls+4+0)&0ffh
  7964  001DC8  0109               	movlb	9	; () banked
  7965  001DCA  512A               	movf	(??_CheckWalls+0+0)&0ffh,w
  7966  001DCC  0109               	movlb	9	; () banked
  7967  001DCE  252E               	addwf	(??_CheckWalls+4+0)&0ffh,w
  7968  001DD0  6EE9               	movwf	c:fsr0l
  7969  001DD2  0109               	movlb	9	; () banked
  7970  001DD4  512B               	movf	(??_CheckWalls+0+1)&0ffh,w
  7971  001DD6  0109               	movlb	9	; () banked
  7972  001DD8  212F               	addwfc	(??_CheckWalls+4+1)&0ffh,w
  7973  001DDA  6EEA               	movwf	1+c:fsr0l
  7974  001DDC  0109               	movlb	9	; () banked
  7975  001DDE  CFEE F952          	movff	postinc0,(?___awmod)
  7976  001DE2  0109               	movlb	9	; () banked
  7977  001DE4  CFED F953          	movff	postdec0,(?___awmod+1)
  7978  001DE8  EC94  F02D         	call	___awmod	;wreg free
  7979  001DEC  0109               	movlb	9	; () banked
  7980  001DEE  5153               	movf	(1+?___awmod)&0ffh,w
  7981  001DF0  1152               	iorwf (0+?___awmod)&0ffh,w
  7982                           
  7983  001DF2  B4D8               	btfsc	status,2
  7984  001DF4  EFFE  F00E         	goto	u9501
  7985  001DF8  EF00  F00F         	goto	u9500
  7986  001DFC                     u9501:
  7987  001DFC  EF6F  F00F         	goto	l591
  7988  001E00                     u9500:
  7989                           	line	723
  7990                           ;main.c: 723: wallMap[mouseY][mouseX] *= 13;
  7991  001E00  0E0D               	movlw	low(0Dh)
  7992  001E02  0109               	movlb	9	; () banked
  7993  001E04  0109               	movlb	9	; () banked
  7994  001E06  6F3C               	movwf	(0+(?___wmul+02h))&0ffh
  7995  001E08  0E00               	movlw	high(0Dh)
  7996  001E0A  0109               	movlb	9	; () banked
  7997  001E0C  6F3D               	movwf	(1+(?___wmul+02h))&0ffh
  7998  001E0E  90D8               	bcf	status,0
  7999  001E10  0108               	movlb	8	; () banked
  8000  001E12  0108               	movlb	8	; () banked
  8001  001E14  3502               	rlcf	((2050))&0ffh,w
  8002  001E16  0109               	movlb	9	; () banked
  8003  001E18  6F2A               	movwf	(??_CheckWalls+0+0)&0ffh
  8004  001E1A  0108               	movlb	8	; () banked
  8005  001E1C  0108               	movlb	8	; () banked
  8006  001E1E  3503               	rlcf	((2050+1))&0ffh,w
  8007  001E20  0109               	movlb	9	; () banked
  8008  001E22  6F2B               	movwf	1+(??_CheckWalls+0+0)&0ffh
  8009  001E24  0108               	movlb	8	; () banked
  8010  001E26  C800 F92C          	movff	(2048),??_CheckWalls+2+0
  8011  001E2A  0108               	movlb	8	; () banked
  8012  001E2C  C801 F92D          	movff	(2048+1),??_CheckWalls+2+0+1
  8013  001E30  0E05               	movlw	05h
  8014  001E32                     u9515:
  8015  001E32  90D8               	bcf	status,0
  8016  001E34  0109               	movlb	9	; () banked
  8017  001E36  372C               	rlcf	(??_CheckWalls+2+0)&0ffh
  8018  001E38  372D               	rlcf	(??_CheckWalls+2+1)&0ffh
  8019  001E3A  2EE8               	decfsz	wreg
  8020  001E3C  EF19  F00F         	goto	u9515
  8021  001E40  0E00               	movlw	low(0)
  8022  001E42  0109               	movlb	9	; () banked
  8023  001E44  252C               	addwf	(??_CheckWalls+2+0)&0ffh,w
  8024  001E46  0109               	movlb	9	; () banked
  8025  001E48  6F2E               	movwf	(??_CheckWalls+4+0)&0ffh
  8026  001E4A  0E00               	movlw	high(0)
  8027  001E4C  0109               	movlb	9	; () banked
  8028  001E4E  212D               	addwfc	(??_CheckWalls+2+1)&0ffh,w
  8029  001E50  0109               	movlb	9	; () banked
  8030  001E52  6F2F               	movwf	1+(??_CheckWalls+4+0)&0ffh
  8031  001E54  0109               	movlb	9	; () banked
  8032  001E56  512A               	movf	(??_CheckWalls+0+0)&0ffh,w
  8033  001E58  0109               	movlb	9	; () banked
  8034  001E5A  252E               	addwf	(??_CheckWalls+4+0)&0ffh,w
  8035  001E5C  6EE9               	movwf	c:fsr0l
  8036  001E5E  0109               	movlb	9	; () banked
  8037  001E60  512B               	movf	(??_CheckWalls+0+1)&0ffh,w
  8038  001E62  0109               	movlb	9	; () banked
  8039  001E64  212F               	addwfc	(??_CheckWalls+4+1)&0ffh,w
  8040  001E66  6EEA               	movwf	1+c:fsr0l
  8041  001E68  0109               	movlb	9	; () banked
  8042  001E6A  CFEE F93A          	movff	postinc0,(?___wmul)
  8043  001E6E  0109               	movlb	9	; () banked
  8044  001E70  CFED F93B          	movff	postdec0,(?___wmul+1)
  8045  001E74  ECDA  F02E         	call	___wmul	;wreg free
  8046  001E78  90D8               	bcf	status,0
  8047  001E7A  0108               	movlb	8	; () banked
  8048  001E7C  0108               	movlb	8	; () banked
  8049  001E7E  3502               	rlcf	((2050))&0ffh,w
  8050  001E80  0109               	movlb	9	; () banked
  8051  001E82  6F30               	movwf	(??_CheckWalls+6+0)&0ffh
  8052  001E84  0108               	movlb	8	; () banked
  8053  001E86  0108               	movlb	8	; () banked
  8054  001E88  3503               	rlcf	((2050+1))&0ffh,w
  8055  001E8A  0109               	movlb	9	; () banked
  8056  001E8C  6F31               	movwf	1+(??_CheckWalls+6+0)&0ffh
  8057  001E8E  0108               	movlb	8	; () banked
  8058  001E90  C800 F932          	movff	(2048),??_CheckWalls+8+0
  8059  001E94  0108               	movlb	8	; () banked
  8060  001E96  C801 F933          	movff	(2048+1),??_CheckWalls+8+0+1
  8061  001E9A  0E05               	movlw	05h
  8062  001E9C                     u9525:
  8063  001E9C  90D8               	bcf	status,0
  8064  001E9E  0109               	movlb	9	; () banked
  8065  001EA0  3732               	rlcf	(??_CheckWalls+8+0)&0ffh
  8066  001EA2  3733               	rlcf	(??_CheckWalls+8+1)&0ffh
  8067  001EA4  2EE8               	decfsz	wreg
  8068  001EA6  EF4E  F00F         	goto	u9525
  8069  001EAA  0E00               	movlw	low(0)
  8070  001EAC  0109               	movlb	9	; () banked
  8071  001EAE  2532               	addwf	(??_CheckWalls+8+0)&0ffh,w
  8072  001EB0  0109               	movlb	9	; () banked
  8073  001EB2  6F34               	movwf	(??_CheckWalls+10+0)&0ffh
  8074  001EB4  0E00               	movlw	high(0)
  8075  001EB6  0109               	movlb	9	; () banked
  8076  001EB8  2133               	addwfc	(??_CheckWalls+8+1)&0ffh,w
  8077  001EBA  0109               	movlb	9	; () banked
  8078  001EBC  6F35               	movwf	1+(??_CheckWalls+10+0)&0ffh
  8079  001EBE  0109               	movlb	9	; () banked
  8080  001EC0  5130               	movf	(??_CheckWalls+6+0)&0ffh,w
  8081  001EC2  0109               	movlb	9	; () banked
  8082  001EC4  2534               	addwf	(??_CheckWalls+10+0)&0ffh,w
  8083  001EC6  6EE9               	movwf	c:fsr0l
  8084  001EC8  0109               	movlb	9	; () banked
  8085  001ECA  5131               	movf	(??_CheckWalls+6+1)&0ffh,w
  8086  001ECC  0109               	movlb	9	; () banked
  8087  001ECE  2135               	addwfc	(??_CheckWalls+10+1)&0ffh,w
  8088  001ED0  6EEA               	movwf	1+c:fsr0l
  8089  001ED2  0109               	movlb	9	; () banked
  8090  001ED4  C93A  FFEE         	movff	0+?___wmul,postinc0
  8091  001ED8  0109               	movlb	9	; () banked
  8092  001EDA  C93B  FFED         	movff	1+?___wmul,postdec0
  8093                           
  8094                           	
  8095  001EDE                     l591:		; BSR set to: ?
  8096                           
  8097                           	line	725
  8098                           ;main.c: 725: if((mouseX - 1 >= 0) && (wallMap[m
                                 ouseY][mouseX-1] % 5 != 0))
  8099  001EDE  0EFF               	movlw	0FFh
  8100  001EE0  0108               	movlb	8	; () banked
  8101  001EE2  0108               	movlb	8	; () banked
  8102  001EE4  2502               	addwf	((2050))&0ffh,w
  8103  001EE6  0EFF               	movlw	0FFh
  8104  001EE8  0108               	movlb	8	; () banked
  8105  001EEA  2103               	addwfc	((2050+1))&0ffh,w
  8106  001EEC  0B80               	andlw	80h
  8107  001EEE  A4D8               	btfss	status,2
  8108  001EF0  EF7C  F00F         	goto	u9531
  8109  001EF4  EF7E  F00F         	goto	u9530
  8110  001EF8                     u9531:
  8111  001EF8  EF51  F010         	goto	l590
  8112  001EFC                     u9530:
  8113  001EFC  0E05               	movlw	low(05h)
  8114  001EFE  0109               	movlb	9	; () banked
  8115  001F00  0109               	movlb	9	; () banked
  8116  001F02  6F54               	movwf	(0+(?___awmod+02h))&0ffh
  8117  001F04  0E00               	movlw	high(05h)
  8118  001F06  0109               	movlb	9	; () banked
  8119  001F08  6F55               	movwf	(1+(?___awmod+02h))&0ffh
  8120  001F0A  0108               	movlb	8	; () banked
  8121  001F0C  C800 F92A          	movff	(2048),??_CheckWalls+0+0
  8122  001F10  0108               	movlb	8	; () banked
  8123  001F12  C801 F92B          	movff	(2048+1),??_CheckWalls+0+0+1
  8124  001F16  0E05               	movlw	05h
  8125  001F18                     u9545:
  8126  001F18  90D8               	bcf	status,0
  8127  001F1A  0109               	movlb	9	; () banked
  8128  001F1C  372A               	rlcf	(??_CheckWalls+0+0)&0ffh
  8129  001F1E  372B               	rlcf	(??_CheckWalls+0+1)&0ffh
  8130  001F20  2EE8               	decfsz	wreg
  8131  001F22  EF8C  F00F         	goto	u9545
  8132  001F26  90D8               	bcf	status,0
  8133  001F28  0108               	movlb	8	; () banked
  8134  001F2A  0108               	movlb	8	; () banked
  8135  001F2C  3502               	rlcf	((2050))&0ffh,w
  8136  001F2E  0109               	movlb	9	; () banked
  8137  001F30  6F2C               	movwf	(??_CheckWalls+2+0)&0ffh
  8138  001F32  0108               	movlb	8	; () banked
  8139  001F34  0108               	movlb	8	; () banked
  8140  001F36  3503               	rlcf	((2050+1))&0ffh,w
  8141  001F38  0109               	movlb	9	; () banked
  8142  001F3A  6F2D               	movwf	1+(??_CheckWalls+2+0)&0ffh
  8143  001F3C  0EFE               	movlw	low(0FFFEh)
  8144  001F3E  0109               	movlb	9	; () banked
  8145  001F40  252C               	addwf	(??_CheckWalls+2+0)&0ffh,w
  8146  001F42  0109               	movlb	9	; () banked
  8147  001F44  6F2E               	movwf	(??_CheckWalls+4+0)&0ffh
  8148  001F46  0EFF               	movlw	high(0FFFEh)
  8149  001F48  0109               	movlb	9	; () banked
  8150  001F4A  212D               	addwfc	(??_CheckWalls+2+1)&0ffh,w
  8151  001F4C  0109               	movlb	9	; () banked
  8152  001F4E  6F2F               	movwf	1+(??_CheckWalls+4+0)&0ffh
  8153  001F50  0E00               	movlw	low(0)
  8154  001F52  0109               	movlb	9	; () banked
  8155  001F54  252E               	addwf	(??_CheckWalls+4+0)&0ffh,w
  8156  001F56  0109               	movlb	9	; () banked
  8157  001F58  6F30               	movwf	(??_CheckWalls+6+0)&0ffh
  8158  001F5A  0E00               	movlw	high(0)
  8159  001F5C  0109               	movlb	9	; () banked
  8160  001F5E  212F               	addwfc	(??_CheckWalls+4+1)&0ffh,w
  8161  001F60  0109               	movlb	9	; () banked
  8162  001F62  6F31               	movwf	1+(??_CheckWalls+6+0)&0ffh
  8163  001F64  0109               	movlb	9	; () banked
  8164  001F66  512A               	movf	(??_CheckWalls+0+0)&0ffh,w
  8165  001F68  0109               	movlb	9	; () banked
  8166  001F6A  2530               	addwf	(??_CheckWalls+6+0)&0ffh,w
  8167  001F6C  6EE9               	movwf	c:fsr0l
  8168  001F6E  0109               	movlb	9	; () banked
  8169  001F70  512B               	movf	(??_CheckWalls+0+1)&0ffh,w
  8170  001F72  0109               	movlb	9	; () banked
  8171  001F74  2131               	addwfc	(??_CheckWalls+6+1)&0ffh,w
  8172  001F76  6EEA               	movwf	1+c:fsr0l
  8173  001F78  0109               	movlb	9	; () banked
  8174  001F7A  CFEE F952          	movff	postinc0,(?___awmod)
  8175  001F7E  0109               	movlb	9	; () banked
  8176  001F80  CFED F953          	movff	postdec0,(?___awmod+1)
  8177  001F84  EC94  F02D         	call	___awmod	;wreg free
  8178  001F88  0109               	movlb	9	; () banked
  8179  001F8A  5153               	movf	(1+?___awmod)&0ffh,w
  8180  001F8C  1152               	iorwf (0+?___awmod)&0ffh,w
  8181                           
  8182  001F8E  B4D8               	btfsc	status,2
  8183  001F90  EFCC  F00F         	goto	u9551
  8184  001F94  EFCE  F00F         	goto	u9550
  8185  001F98                     u9551:
  8186  001F98  EF51  F010         	goto	l590
  8187  001F9C                     u9550:
  8188                           	line	726
  8189                           ;main.c: 726: wallMap[mouseY][mouseX-1] *= 5;
  8190  001F9C  0E05               	movlw	low(05h)
  8191  001F9E  0109               	movlb	9	; () banked
  8192  001FA0  0109               	movlb	9	; () banked
  8193  001FA2  6F3C               	movwf	(0+(?___wmul+02h))&0ffh
  8194  001FA4  0E00               	movlw	high(05h)
  8195  001FA6  0109               	movlb	9	; () banked
  8196  001FA8  6F3D               	movwf	(1+(?___wmul+02h))&0ffh
  8197  001FAA  0108               	movlb	8	; () banked
  8198  001FAC  C800 F92A          	movff	(2048),??_CheckWalls+0+0
  8199  001FB0  0108               	movlb	8	; () banked
  8200  001FB2  C801 F92B          	movff	(2048+1),??_CheckWalls+0+0+1
  8201  001FB6  0E05               	movlw	05h
  8202  001FB8                     u9565:
  8203  001FB8  90D8               	bcf	status,0
  8204  001FBA  0109               	movlb	9	; () banked
  8205  001FBC  372A               	rlcf	(??_CheckWalls+0+0)&0ffh
  8206  001FBE  372B               	rlcf	(??_CheckWalls+0+1)&0ffh
  8207  001FC0  2EE8               	decfsz	wreg
  8208  001FC2  EFDC  F00F         	goto	u9565
  8209  001FC6  90D8               	bcf	status,0
  8210  001FC8  0108               	movlb	8	; () banked
  8211  001FCA  0108               	movlb	8	; () banked
  8212  001FCC  3502               	rlcf	((2050))&0ffh,w
  8213  001FCE  0109               	movlb	9	; () banked
  8214  001FD0  6F2C               	movwf	(??_CheckWalls+2+0)&0ffh
  8215  001FD2  0108               	movlb	8	; () banked
  8216  001FD4  0108               	movlb	8	; () banked
  8217  001FD6  3503               	rlcf	((2050+1))&0ffh,w
  8218  001FD8  0109               	movlb	9	; () banked
  8219  001FDA  6F2D               	movwf	1+(??_CheckWalls+2+0)&0ffh
  8220  001FDC  0EFE               	movlw	low(0FFFEh)
  8221  001FDE  0109               	movlb	9	; () banked
  8222  001FE0  252C               	addwf	(??_CheckWalls+2+0)&0ffh,w
  8223  001FE2  0109               	movlb	9	; () banked
  8224  001FE4  6F2E               	movwf	(??_CheckWalls+4+0)&0ffh
  8225  001FE6  0EFF               	movlw	high(0FFFEh)
  8226  001FE8  0109               	movlb	9	; () banked
  8227  001FEA  212D               	addwfc	(??_CheckWalls+2+1)&0ffh,w
  8228  001FEC  0109               	movlb	9	; () banked
  8229  001FEE  6F2F               	movwf	1+(??_CheckWalls+4+0)&0ffh
  8230  001FF0  0E00               	movlw	low(0)
  8231  001FF2  0109               	movlb	9	; () banked
  8232  001FF4  252E               	addwf	(??_CheckWalls+4+0)&0ffh,w
  8233  001FF6  0109               	movlb	9	; () banked
  8234  001FF8  6F30               	movwf	(??_CheckWalls+6+0)&0ffh
  8235  001FFA  0E00               	movlw	high(0)
  8236  001FFC  0109               	movlb	9	; () banked
  8237  001FFE  212F               	addwfc	(??_CheckWalls+4+1)&0ffh,w
  8238  002000  0109               	movlb	9	; () banked
  8239  002002  6F31               	movwf	1+(??_CheckWalls+6+0)&0ffh
  8240  002004  0109               	movlb	9	; () banked
  8241  002006  512A               	movf	(??_CheckWalls+0+0)&0ffh,w
  8242  002008  0109               	movlb	9	; () banked
  8243  00200A  2530               	addwf	(??_CheckWalls+6+0)&0ffh,w
  8244  00200C  6EE9               	movwf	c:fsr0l
  8245  00200E  0109               	movlb	9	; () banked
  8246  002010  512B               	movf	(??_CheckWalls+0+1)&0ffh,w
  8247  002012  0109               	movlb	9	; () banked
  8248  002014  2131               	addwfc	(??_CheckWalls+6+1)&0ffh,w
  8249  002016  6EEA               	movwf	1+c:fsr0l
  8250  002018  0109               	movlb	9	; () banked
  8251  00201A  CFEE F93A          	movff	postinc0,(?___wmul)
  8252  00201E  0109               	movlb	9	; () banked
  8253  002020  CFED F93B          	movff	postdec0,(?___wmul+1)
  8254  002024  ECDA  F02E         	call	___wmul	;wreg free
  8255  002028  0108               	movlb	8	; () banked
  8256  00202A  C800 F932          	movff	(2048),??_CheckWalls+8+0
  8257  00202E  0108               	movlb	8	; () banked
  8258  002030  C801 F933          	movff	(2048+1),??_CheckWalls+8+0+1
  8259  002034  0E05               	movlw	05h
  8260  002036                     u9575:
  8261  002036  90D8               	bcf	status,0
  8262  002038  0109               	movlb	9	; () banked
  8263  00203A  3732               	rlcf	(??_CheckWalls+8+0)&0ffh
  8264  00203C  3733               	rlcf	(??_CheckWalls+8+1)&0ffh
  8265  00203E  2EE8               	decfsz	wreg
  8266  002040  EF1B  F010         	goto	u9575
  8267  002044  90D8               	bcf	status,0
  8268  002046  0108               	movlb	8	; () banked
  8269  002048  0108               	movlb	8	; () banked
  8270  00204A  3502               	rlcf	((2050))&0ffh,w
  8271  00204C  0109               	movlb	9	; () banked
  8272  00204E  6F34               	movwf	(??_CheckWalls+10+0)&0ffh
  8273  002050  0108               	movlb	8	; () banked
  8274  002052  0108               	movlb	8	; () banked
  8275  002054  3503               	rlcf	((2050+1))&0ffh,w
  8276  002056  0109               	movlb	9	; () banked
  8277  002058  6F35               	movwf	1+(??_CheckWalls+10+0)&0ffh
  8278  00205A  0EFE               	movlw	low(0FFFEh)
  8279  00205C  0109               	movlb	9	; () banked
  8280  00205E  2534               	addwf	(??_CheckWalls+10+0)&0ffh,w
  8281  002060  0109               	movlb	9	; () banked
  8282  002062  6F36               	movwf	(??_CheckWalls+12+0)&0ffh
  8283  002064  0EFF               	movlw	high(0FFFEh)
  8284  002066  0109               	movlb	9	; () banked
  8285  002068  2135               	addwfc	(??_CheckWalls+10+1)&0ffh,w
  8286  00206A  0109               	movlb	9	; () banked
  8287  00206C  6F37               	movwf	1+(??_CheckWalls+12+0)&0ffh
  8288  00206E  0E00               	movlw	low(0)
  8289  002070  0109               	movlb	9	; () banked
  8290  002072  2536               	addwf	(??_CheckWalls+12+0)&0ffh,w
  8291  002074  0109               	movlb	9	; () banked
  8292  002076  6F38               	movwf	(??_CheckWalls+14+0)&0ffh
  8293  002078  0E00               	movlw	high(0)
  8294  00207A  0109               	movlb	9	; () banked
  8295  00207C  2137               	addwfc	(??_CheckWalls+12+1)&0ffh,w
  8296  00207E  0109               	movlb	9	; () banked
  8297  002080  6F39               	movwf	1+(??_CheckWalls+14+0)&0ffh
  8298  002082  0109               	movlb	9	; () banked
  8299  002084  5132               	movf	(??_CheckWalls+8+0)&0ffh,w
  8300  002086  0109               	movlb	9	; () banked
  8301  002088  2538               	addwf	(??_CheckWalls+14+0)&0ffh,w
  8302  00208A  6EE9               	movwf	c:fsr0l
  8303  00208C  0109               	movlb	9	; () banked
  8304  00208E  5133               	movf	(??_CheckWalls+8+1)&0ffh,w
  8305  002090  0109               	movlb	9	; () banked
  8306  002092  2139               	addwfc	(??_CheckWalls+14+1)&0ffh,w
  8307  002094  6EEA               	movwf	1+c:fsr0l
  8308  002096  0109               	movlb	9	; () banked
  8309  002098  C93A  FFEE         	movff	0+?___wmul,postinc0
  8310  00209C  0109               	movlb	9	; () banked
  8311  00209E  C93B  FFED         	movff	1+?___wmul,postdec0
  8312                           
  8313                           	
  8314  0020A2                     l592:		; BSR set to: ?
  8315                           
  8316                           	line	727
  8317                           	
  8318  0020A2                     l590:		; BSR set to: ?
  8319                           
  8320                           	line	729
  8321                           ;main.c: 727: }
  8322                           ;main.c: 729: if(RB4 == 0){
  8323  0020A2  B881               	btfsc	c:(31756/8),(31756)&7	;volatile
  8324  0020A4  EF56  F010         	goto	u9581
  8325  0020A8  EF58  F010         	goto	u9580
  8326  0020AC                     u9581:
  8327  0020AC  EFEF  F011         	goto	l593
  8328  0020B0                     u9580:
  8329                           	line	730
  8330                           ;main.c: 730: if(wallMap[mouseY][mouseX] % 3 != 
                                 0)
  8331  0020B0  0E03               	movlw	low(03h)
  8332  0020B2  0109               	movlb	9	; () banked
  8333  0020B4  0109               	movlb	9	; () banked
  8334  0020B6  6F54               	movwf	(0+(?___awmod+02h))&0ffh
  8335  0020B8  0E00               	movlw	high(03h)
  8336  0020BA  0109               	movlb	9	; () banked
  8337  0020BC  6F55               	movwf	(1+(?___awmod+02h))&0ffh
  8338  0020BE  90D8               	bcf	status,0
  8339  0020C0  0108               	movlb	8	; () banked
  8340  0020C2  0108               	movlb	8	; () banked
  8341  0020C4  3502               	rlcf	((2050))&0ffh,w
  8342  0020C6  0109               	movlb	9	; () banked
  8343  0020C8  6F2A               	movwf	(??_CheckWalls+0+0)&0ffh
  8344  0020CA  0108               	movlb	8	; () banked
  8345  0020CC  0108               	movlb	8	; () banked
  8346  0020CE  3503               	rlcf	((2050+1))&0ffh,w
  8347  0020D0  0109               	movlb	9	; () banked
  8348  0020D2  6F2B               	movwf	1+(??_CheckWalls+0+0)&0ffh
  8349  0020D4  0108               	movlb	8	; () banked
  8350  0020D6  C800 F92C          	movff	(2048),??_CheckWalls+2+0
  8351  0020DA  0108               	movlb	8	; () banked
  8352  0020DC  C801 F92D          	movff	(2048+1),??_CheckWalls+2+0+1
  8353  0020E0  0E05               	movlw	05h
  8354  0020E2                     u9595:
  8355  0020E2  90D8               	bcf	status,0
  8356  0020E4  0109               	movlb	9	; () banked
  8357  0020E6  372C               	rlcf	(??_CheckWalls+2+0)&0ffh
  8358  0020E8  372D               	rlcf	(??_CheckWalls+2+1)&0ffh
  8359  0020EA  2EE8               	decfsz	wreg
  8360  0020EC  EF71  F010         	goto	u9595
  8361  0020F0  0E00               	movlw	low(0)
  8362  0020F2  0109               	movlb	9	; () banked
  8363  0020F4  252C               	addwf	(??_CheckWalls+2+0)&0ffh,w
  8364  0020F6  0109               	movlb	9	; () banked
  8365  0020F8  6F2E               	movwf	(??_CheckWalls+4+0)&0ffh
  8366  0020FA  0E00               	movlw	high(0)
  8367  0020FC  0109               	movlb	9	; () banked
  8368  0020FE  212D               	addwfc	(??_CheckWalls+2+1)&0ffh,w
  8369  002100  0109               	movlb	9	; () banked
  8370  002102  6F2F               	movwf	1+(??_CheckWalls+4+0)&0ffh
  8371  002104  0109               	movlb	9	; () banked
  8372  002106  512A               	movf	(??_CheckWalls+0+0)&0ffh,w
  8373  002108  0109               	movlb	9	; () banked
  8374  00210A  252E               	addwf	(??_CheckWalls+4+0)&0ffh,w
  8375  00210C  6EE9               	movwf	c:fsr0l
  8376  00210E  0109               	movlb	9	; () banked
  8377  002110  512B               	movf	(??_CheckWalls+0+1)&0ffh,w
  8378  002112  0109               	movlb	9	; () banked
  8379  002114  212F               	addwfc	(??_CheckWalls+4+1)&0ffh,w
  8380  002116  6EEA               	movwf	1+c:fsr0l
  8381  002118  0109               	movlb	9	; () banked
  8382  00211A  CFEE F952          	movff	postinc0,(?___awmod)
  8383  00211E  0109               	movlb	9	; () banked
  8384  002120  CFED F953          	movff	postdec0,(?___awmod+1)
  8385  002124  EC94  F02D         	call	___awmod	;wreg free
  8386  002128  0109               	movlb	9	; () banked
  8387  00212A  5153               	movf	(1+?___awmod)&0ffh,w
  8388  00212C  1152               	iorwf (0+?___awmod)&0ffh,w
  8389                           
  8390  00212E  B4D8               	btfsc	status,2
  8391  002130  EF9C  F010         	goto	u9601
  8392  002134  EF9E  F010         	goto	u9600
  8393  002138                     u9601:
  8394  002138  EF0D  F011         	goto	l594
  8395  00213C                     u9600:
  8396                           	line	731
  8397                           ;main.c: 731: wallMap[mouseY][mouseX] *= 3;
  8398  00213C  0E03               	movlw	low(03h)
  8399  00213E  0109               	movlb	9	; () banked
  8400  002140  0109               	movlb	9	; () banked
  8401  002142  6F3C               	movwf	(0+(?___wmul+02h))&0ffh
  8402  002144  0E00               	movlw	high(03h)
  8403  002146  0109               	movlb	9	; () banked
  8404  002148  6F3D               	movwf	(1+(?___wmul+02h))&0ffh
  8405  00214A  90D8               	bcf	status,0
  8406  00214C  0108               	movlb	8	; () banked
  8407  00214E  0108               	movlb	8	; () banked
  8408  002150  3502               	rlcf	((2050))&0ffh,w
  8409  002152  0109               	movlb	9	; () banked
  8410  002154  6F2A               	movwf	(??_CheckWalls+0+0)&0ffh
  8411  002156  0108               	movlb	8	; () banked
  8412  002158  0108               	movlb	8	; () banked
  8413  00215A  3503               	rlcf	((2050+1))&0ffh,w
  8414  00215C  0109               	movlb	9	; () banked
  8415  00215E  6F2B               	movwf	1+(??_CheckWalls+0+0)&0ffh
  8416  002160  0108               	movlb	8	; () banked
  8417  002162  C800 F92C          	movff	(2048),??_CheckWalls+2+0
  8418  002166  0108               	movlb	8	; () banked
  8419  002168  C801 F92D          	movff	(2048+1),??_CheckWalls+2+0+1
  8420  00216C  0E05               	movlw	05h
  8421  00216E                     u9615:
  8422  00216E  90D8               	bcf	status,0
  8423  002170  0109               	movlb	9	; () banked
  8424  002172  372C               	rlcf	(??_CheckWalls+2+0)&0ffh
  8425  002174  372D               	rlcf	(??_CheckWalls+2+1)&0ffh
  8426  002176  2EE8               	decfsz	wreg
  8427  002178  EFB7  F010         	goto	u9615
  8428  00217C  0E00               	movlw	low(0)
  8429  00217E  0109               	movlb	9	; () banked
  8430  002180  252C               	addwf	(??_CheckWalls+2+0)&0ffh,w
  8431  002182  0109               	movlb	9	; () banked
  8432  002184  6F2E               	movwf	(??_CheckWalls+4+0)&0ffh
  8433  002186  0E00               	movlw	high(0)
  8434  002188  0109               	movlb	9	; () banked
  8435  00218A  212D               	addwfc	(??_CheckWalls+2+1)&0ffh,w
  8436  00218C  0109               	movlb	9	; () banked
  8437  00218E  6F2F               	movwf	1+(??_CheckWalls+4+0)&0ffh
  8438  002190  0109               	movlb	9	; () banked
  8439  002192  512A               	movf	(??_CheckWalls+0+0)&0ffh,w
  8440  002194  0109               	movlb	9	; () banked
  8441  002196  252E               	addwf	(??_CheckWalls+4+0)&0ffh,w
  8442  002198  6EE9               	movwf	c:fsr0l
  8443  00219A  0109               	movlb	9	; () banked
  8444  00219C  512B               	movf	(??_CheckWalls+0+1)&0ffh,w
  8445  00219E  0109               	movlb	9	; () banked
  8446  0021A0  212F               	addwfc	(??_CheckWalls+4+1)&0ffh,w
  8447  0021A2  6EEA               	movwf	1+c:fsr0l
  8448  0021A4  0109               	movlb	9	; () banked
  8449  0021A6  CFEE F93A          	movff	postinc0,(?___wmul)
  8450  0021AA  0109               	movlb	9	; () banked
  8451  0021AC  CFED F93B          	movff	postdec0,(?___wmul+1)
  8452  0021B0  ECDA  F02E         	call	___wmul	;wreg free
  8453  0021B4  90D8               	bcf	status,0
  8454  0021B6  0108               	movlb	8	; () banked
  8455  0021B8  0108               	movlb	8	; () banked
  8456  0021BA  3502               	rlcf	((2050))&0ffh,w
  8457  0021BC  0109               	movlb	9	; () banked
  8458  0021BE  6F30               	movwf	(??_CheckWalls+6+0)&0ffh
  8459  0021C0  0108               	movlb	8	; () banked
  8460  0021C2  0108               	movlb	8	; () banked
  8461  0021C4  3503               	rlcf	((2050+1))&0ffh,w
  8462  0021C6  0109               	movlb	9	; () banked
  8463  0021C8  6F31               	movwf	1+(??_CheckWalls+6+0)&0ffh
  8464  0021CA  0108               	movlb	8	; () banked
  8465  0021CC  C800 F932          	movff	(2048),??_CheckWalls+8+0
  8466  0021D0  0108               	movlb	8	; () banked
  8467  0021D2  C801 F933          	movff	(2048+1),??_CheckWalls+8+0+1
  8468  0021D6  0E05               	movlw	05h
  8469  0021D8                     u9625:
  8470  0021D8  90D8               	bcf	status,0
  8471  0021DA  0109               	movlb	9	; () banked
  8472  0021DC  3732               	rlcf	(??_CheckWalls+8+0)&0ffh
  8473  0021DE  3733               	rlcf	(??_CheckWalls+8+1)&0ffh
  8474  0021E0  2EE8               	decfsz	wreg
  8475  0021E2  EFEC  F010         	goto	u9625
  8476  0021E6  0E00               	movlw	low(0)
  8477  0021E8  0109               	movlb	9	; () banked
  8478  0021EA  2532               	addwf	(??_CheckWalls+8+0)&0ffh,w
  8479  0021EC  0109               	movlb	9	; () banked
  8480  0021EE  6F34               	movwf	(??_CheckWalls+10+0)&0ffh
  8481  0021F0  0E00               	movlw	high(0)
  8482  0021F2  0109               	movlb	9	; () banked
  8483  0021F4  2133               	addwfc	(??_CheckWalls+8+1)&0ffh,w
  8484  0021F6  0109               	movlb	9	; () banked
  8485  0021F8  6F35               	movwf	1+(??_CheckWalls+10+0)&0ffh
  8486  0021FA  0109               	movlb	9	; () banked
  8487  0021FC  5130               	movf	(??_CheckWalls+6+0)&0ffh,w
  8488  0021FE  0109               	movlb	9	; () banked
  8489  002200  2534               	addwf	(??_CheckWalls+10+0)&0ffh,w
  8490  002202  6EE9               	movwf	c:fsr0l
  8491  002204  0109               	movlb	9	; () banked
  8492  002206  5131               	movf	(??_CheckWalls+6+1)&0ffh,w
  8493  002208  0109               	movlb	9	; () banked
  8494  00220A  2135               	addwfc	(??_CheckWalls+10+1)&0ffh,w
  8495  00220C  6EEA               	movwf	1+c:fsr0l
  8496  00220E  0109               	movlb	9	; () banked
  8497  002210  C93A  FFEE         	movff	0+?___wmul,postinc0
  8498  002214  0109               	movlb	9	; () banked
  8499  002216  C93B  FFED         	movff	1+?___wmul,postdec0
  8500                           
  8501                           	
  8502  00221A                     l594:		; BSR set to: ?
  8503                           
  8504                           	line	733
  8505                           ;main.c: 733: if((mouseY - 1 >= 0) && (wallMap[m
                                 ouseY-1][mouseX] % 7 != 0))
  8506  00221A  0EFF               	movlw	0FFh
  8507  00221C  0108               	movlb	8	; () banked
  8508  00221E  0108               	movlb	8	; () banked
  8509  002220  2500               	addwf	((2048))&0ffh,w
  8510  002222  0EFF               	movlw	0FFh
  8511  002224  0108               	movlb	8	; () banked
  8512  002226  2101               	addwfc	((2048+1))&0ffh,w
  8513  002228  0B80               	andlw	80h
  8514  00222A  A4D8               	btfss	status,2
  8515  00222C  EF1A  F011         	goto	u9631
  8516  002230  EF1C  F011         	goto	u9630
  8517  002234                     u9631:
  8518  002234  EFEF  F011         	goto	l593
  8519  002238                     u9630:
  8520  002238  0E07               	movlw	low(07h)
  8521  00223A  0109               	movlb	9	; () banked
  8522  00223C  0109               	movlb	9	; () banked
  8523  00223E  6F54               	movwf	(0+(?___awmod+02h))&0ffh
  8524  002240  0E00               	movlw	high(07h)
  8525  002242  0109               	movlb	9	; () banked
  8526  002244  6F55               	movwf	(1+(?___awmod+02h))&0ffh
  8527  002246  90D8               	bcf	status,0
  8528  002248  0108               	movlb	8	; () banked
  8529  00224A  0108               	movlb	8	; () banked
  8530  00224C  3502               	rlcf	((2050))&0ffh,w
  8531  00224E  0109               	movlb	9	; () banked
  8532  002250  6F2A               	movwf	(??_CheckWalls+0+0)&0ffh
  8533  002252  0108               	movlb	8	; () banked
  8534  002254  0108               	movlb	8	; () banked
  8535  002256  3503               	rlcf	((2050+1))&0ffh,w
  8536  002258  0109               	movlb	9	; () banked
  8537  00225A  6F2B               	movwf	1+(??_CheckWalls+0+0)&0ffh
  8538  00225C  0108               	movlb	8	; () banked
  8539  00225E  C800 F92C          	movff	(2048),??_CheckWalls+2+0
  8540  002262  0108               	movlb	8	; () banked
  8541  002264  C801 F92D          	movff	(2048+1),??_CheckWalls+2+0+1
  8542  002268  0E05               	movlw	05h
  8543  00226A                     u9645:
  8544  00226A  90D8               	bcf	status,0
  8545  00226C  0109               	movlb	9	; () banked
  8546  00226E  372C               	rlcf	(??_CheckWalls+2+0)&0ffh
  8547  002270  372D               	rlcf	(??_CheckWalls+2+1)&0ffh
  8548  002272  2EE8               	decfsz	wreg
  8549  002274  EF35  F011         	goto	u9645
  8550  002278  0EE0               	movlw	low(0FFE0h)
  8551  00227A  0109               	movlb	9	; () banked
  8552  00227C  252C               	addwf	(??_CheckWalls+2+0)&0ffh,w
  8553  00227E  0109               	movlb	9	; () banked
  8554  002280  6F2E               	movwf	(??_CheckWalls+4+0)&0ffh
  8555  002282  0EFF               	movlw	high(0FFE0h)
  8556  002284  0109               	movlb	9	; () banked
  8557  002286  212D               	addwfc	(??_CheckWalls+2+1)&0ffh,w
  8558  002288  0109               	movlb	9	; () banked
  8559  00228A  6F2F               	movwf	1+(??_CheckWalls+4+0)&0ffh
  8560  00228C  0E00               	movlw	low(0)
  8561  00228E  0109               	movlb	9	; () banked
  8562  002290  252E               	addwf	(??_CheckWalls+4+0)&0ffh,w
  8563  002292  0109               	movlb	9	; () banked
  8564  002294  6F30               	movwf	(??_CheckWalls+6+0)&0ffh
  8565  002296  0E00               	movlw	high(0)
  8566  002298  0109               	movlb	9	; () banked
  8567  00229A  212F               	addwfc	(??_CheckWalls+4+1)&0ffh,w
  8568  00229C  0109               	movlb	9	; () banked
  8569  00229E  6F31               	movwf	1+(??_CheckWalls+6+0)&0ffh
  8570  0022A0  0109               	movlb	9	; () banked
  8571  0022A2  512A               	movf	(??_CheckWalls+0+0)&0ffh,w
  8572  0022A4  0109               	movlb	9	; () banked
  8573  0022A6  2530               	addwf	(??_CheckWalls+6+0)&0ffh,w
  8574  0022A8  6EE9               	movwf	c:fsr0l
  8575  0022AA  0109               	movlb	9	; () banked
  8576  0022AC  512B               	movf	(??_CheckWalls+0+1)&0ffh,w
  8577  0022AE  0109               	movlb	9	; () banked
  8578  0022B0  2131               	addwfc	(??_CheckWalls+6+1)&0ffh,w
  8579  0022B2  6EEA               	movwf	1+c:fsr0l
  8580  0022B4  0109               	movlb	9	; () banked
  8581  0022B6  CFEE F952          	movff	postinc0,(?___awmod)
  8582  0022BA  0109               	movlb	9	; () banked
  8583  0022BC  CFED F953          	movff	postdec0,(?___awmod+1)
  8584  0022C0  EC94  F02D         	call	___awmod	;wreg free
  8585  0022C4  0109               	movlb	9	; () banked
  8586  0022C6  5153               	movf	(1+?___awmod)&0ffh,w
  8587  0022C8  1152               	iorwf (0+?___awmod)&0ffh,w
  8588                           
  8589  0022CA  B4D8               	btfsc	status,2
  8590  0022CC  EF6A  F011         	goto	u9651
  8591  0022D0  EF6C  F011         	goto	u9650
  8592  0022D4                     u9651:
  8593  0022D4  EFEF  F011         	goto	l593
  8594  0022D8                     u9650:
  8595                           	line	734
  8596                           ;main.c: 734: wallMap[mouseY-1][mouseX] *= 7;
  8597  0022D8  0E07               	movlw	low(07h)
  8598  0022DA  0109               	movlb	9	; () banked
  8599  0022DC  0109               	movlb	9	; () banked
  8600  0022DE  6F3C               	movwf	(0+(?___wmul+02h))&0ffh
  8601  0022E0  0E00               	movlw	high(07h)
  8602  0022E2  0109               	movlb	9	; () banked
  8603  0022E4  6F3D               	movwf	(1+(?___wmul+02h))&0ffh
  8604  0022E6  90D8               	bcf	status,0
  8605  0022E8  0108               	movlb	8	; () banked
  8606  0022EA  0108               	movlb	8	; () banked
  8607  0022EC  3502               	rlcf	((2050))&0ffh,w
  8608  0022EE  0109               	movlb	9	; () banked
  8609  0022F0  6F2A               	movwf	(??_CheckWalls+0+0)&0ffh
  8610  0022F2  0108               	movlb	8	; () banked
  8611  0022F4  0108               	movlb	8	; () banked
  8612  0022F6  3503               	rlcf	((2050+1))&0ffh,w
  8613  0022F8  0109               	movlb	9	; () banked
  8614  0022FA  6F2B               	movwf	1+(??_CheckWalls+0+0)&0ffh
  8615  0022FC  0108               	movlb	8	; () banked
  8616  0022FE  C800 F92C          	movff	(2048),??_CheckWalls+2+0
  8617  002302  0108               	movlb	8	; () banked
  8618  002304  C801 F92D          	movff	(2048+1),??_CheckWalls+2+0+1
  8619  002308  0E05               	movlw	05h
  8620  00230A                     u9665:
  8621  00230A  90D8               	bcf	status,0
  8622  00230C  0109               	movlb	9	; () banked
  8623  00230E  372C               	rlcf	(??_CheckWalls+2+0)&0ffh
  8624  002310  372D               	rlcf	(??_CheckWalls+2+1)&0ffh
  8625  002312  2EE8               	decfsz	wreg
  8626  002314  EF85  F011         	goto	u9665
  8627  002318  0EE0               	movlw	low(0FFE0h)
  8628  00231A  0109               	movlb	9	; () banked
  8629  00231C  252C               	addwf	(??_CheckWalls+2+0)&0ffh,w
  8630  00231E  0109               	movlb	9	; () banked
  8631  002320  6F2E               	movwf	(??_CheckWalls+4+0)&0ffh
  8632  002322  0EFF               	movlw	high(0FFE0h)
  8633  002324  0109               	movlb	9	; () banked
  8634  002326  212D               	addwfc	(??_CheckWalls+2+1)&0ffh,w
  8635  002328  0109               	movlb	9	; () banked
  8636  00232A  6F2F               	movwf	1+(??_CheckWalls+4+0)&0ffh
  8637  00232C  0E00               	movlw	low(0)
  8638  00232E  0109               	movlb	9	; () banked
  8639  002330  252E               	addwf	(??_CheckWalls+4+0)&0ffh,w
  8640  002332  0109               	movlb	9	; () banked
  8641  002334  6F30               	movwf	(??_CheckWalls+6+0)&0ffh
  8642  002336  0E00               	movlw	high(0)
  8643  002338  0109               	movlb	9	; () banked
  8644  00233A  212F               	addwfc	(??_CheckWalls+4+1)&0ffh,w
  8645  00233C  0109               	movlb	9	; () banked
  8646  00233E  6F31               	movwf	1+(??_CheckWalls+6+0)&0ffh
  8647  002340  0109               	movlb	9	; () banked
  8648  002342  512A               	movf	(??_CheckWalls+0+0)&0ffh,w
  8649  002344  0109               	movlb	9	; () banked
  8650  002346  2530               	addwf	(??_CheckWalls+6+0)&0ffh,w
  8651  002348  6EE9               	movwf	c:fsr0l
  8652  00234A  0109               	movlb	9	; () banked
  8653  00234C  512B               	movf	(??_CheckWalls+0+1)&0ffh,w
  8654  00234E  0109               	movlb	9	; () banked
  8655  002350  2131               	addwfc	(??_CheckWalls+6+1)&0ffh,w
  8656  002352  6EEA               	movwf	1+c:fsr0l
  8657  002354  0109               	movlb	9	; () banked
  8658  002356  CFEE F93A          	movff	postinc0,(?___wmul)
  8659  00235A  0109               	movlb	9	; () banked
  8660  00235C  CFED F93B          	movff	postdec0,(?___wmul+1)
  8661  002360  ECDA  F02E         	call	___wmul	;wreg free
  8662  002364  90D8               	bcf	status,0
  8663  002366  0108               	movlb	8	; () banked
  8664  002368  0108               	movlb	8	; () banked
  8665  00236A  3502               	rlcf	((2050))&0ffh,w
  8666  00236C  0109               	movlb	9	; () banked
  8667  00236E  6F32               	movwf	(??_CheckWalls+8+0)&0ffh
  8668  002370  0108               	movlb	8	; () banked
  8669  002372  0108               	movlb	8	; () banked
  8670  002374  3503               	rlcf	((2050+1))&0ffh,w
  8671  002376  0109               	movlb	9	; () banked
  8672  002378  6F33               	movwf	1+(??_CheckWalls+8+0)&0ffh
  8673  00237A  0108               	movlb	8	; () banked
  8674  00237C  C800 F934          	movff	(2048),??_CheckWalls+10+0
  8675  002380  0108               	movlb	8	; () banked
  8676  002382  C801 F935          	movff	(2048+1),??_CheckWalls+10+0+1
  8677  002386  0E05               	movlw	05h
  8678  002388                     u9675:
  8679  002388  90D8               	bcf	status,0
  8680  00238A  0109               	movlb	9	; () banked
  8681  00238C  3734               	rlcf	(??_CheckWalls+10+0)&0ffh
  8682  00238E  3735               	rlcf	(??_CheckWalls+10+1)&0ffh
  8683  002390  2EE8               	decfsz	wreg
  8684  002392  EFC4  F011         	goto	u9675
  8685  002396  0EE0               	movlw	low(0FFE0h)
  8686  002398  0109               	movlb	9	; () banked
  8687  00239A  2534               	addwf	(??_CheckWalls+10+0)&0ffh,w
  8688  00239C  0109               	movlb	9	; () banked
  8689  00239E  6F36               	movwf	(??_CheckWalls+12+0)&0ffh
  8690  0023A0  0EFF               	movlw	high(0FFE0h)
  8691  0023A2  0109               	movlb	9	; () banked
  8692  0023A4  2135               	addwfc	(??_CheckWalls+10+1)&0ffh,w
  8693  0023A6  0109               	movlb	9	; () banked
  8694  0023A8  6F37               	movwf	1+(??_CheckWalls+12+0)&0ffh
  8695  0023AA  0E00               	movlw	low(0)
  8696  0023AC  0109               	movlb	9	; () banked
  8697  0023AE  2536               	addwf	(??_CheckWalls+12+0)&0ffh,w
  8698  0023B0  0109               	movlb	9	; () banked
  8699  0023B2  6F38               	movwf	(??_CheckWalls+14+0)&0ffh
  8700  0023B4  0E00               	movlw	high(0)
  8701  0023B6  0109               	movlb	9	; () banked
  8702  0023B8  2137               	addwfc	(??_CheckWalls+12+1)&0ffh,w
  8703  0023BA  0109               	movlb	9	; () banked
  8704  0023BC  6F39               	movwf	1+(??_CheckWalls+14+0)&0ffh
  8705  0023BE  0109               	movlb	9	; () banked
  8706  0023C0  5132               	movf	(??_CheckWalls+8+0)&0ffh,w
  8707  0023C2  0109               	movlb	9	; () banked
  8708  0023C4  2538               	addwf	(??_CheckWalls+14+0)&0ffh,w
  8709  0023C6  6EE9               	movwf	c:fsr0l
  8710  0023C8  0109               	movlb	9	; () banked
  8711  0023CA  5133               	movf	(??_CheckWalls+8+1)&0ffh,w
  8712  0023CC  0109               	movlb	9	; () banked
  8713  0023CE  2139               	addwfc	(??_CheckWalls+14+1)&0ffh,w
  8714  0023D0  6EEA               	movwf	1+c:fsr0l
  8715  0023D2  0109               	movlb	9	; () banked
  8716  0023D4  C93A  FFEE         	movff	0+?___wmul,postinc0
  8717  0023D8  0109               	movlb	9	; () banked
  8718  0023DA  C93B  FFED         	movff	1+?___wmul,postdec0
  8719                           
  8720                           	
  8721  0023DE                     l595:		; BSR set to: ?
  8722                           
  8723                           	line	735
  8724                           	
  8725  0023DE                     l593:		; BSR set to: ?
  8726                           
  8727                           	line	737
  8728                           ;main.c: 735: }
  8729                           ;main.c: 737: if(RB2 == 0){
  8730  0023DE  B481               	btfsc	c:(31754/8),(31754)&7	;volatile
  8731  0023E0  EFF4  F011         	goto	u9681
  8732  0023E4  EFF6  F011         	goto	u9680
  8733  0023E8                     u9681:
  8734  0023E8  EF09  F005         	goto	l566
  8735  0023EC                     u9680:
  8736                           	line	738
  8737                           ;main.c: 738: if(wallMap[mouseY][mouseX] % 7 != 
                                 0);
  8738  0023EC  0E07               	movlw	low(07h)
  8739  0023EE  0109               	movlb	9	; () banked
  8740  0023F0  0109               	movlb	9	; () banked
  8741  0023F2  6F54               	movwf	(0+(?___awmod+02h))&0ffh
  8742  0023F4  0E00               	movlw	high(07h)
  8743  0023F6  0109               	movlb	9	; () banked
  8744  0023F8  6F55               	movwf	(1+(?___awmod+02h))&0ffh
  8745  0023FA  90D8               	bcf	status,0
  8746  0023FC  0108               	movlb	8	; () banked
  8747  0023FE  0108               	movlb	8	; () banked
  8748  002400  3502               	rlcf	((2050))&0ffh,w
  8749  002402  0109               	movlb	9	; () banked
  8750  002404  6F2A               	movwf	(??_CheckWalls+0+0)&0ffh
  8751  002406  0108               	movlb	8	; () banked
  8752  002408  0108               	movlb	8	; () banked
  8753  00240A  3503               	rlcf	((2050+1))&0ffh,w
  8754  00240C  0109               	movlb	9	; () banked
  8755  00240E  6F2B               	movwf	1+(??_CheckWalls+0+0)&0ffh
  8756  002410  0108               	movlb	8	; () banked
  8757  002412  C800 F92C          	movff	(2048),??_CheckWalls+2+0
  8758  002416  0108               	movlb	8	; () banked
  8759  002418  C801 F92D          	movff	(2048+1),??_CheckWalls+2+0+1
  8760  00241C  0E05               	movlw	05h
  8761  00241E                     u9695:
  8762  00241E  90D8               	bcf	status,0
  8763  002420  0109               	movlb	9	; () banked
  8764  002422  372C               	rlcf	(??_CheckWalls+2+0)&0ffh
  8765  002424  372D               	rlcf	(??_CheckWalls+2+1)&0ffh
  8766  002426  2EE8               	decfsz	wreg
  8767  002428  EF0F  F012         	goto	u9695
  8768  00242C  0E00               	movlw	low(0)
  8769  00242E  0109               	movlb	9	; () banked
  8770  002430  252C               	addwf	(??_CheckWalls+2+0)&0ffh,w
  8771  002432  0109               	movlb	9	; () banked
  8772  002434  6F2E               	movwf	(??_CheckWalls+4+0)&0ffh
  8773  002436  0E00               	movlw	high(0)
  8774  002438  0109               	movlb	9	; () banked
  8775  00243A  212D               	addwfc	(??_CheckWalls+2+1)&0ffh,w
  8776  00243C  0109               	movlb	9	; () banked
  8777  00243E  6F2F               	movwf	1+(??_CheckWalls+4+0)&0ffh
  8778  002440  0109               	movlb	9	; () banked
  8779  002442  512A               	movf	(??_CheckWalls+0+0)&0ffh,w
  8780  002444  0109               	movlb	9	; () banked
  8781  002446  252E               	addwf	(??_CheckWalls+4+0)&0ffh,w
  8782  002448  6EE9               	movwf	c:fsr0l
  8783  00244A  0109               	movlb	9	; () banked
  8784  00244C  512B               	movf	(??_CheckWalls+0+1)&0ffh,w
  8785  00244E  0109               	movlb	9	; () banked
  8786  002450  212F               	addwfc	(??_CheckWalls+4+1)&0ffh,w
  8787  002452  6EEA               	movwf	1+c:fsr0l
  8788  002454  0109               	movlb	9	; () banked
  8789  002456  CFEE F952          	movff	postinc0,(?___awmod)
  8790  00245A  0109               	movlb	9	; () banked
  8791  00245C  CFED F953          	movff	postdec0,(?___awmod+1)
  8792  002460  EC94  F02D         	call	___awmod	;wreg free
  8793  002464  0109               	movlb	9	; () banked
  8794  002466  5153               	movf	(1+?___awmod)&0ffh,w
  8795  002468  1152               	iorwf (0+?___awmod)&0ffh,w
  8796                           
  8797  00246A  B4D8               	btfsc	status,2
  8798  00246C  EF3A  F012         	goto	u9701
  8799  002470  EF3C  F012         	goto	u9700
  8800  002474                     u9701:
  8801  002474  EF3C  F012         	goto	l597
  8802  002478                     u9700:
  8803                           	
  8804  002478                     l597:		; BSR set to: ?
  8805                           
  8806                           	line	739
  8807                           ;main.c: 739: wallMap[mouseY][mouseX] *= 7;
  8808  002478  0E07               	movlw	low(07h)
  8809  00247A  0109               	movlb	9	; () banked
  8810  00247C  0109               	movlb	9	; () banked
  8811  00247E  6F3C               	movwf	(0+(?___wmul+02h))&0ffh
  8812  002480  0E00               	movlw	high(07h)
  8813  002482  0109               	movlb	9	; () banked
  8814  002484  6F3D               	movwf	(1+(?___wmul+02h))&0ffh
  8815  002486  90D8               	bcf	status,0
  8816  002488  0108               	movlb	8	; () banked
  8817  00248A  0108               	movlb	8	; () banked
  8818  00248C  3502               	rlcf	((2050))&0ffh,w
  8819  00248E  0109               	movlb	9	; () banked
  8820  002490  6F2A               	movwf	(??_CheckWalls+0+0)&0ffh
  8821  002492  0108               	movlb	8	; () banked
  8822  002494  0108               	movlb	8	; () banked
  8823  002496  3503               	rlcf	((2050+1))&0ffh,w
  8824  002498  0109               	movlb	9	; () banked
  8825  00249A  6F2B               	movwf	1+(??_CheckWalls+0+0)&0ffh
  8826  00249C  0108               	movlb	8	; () banked
  8827  00249E  C800 F92C          	movff	(2048),??_CheckWalls+2+0
  8828  0024A2  0108               	movlb	8	; () banked
  8829  0024A4  C801 F92D          	movff	(2048+1),??_CheckWalls+2+0+1
  8830  0024A8  0E05               	movlw	05h
  8831  0024AA                     u9715:
  8832  0024AA  90D8               	bcf	status,0
  8833  0024AC  0109               	movlb	9	; () banked
  8834  0024AE  372C               	rlcf	(??_CheckWalls+2+0)&0ffh
  8835  0024B0  372D               	rlcf	(??_CheckWalls+2+1)&0ffh
  8836  0024B2  2EE8               	decfsz	wreg
  8837  0024B4  EF55  F012         	goto	u9715
  8838  0024B8  0E00               	movlw	low(0)
  8839  0024BA  0109               	movlb	9	; () banked
  8840  0024BC  252C               	addwf	(??_CheckWalls+2+0)&0ffh,w
  8841  0024BE  0109               	movlb	9	; () banked
  8842  0024C0  6F2E               	movwf	(??_CheckWalls+4+0)&0ffh
  8843  0024C2  0E00               	movlw	high(0)
  8844  0024C4  0109               	movlb	9	; () banked
  8845  0024C6  212D               	addwfc	(??_CheckWalls+2+1)&0ffh,w
  8846  0024C8  0109               	movlb	9	; () banked
  8847  0024CA  6F2F               	movwf	1+(??_CheckWalls+4+0)&0ffh
  8848  0024CC  0109               	movlb	9	; () banked
  8849  0024CE  512A               	movf	(??_CheckWalls+0+0)&0ffh,w
  8850  0024D0  0109               	movlb	9	; () banked
  8851  0024D2  252E               	addwf	(??_CheckWalls+4+0)&0ffh,w
  8852  0024D4  6EE9               	movwf	c:fsr0l
  8853  0024D6  0109               	movlb	9	; () banked
  8854  0024D8  512B               	movf	(??_CheckWalls+0+1)&0ffh,w
  8855  0024DA  0109               	movlb	9	; () banked
  8856  0024DC  212F               	addwfc	(??_CheckWalls+4+1)&0ffh,w
  8857  0024DE  6EEA               	movwf	1+c:fsr0l
  8858  0024E0  0109               	movlb	9	; () banked
  8859  0024E2  CFEE F93A          	movff	postinc0,(?___wmul)
  8860  0024E6  0109               	movlb	9	; () banked
  8861  0024E8  CFED F93B          	movff	postdec0,(?___wmul+1)
  8862  0024EC  ECDA  F02E         	call	___wmul	;wreg free
  8863  0024F0  90D8               	bcf	status,0
  8864  0024F2  0108               	movlb	8	; () banked
  8865  0024F4  0108               	movlb	8	; () banked
  8866  0024F6  3502               	rlcf	((2050))&0ffh,w
  8867  0024F8  0109               	movlb	9	; () banked
  8868  0024FA  6F30               	movwf	(??_CheckWalls+6+0)&0ffh
  8869  0024FC  0108               	movlb	8	; () banked
  8870  0024FE  0108               	movlb	8	; () banked
  8871  002500  3503               	rlcf	((2050+1))&0ffh,w
  8872  002502  0109               	movlb	9	; () banked
  8873  002504  6F31               	movwf	1+(??_CheckWalls+6+0)&0ffh
  8874  002506  0108               	movlb	8	; () banked
  8875  002508  C800 F932          	movff	(2048),??_CheckWalls+8+0
  8876  00250C  0108               	movlb	8	; () banked
  8877  00250E  C801 F933          	movff	(2048+1),??_CheckWalls+8+0+1
  8878  002512  0E05               	movlw	05h
  8879  002514                     u9725:
  8880  002514  90D8               	bcf	status,0
  8881  002516  0109               	movlb	9	; () banked
  8882  002518  3732               	rlcf	(??_CheckWalls+8+0)&0ffh
  8883  00251A  3733               	rlcf	(??_CheckWalls+8+1)&0ffh
  8884  00251C  2EE8               	decfsz	wreg
  8885  00251E  EF8A  F012         	goto	u9725
  8886  002522  0E00               	movlw	low(0)
  8887  002524  0109               	movlb	9	; () banked
  8888  002526  2532               	addwf	(??_CheckWalls+8+0)&0ffh,w
  8889  002528  0109               	movlb	9	; () banked
  8890  00252A  6F34               	movwf	(??_CheckWalls+10+0)&0ffh
  8891  00252C  0E00               	movlw	high(0)
  8892  00252E  0109               	movlb	9	; () banked
  8893  002530  2133               	addwfc	(??_CheckWalls+8+1)&0ffh,w
  8894  002532  0109               	movlb	9	; () banked
  8895  002534  6F35               	movwf	1+(??_CheckWalls+10+0)&0ffh
  8896  002536  0109               	movlb	9	; () banked
  8897  002538  5130               	movf	(??_CheckWalls+6+0)&0ffh,w
  8898  00253A  0109               	movlb	9	; () banked
  8899  00253C  2534               	addwf	(??_CheckWalls+10+0)&0ffh,w
  8900  00253E  6EE9               	movwf	c:fsr0l
  8901  002540  0109               	movlb	9	; () banked
  8902  002542  5131               	movf	(??_CheckWalls+6+1)&0ffh,w
  8903  002544  0109               	movlb	9	; () banked
  8904  002546  2135               	addwfc	(??_CheckWalls+10+1)&0ffh,w
  8905  002548  6EEA               	movwf	1+c:fsr0l
  8906  00254A  0109               	movlb	9	; () banked
  8907  00254C  C93A  FFEE         	movff	0+?___wmul,postinc0
  8908  002550  0109               	movlb	9	; () banked
  8909  002552  C93B  FFED         	movff	1+?___wmul,postdec0
  8910                           
  8911                           	line	741
  8912                           ;main.c: 741: if((mouseY + 1 < 16) && (wallMap[m
                                 ouseY+1][mouseX] % 3 != 0))
  8913  002556  0E01               	movlw	01h
  8914  002558  0108               	movlb	8	; () banked
  8915  00255A  0108               	movlb	8	; () banked
  8916  00255C  2500               	addwf	((2048))&0ffh,w
  8917  00255E  0109               	movlb	9	; () banked
  8918  002560  6F2A               	movwf	(??_CheckWalls+0+0)&0ffh
  8919  002562  0E00               	movlw	0
  8920  002564  0108               	movlb	8	; () banked
  8921  002566  0108               	movlb	8	; () banked
  8922  002568  2101               	addwfc	((2048+1))&0ffh,w
  8923  00256A  0109               	movlb	9	; () banked
  8924  00256C  6F2B               	movwf	(??_CheckWalls+0+0+1)&0ffh
  8925  00256E  0109               	movlb	9	; () banked
  8926  002570  512B               	movf	(??_CheckWalls+0+1)&0ffh,w
  8927  002572  0A80               	xorlw	80h
  8928  002574  0F80               	addlw	-((0)^80h)
  8929  002576  0E10               	movlw	010h
  8930  002578  B4D8               	btfsc	status,2
  8931  00257A  5D2A               	subwf	(??_CheckWalls+0+0)&0ffh,w
  8932  00257C  B0D8               	btfsc	status,0
  8933  00257E  EFC3  F012         	goto	u9731
  8934  002582  EFC5  F012         	goto	u9730
  8935  002586                     u9731:
  8936  002586  EF89  F013         	goto	l596
  8937  00258A                     u9730:
  8938  00258A  0E03               	movlw	low(03h)
  8939  00258C  0109               	movlb	9	; () banked
  8940  00258E  0109               	movlb	9	; () banked
  8941  002590  6F54               	movwf	(0+(?___awmod+02h))&0ffh
  8942  002592  0E00               	movlw	high(03h)
  8943  002594  0109               	movlb	9	; () banked
  8944  002596  6F55               	movwf	(1+(?___awmod+02h))&0ffh
  8945  002598  90D8               	bcf	status,0
  8946  00259A  0108               	movlb	8	; () banked
  8947  00259C  0108               	movlb	8	; () banked
  8948  00259E  3502               	rlcf	((2050))&0ffh,w
  8949  0025A0  0109               	movlb	9	; () banked
  8950  0025A2  6F2A               	movwf	(??_CheckWalls+0+0)&0ffh
  8951  0025A4  0108               	movlb	8	; () banked
  8952  0025A6  0108               	movlb	8	; () banked
  8953  0025A8  3503               	rlcf	((2050+1))&0ffh,w
  8954  0025AA  0109               	movlb	9	; () banked
  8955  0025AC  6F2B               	movwf	1+(??_CheckWalls+0+0)&0ffh
  8956  0025AE  0108               	movlb	8	; () banked
  8957  0025B0  C800 F92C          	movff	(2048),??_CheckWalls+2+0
  8958  0025B4  0108               	movlb	8	; () banked
  8959  0025B6  C801 F92D          	movff	(2048+1),??_CheckWalls+2+0+1
  8960  0025BA  0E05               	movlw	05h
  8961  0025BC                     u9745:
  8962  0025BC  90D8               	bcf	status,0
  8963  0025BE  0109               	movlb	9	; () banked
  8964  0025C0  372C               	rlcf	(??_CheckWalls+2+0)&0ffh
  8965  0025C2  372D               	rlcf	(??_CheckWalls+2+1)&0ffh
  8966  0025C4  2EE8               	decfsz	wreg
  8967  0025C6  EFDE  F012         	goto	u9745
  8968  0025CA  0E20               	movlw	020h
  8969  0025CC  0109               	movlb	9	; () banked
  8970  0025CE  272C               	addwf	(??_CheckWalls+2+0)&0ffh
  8971  0025D0  0E00               	movlw	0
  8972  0025D2  232D               	addwfc	(??_CheckWalls+2+1)&0ffh
  8973  0025D4  0E00               	movlw	low(0)
  8974  0025D6  0109               	movlb	9	; () banked
  8975  0025D8  252C               	addwf	(??_CheckWalls+2+0)&0ffh,w
  8976  0025DA  0109               	movlb	9	; () banked
  8977  0025DC  6F2E               	movwf	(??_CheckWalls+4+0)&0ffh
  8978  0025DE  0E00               	movlw	high(0)
  8979  0025E0  0109               	movlb	9	; () banked
  8980  0025E2  212D               	addwfc	(??_CheckWalls+2+1)&0ffh,w
  8981  0025E4  0109               	movlb	9	; () banked
  8982  0025E6  6F2F               	movwf	1+(??_CheckWalls+4+0)&0ffh
  8983  0025E8  0109               	movlb	9	; () banked
  8984  0025EA  512A               	movf	(??_CheckWalls+0+0)&0ffh,w
  8985  0025EC  0109               	movlb	9	; () banked
  8986  0025EE  252E               	addwf	(??_CheckWalls+4+0)&0ffh,w
  8987  0025F0  6EE9               	movwf	c:fsr0l
  8988  0025F2  0109               	movlb	9	; () banked
  8989  0025F4  512B               	movf	(??_CheckWalls+0+1)&0ffh,w
  8990  0025F6  0109               	movlb	9	; () banked
  8991  0025F8  212F               	addwfc	(??_CheckWalls+4+1)&0ffh,w
  8992  0025FA  6EEA               	movwf	1+c:fsr0l
  8993  0025FC  0109               	movlb	9	; () banked
  8994  0025FE  CFEE F952          	movff	postinc0,(?___awmod)
  8995  002602  0109               	movlb	9	; () banked
  8996  002604  CFED F953          	movff	postdec0,(?___awmod+1)
  8997  002608  EC94  F02D         	call	___awmod	;wreg free
  8998  00260C  0109               	movlb	9	; () banked
  8999  00260E  5153               	movf	(1+?___awmod)&0ffh,w
  9000  002610  1152               	iorwf (0+?___awmod)&0ffh,w
  9001                           
  9002  002612  B4D8               	btfsc	status,2
  9003  002614  EF0E  F013         	goto	u9751
  9004  002618  EF10  F013         	goto	u9750
  9005  00261C                     u9751:
  9006  00261C  EF89  F013         	goto	l596
  9007  002620                     u9750:
  9008                           	line	742
  9009                           ;main.c: 742: wallMap[mouseY+1][mouseX] *= 3;
  9010  002620  0E03               	movlw	low(03h)
  9011  002622  0109               	movlb	9	; () banked
  9012  002624  0109               	movlb	9	; () banked
  9013  002626  6F3C               	movwf	(0+(?___wmul+02h))&0ffh
  9014  002628  0E00               	movlw	high(03h)
  9015  00262A  0109               	movlb	9	; () banked
  9016  00262C  6F3D               	movwf	(1+(?___wmul+02h))&0ffh
  9017  00262E  90D8               	bcf	status,0
  9018  002630  0108               	movlb	8	; () banked
  9019  002632  0108               	movlb	8	; () banked
  9020  002634  3502               	rlcf	((2050))&0ffh,w
  9021  002636  0109               	movlb	9	; () banked
  9022  002638  6F2A               	movwf	(??_CheckWalls+0+0)&0ffh
  9023  00263A  0108               	movlb	8	; () banked
  9024  00263C  0108               	movlb	8	; () banked
  9025  00263E  3503               	rlcf	((2050+1))&0ffh,w
  9026  002640  0109               	movlb	9	; () banked
  9027  002642  6F2B               	movwf	1+(??_CheckWalls+0+0)&0ffh
  9028  002644  0108               	movlb	8	; () banked
  9029  002646  C800 F92C          	movff	(2048),??_CheckWalls+2+0
  9030  00264A  0108               	movlb	8	; () banked
  9031  00264C  C801 F92D          	movff	(2048+1),??_CheckWalls+2+0+1
  9032  002650  0E05               	movlw	05h
  9033  002652                     u9765:
  9034  002652  90D8               	bcf	status,0
  9035  002654  0109               	movlb	9	; () banked
  9036  002656  372C               	rlcf	(??_CheckWalls+2+0)&0ffh
  9037  002658  372D               	rlcf	(??_CheckWalls+2+1)&0ffh
  9038  00265A  2EE8               	decfsz	wreg
  9039  00265C  EF29  F013         	goto	u9765
  9040  002660  0E20               	movlw	020h
  9041  002662  0109               	movlb	9	; () banked
  9042  002664  272C               	addwf	(??_CheckWalls+2+0)&0ffh
  9043  002666  0E00               	movlw	0
  9044  002668  232D               	addwfc	(??_CheckWalls+2+1)&0ffh
  9045  00266A  0E00               	movlw	low(0)
  9046  00266C  0109               	movlb	9	; () banked
  9047  00266E  252C               	addwf	(??_CheckWalls+2+0)&0ffh,w
  9048  002670  0109               	movlb	9	; () banked
  9049  002672  6F2E               	movwf	(??_CheckWalls+4+0)&0ffh
  9050  002674  0E00               	movlw	high(0)
  9051  002676  0109               	movlb	9	; () banked
  9052  002678  212D               	addwfc	(??_CheckWalls+2+1)&0ffh,w
  9053  00267A  0109               	movlb	9	; () banked
  9054  00267C  6F2F               	movwf	1+(??_CheckWalls+4+0)&0ffh
  9055  00267E  0109               	movlb	9	; () banked
  9056  002680  512A               	movf	(??_CheckWalls+0+0)&0ffh,w
  9057  002682  0109               	movlb	9	; () banked
  9058  002684  252E               	addwf	(??_CheckWalls+4+0)&0ffh,w
  9059  002686  6EE9               	movwf	c:fsr0l
  9060  002688  0109               	movlb	9	; () banked
  9061  00268A  512B               	movf	(??_CheckWalls+0+1)&0ffh,w
  9062  00268C  0109               	movlb	9	; () banked
  9063  00268E  212F               	addwfc	(??_CheckWalls+4+1)&0ffh,w
  9064  002690  6EEA               	movwf	1+c:fsr0l
  9065  002692  0109               	movlb	9	; () banked
  9066  002694  CFEE F93A          	movff	postinc0,(?___wmul)
  9067  002698  0109               	movlb	9	; () banked
  9068  00269A  CFED F93B          	movff	postdec0,(?___wmul+1)
  9069  00269E  ECDA  F02E         	call	___wmul	;wreg free
  9070  0026A2  90D8               	bcf	status,0
  9071  0026A4  0108               	movlb	8	; () banked
  9072  0026A6  0108               	movlb	8	; () banked
  9073  0026A8  3502               	rlcf	((2050))&0ffh,w
  9074  0026AA  0109               	movlb	9	; () banked
  9075  0026AC  6F30               	movwf	(??_CheckWalls+6+0)&0ffh
  9076  0026AE  0108               	movlb	8	; () banked
  9077  0026B0  0108               	movlb	8	; () banked
  9078  0026B2  3503               	rlcf	((2050+1))&0ffh,w
  9079  0026B4  0109               	movlb	9	; () banked
  9080  0026B6  6F31               	movwf	1+(??_CheckWalls+6+0)&0ffh
  9081  0026B8  0108               	movlb	8	; () banked
  9082  0026BA  C800 F932          	movff	(2048),??_CheckWalls+8+0
  9083  0026BE  0108               	movlb	8	; () banked
  9084  0026C0  C801 F933          	movff	(2048+1),??_CheckWalls+8+0+1
  9085  0026C4  0E05               	movlw	05h
  9086  0026C6                     u9775:
  9087  0026C6  90D8               	bcf	status,0
  9088  0026C8  0109               	movlb	9	; () banked
  9089  0026CA  3732               	rlcf	(??_CheckWalls+8+0)&0ffh
  9090  0026CC  3733               	rlcf	(??_CheckWalls+8+1)&0ffh
  9091  0026CE  2EE8               	decfsz	wreg
  9092  0026D0  EF63  F013         	goto	u9775
  9093  0026D4  0E20               	movlw	020h
  9094  0026D6  0109               	movlb	9	; () banked
  9095  0026D8  2732               	addwf	(??_CheckWalls+8+0)&0ffh
  9096  0026DA  0E00               	movlw	0
  9097  0026DC  2333               	addwfc	(??_CheckWalls+8+1)&0ffh
  9098  0026DE  0E00               	movlw	low(0)
  9099  0026E0  0109               	movlb	9	; () banked
  9100  0026E2  2532               	addwf	(??_CheckWalls+8+0)&0ffh,w
  9101  0026E4  0109               	movlb	9	; () banked
  9102  0026E6  6F34               	movwf	(??_CheckWalls+10+0)&0ffh
  9103  0026E8  0E00               	movlw	high(0)
  9104  0026EA  0109               	movlb	9	; () banked
  9105  0026EC  2133               	addwfc	(??_CheckWalls+8+1)&0ffh,w
  9106  0026EE  0109               	movlb	9	; () banked
  9107  0026F0  6F35               	movwf	1+(??_CheckWalls+10+0)&0ffh
  9108  0026F2  0109               	movlb	9	; () banked
  9109  0026F4  5130               	movf	(??_CheckWalls+6+0)&0ffh,w
  9110  0026F6  0109               	movlb	9	; () banked
  9111  0026F8  2534               	addwf	(??_CheckWalls+10+0)&0ffh,w
  9112  0026FA  6EE9               	movwf	c:fsr0l
  9113  0026FC  0109               	movlb	9	; () banked
  9114  0026FE  5131               	movf	(??_CheckWalls+6+1)&0ffh,w
  9115  002700  0109               	movlb	9	; () banked
  9116  002702  2135               	addwfc	(??_CheckWalls+10+1)&0ffh,w
  9117  002704  6EEA               	movwf	1+c:fsr0l
  9118  002706  0109               	movlb	9	; () banked
  9119  002708  C93A  FFEE         	movff	0+?___wmul,postinc0
  9120  00270C  0109               	movlb	9	; () banked
  9121  00270E  C93B  FFED         	movff	1+?___wmul,postdec0
  9122                           
  9123                           	
  9124  002712                     l598:		; BSR set to: ?
  9125                           
  9126                           	line	743
  9127                           	
  9128  002712                     l596:		; BSR set to: ?
  9129                           
  9130                           	line	745
  9131                           ;main.c: 743: }
  9132                           ;main.c: 745: break;
  9133  002712  EFAE  F013         	goto	l557
  9134                           	line	634
  9135                           	
  9136  002716                     l558:		; BSR set to: ?
  9137                           
  9138  002716  0108               	movlb	8	; () banked
  9139  002718  C806 F92A          	movff	(2054),??_CheckWalls+0+0
  9140  00271C  0108               	movlb	8	; () banked
  9141  00271E  C807 F92B          	movff	(2054+1),??_CheckWalls+0+0+1
  9142  002722  0109               	movlb	9	; () banked
  9143  002724  EFA8  F013         	goto	l30045
  9144  002728                     l30046:
  9145  002728  0109               	movlb	9	; () banked
  9146  00272A  512A               	movf	(??_CheckWalls+0+0)&0ffh,w
  9147  00272C  0A03               	xorlw	3 ^ 0
  9148  00272E  E102 EF38  F000    	bz	l559
  9149  002734  0A06               	xorlw	5 ^ 3
  9150  002736  E102 EF0B  F005    	bz	l569
  9151  00273C  0A02               	xorlw	7 ^ 5
  9152  00273E  E102 EFDF  F009    	bz	l579
  9153  002744  0A0A               	xorlw	13 ^ 7
  9154  002746  E102 EFB3  F00E    	bz	l589
  9155  00274C  EFAE  F013         	goto	l557
  9156                           
  9157  002750                     l30045:
  9158  002750  0109               	movlb	9	; () banked
  9159  002752  512B               	movf	(??_CheckWalls+0+1)&0ffh,w
  9160  002754  0A00               	xorlw	0 ^ 0
  9161  002756  E0E8               	bz	l30046
  9162  002758  EFAE  F013         	goto	l557
  9163                           
  9164                           	line	746
  9165                           	
  9166  00275C                     l557:		; BSR set to: ?
  9167                           
  9168                           	line	748
  9169                           ;main.c: 748: }
  9170  00275C                     l556:
  9171                           			; BSR set to: ?
  9172                           
  9173  00275C  0012               	return
  9174                           	opt stack 0
  9175                           GLOBAL __end_of_CheckWalls
  9176  00275E                     	__end_of_CheckWalls:
  9177                           	FNSIZE	_CheckWalls,16,0
  9178                           ; =============== function _CheckWalls ends ====
                                 ========
  9179                           
  9180                           	signat	_CheckWalls,88
  9181                           	global	_TurnToDirection
  9182                           	global	??_TurnToDirection
  9183                           	global	?_TurnToDirection
  9184                           
  9185                           ; *************** function _TurnToDirection ****
                                 *************
  9186                           ; Defined at:
  9187                           ;		line 815 in file "C:\Users\tab\Desktop\electr
                                 onics\micro_mouse\WORKING_SAC\main.c"
  9188                           ; Parameters:
  9189                           ;		dir            size:   2offs:   0	type: int 
  9190                           ; Auto variables:
  9191                           ;		dirCount    	       	type: int 
  9192                           ;		fixedDir    	       	type: int 
  9193                           ; Return value:
  9194                           ;		type: void 
  9195                           ;		size: 0
  9196                           ; Registers used:
  9197                           ;		wreg, fsr0l, fsr0h, status,2, status,0, cstac
                                 k
  9198                           ; Tracked objects:
  9199                           ;		On entry : 0/0
  9200                           ;		On exit  : 0/0
  9201                           ;		Unchanged: 0/0
  9202                           ; Data sizes:
  9203                           ;		Autos:    4
  9204                           ;		Params:   2
  9205                           ;		Temp:     2
  9206                           ;		Total:    8
  9207                           ; This function calls:
  9208                           ;		_TurnRight
  9209                           ;		_TurnAround
  9210                           ;		_TurnLeft
  9211                           ; This function is called by:
  9212                           ;		_SolveMaze
  9213                           ; This function uses a non-reentrant model
  9214                           ; 
  9215                                   psect   text7,class=CODE,space=0,reloc=2
  9216                           
  9217                           	opt lm
  9218                           	file	"C:\Users\tab\Desktop\electronics\micro_mo
                                 use\WORKING_SAC\main.c"
  9219                           	line	815
  9220  000000                     	__size_of_TurnToDirection	equ	__end_of_TurnToDi
                                 rection-_TurnToDirection
  9221                           ;main.c: 815: void TurnToDirection(int dir){
  9222                           	
  9223  004C60                     _TurnToDirection:		; BSR set to: ?
  9224                           
  9225                           	opt stack 28
  9226                           	line	819
  9227                           ;main.c: 816: signed int dirCount;
  9228                           ;main.c: 817: int fixedDir;
  9229                           ;main.c: 819: backMoveCount++;
  9230  004C60  0108               	movlb	8	; () banked
  9231  004C62  0108               	movlb	8	; () banked
  9232  004C64  4B15               	infsnz	((2069))&0ffh
  9233  004C66  2B16               	incf	((2069+1))&0ffh
  9234                           	line	821
  9235                           ;main.c: 821: if(mouseDirection == 3)
  9236  004C68  0108               	movlb	8	; () banked
  9237  004C6A  0108               	movlb	8	; () banked
  9238  004C6C  5106               	movf	((2054))&0ffh,w
  9239  004C6E  0A03               	xorlw	3
  9240  004C70  1107               	iorwf ((2054+1))&0ffh,w
  9241                           
  9242  004C72  A4D8               	btfss	status,2
  9243  004C74  EF3E  F026         	goto	u10081
  9244  004C78  EF40  F026         	goto	u10080
  9245  004C7C                     u10081:
  9246  004C7C  EF49  F026         	goto	l644
  9247  004C80                     u10080:
  9248                           	line	822
  9249                           ;main.c: 822: fixedDir = 0;
  9250  004C80  0E00               	movlw	low(0)
  9251  004C82  0109               	movlb	9	; () banked
  9252  004C84  0109               	movlb	9	; () banked
  9253  004C86  6F2E               	movwf	((TurnToDirection@fixedDir))&0ffh
  9254  004C88  0E00               	movlw	high(0)
  9255  004C8A  0109               	movlb	9	; () banked
  9256  004C8C  6F2F               	movwf	((TurnToDirection@fixedDir+1))&0ffh
  9257  004C8E  EF86  F026         	goto	l645
  9258                           	line	823
  9259                           	
  9260  004C92                     l644:		; BSR set to: ?
  9261                           
  9262                           ;main.c: 823: else if(mouseDirection == 5)
  9263  004C92  0108               	movlb	8	; () banked
  9264  004C94  0108               	movlb	8	; () banked
  9265  004C96  5106               	movf	((2054))&0ffh,w
  9266  004C98  0A05               	xorlw	5
  9267  004C9A  1107               	iorwf ((2054+1))&0ffh,w
  9268                           
  9269  004C9C  A4D8               	btfss	status,2
  9270  004C9E  EF53  F026         	goto	u10091
  9271  004CA2  EF55  F026         	goto	u10090
  9272  004CA6                     u10091:
  9273  004CA6  EF5E  F026         	goto	l646
  9274  004CAA                     u10090:
  9275                           	line	824
  9276                           ;main.c: 824: fixedDir = 1;
  9277  004CAA  0E01               	movlw	low(01h)
  9278  004CAC  0109               	movlb	9	; () banked
  9279  004CAE  0109               	movlb	9	; () banked
  9280  004CB0  6F2E               	movwf	((TurnToDirection@fixedDir))&0ffh
  9281  004CB2  0E00               	movlw	high(01h)
  9282  004CB4  0109               	movlb	9	; () banked
  9283  004CB6  6F2F               	movwf	((TurnToDirection@fixedDir+1))&0ffh
  9284  004CB8  EF86  F026         	goto	l645
  9285                           	line	825
  9286                           	
  9287  004CBC                     l646:		; BSR set to: ?
  9288                           
  9289                           ;main.c: 825: else if(mouseDirection == 7)
  9290  004CBC  0108               	movlb	8	; () banked
  9291  004CBE  0108               	movlb	8	; () banked
  9292  004CC0  5106               	movf	((2054))&0ffh,w
  9293  004CC2  0A07               	xorlw	7
  9294  004CC4  1107               	iorwf ((2054+1))&0ffh,w
  9295                           
  9296  004CC6  A4D8               	btfss	status,2
  9297  004CC8  EF68  F026         	goto	u10101
  9298  004CCC  EF6A  F026         	goto	u10100
  9299  004CD0                     u10101:
  9300  004CD0  EF73  F026         	goto	l648
  9301  004CD4                     u10100:
  9302                           	line	826
  9303                           ;main.c: 826: fixedDir = 2;
  9304  004CD4  0E02               	movlw	low(02h)
  9305  004CD6  0109               	movlb	9	; () banked
  9306  004CD8  0109               	movlb	9	; () banked
  9307  004CDA  6F2E               	movwf	((TurnToDirection@fixedDir))&0ffh
  9308  004CDC  0E00               	movlw	high(02h)
  9309  004CDE  0109               	movlb	9	; () banked
  9310  004CE0  6F2F               	movwf	((TurnToDirection@fixedDir+1))&0ffh
  9311  004CE2  EF86  F026         	goto	l645
  9312                           	line	827
  9313                           	
  9314  004CE6                     l648:		; BSR set to: ?
  9315                           
  9316                           ;main.c: 827: else if(mouseDirection == 13)
  9317  004CE6  0108               	movlb	8	; () banked
  9318  004CE8  0108               	movlb	8	; () banked
  9319  004CEA  5106               	movf	((2054))&0ffh,w
  9320  004CEC  0A0D               	xorlw	13
  9321  004CEE  1107               	iorwf ((2054+1))&0ffh,w
  9322                           
  9323  004CF0  A4D8               	btfss	status,2
  9324  004CF2  EF7D  F026         	goto	u10111
  9325  004CF6  EF7F  F026         	goto	u10110
  9326  004CFA                     u10111:
  9327  004CFA  EF86  F026         	goto	l645
  9328  004CFE                     u10110:
  9329                           	line	828
  9330                           ;main.c: 828: fixedDir = 3;
  9331  004CFE  0E03               	movlw	low(03h)
  9332  004D00  0109               	movlb	9	; () banked
  9333  004D02  0109               	movlb	9	; () banked
  9334  004D04  6F2E               	movwf	((TurnToDirection@fixedDir))&0ffh
  9335  004D06  0E00               	movlw	high(03h)
  9336  004D08  0109               	movlb	9	; () banked
  9337  004D0A  6F2F               	movwf	((TurnToDirection@fixedDir+1))&0ffh
  9338                           	
  9339  004D0C                     l650:		; BSR set to: ?
  9340                           
  9341                           	line	830
  9342                           	
  9343  004D0C                     l649:		; BSR set to: ?
  9344                           
  9345                           	
  9346  004D0C                     l647:		; BSR set to: ?
  9347                           
  9348                           	
  9349  004D0C                     l645:		; BSR set to: ?
  9350                           
  9351                           ;main.c: 830: if(dir == 3)
  9352  004D0C  0109               	movlb	9	; () banked
  9353  004D0E  0109               	movlb	9	; () banked
  9354  004D10  512A               	movf	((TurnToDirection@dir))&0ffh,w
  9355  004D12  0A03               	xorlw	3
  9356  004D14  112B               	iorwf ((TurnToDirection@dir+1))&0ffh,w
  9357                           
  9358  004D16  A4D8               	btfss	status,2
  9359  004D18  EF90  F026         	goto	u10121
  9360  004D1C  EF92  F026         	goto	u10120
  9361  004D20                     u10121:
  9362  004D20  EF9B  F026         	goto	l651
  9363  004D24                     u10120:
  9364                           	line	831
  9365                           ;main.c: 831: dirCount = 0;
  9366  004D24  0E00               	movlw	low(0)
  9367  004D26  0109               	movlb	9	; () banked
  9368  004D28  0109               	movlb	9	; () banked
  9369  004D2A  6F2C               	movwf	((TurnToDirection@dirCount))&0ffh
  9370  004D2C  0E00               	movlw	high(0)
  9371  004D2E  0109               	movlb	9	; () banked
  9372  004D30  6F2D               	movwf	((TurnToDirection@dirCount+1))&0ffh
  9373  004D32  EFD8  F026         	goto	l652
  9374                           	line	832
  9375                           	
  9376  004D36                     l651:		; BSR set to: ?
  9377                           
  9378                           ;main.c: 832: else if(dir == 5)
  9379  004D36  0109               	movlb	9	; () banked
  9380  004D38  0109               	movlb	9	; () banked
  9381  004D3A  512A               	movf	((TurnToDirection@dir))&0ffh,w
  9382  004D3C  0A05               	xorlw	5
  9383  004D3E  112B               	iorwf ((TurnToDirection@dir+1))&0ffh,w
  9384                           
  9385  004D40  A4D8               	btfss	status,2
  9386  004D42  EFA5  F026         	goto	u10131
  9387  004D46  EFA7  F026         	goto	u10130
  9388  004D4A                     u10131:
  9389  004D4A  EFB0  F026         	goto	l653
  9390  004D4E                     u10130:
  9391                           	line	833
  9392                           ;main.c: 833: dirCount = 1;
  9393  004D4E  0E01               	movlw	low(01h)
  9394  004D50  0109               	movlb	9	; () banked
  9395  004D52  0109               	movlb	9	; () banked
  9396  004D54  6F2C               	movwf	((TurnToDirection@dirCount))&0ffh
  9397  004D56  0E00               	movlw	high(01h)
  9398  004D58  0109               	movlb	9	; () banked
  9399  004D5A  6F2D               	movwf	((TurnToDirection@dirCount+1))&0ffh
  9400  004D5C  EFD8  F026         	goto	l652
  9401                           	line	834
  9402                           	
  9403  004D60                     l653:		; BSR set to: ?
  9404                           
  9405                           ;main.c: 834: else if(dir == 7)
  9406  004D60  0109               	movlb	9	; () banked
  9407  004D62  0109               	movlb	9	; () banked
  9408  004D64  512A               	movf	((TurnToDirection@dir))&0ffh,w
  9409  004D66  0A07               	xorlw	7
  9410  004D68  112B               	iorwf ((TurnToDirection@dir+1))&0ffh,w
  9411                           
  9412  004D6A  A4D8               	btfss	status,2
  9413  004D6C  EFBA  F026         	goto	u10141
  9414  004D70  EFBC  F026         	goto	u10140
  9415  004D74                     u10141:
  9416  004D74  EFC5  F026         	goto	l655
  9417  004D78                     u10140:
  9418                           	line	835
  9419                           ;main.c: 835: dirCount = 2;
  9420  004D78  0E02               	movlw	low(02h)
  9421  004D7A  0109               	movlb	9	; () banked
  9422  004D7C  0109               	movlb	9	; () banked
  9423  004D7E  6F2C               	movwf	((TurnToDirection@dirCount))&0ffh
  9424  004D80  0E00               	movlw	high(02h)
  9425  004D82  0109               	movlb	9	; () banked
  9426  004D84  6F2D               	movwf	((TurnToDirection@dirCount+1))&0ffh
  9427  004D86  EFD8  F026         	goto	l652
  9428                           	line	836
  9429                           	
  9430  004D8A                     l655:		; BSR set to: ?
  9431                           
  9432                           ;main.c: 836: else if(dir == 13)
  9433  004D8A  0109               	movlb	9	; () banked
  9434  004D8C  0109               	movlb	9	; () banked
  9435  004D8E  512A               	movf	((TurnToDirection@dir))&0ffh,w
  9436  004D90  0A0D               	xorlw	13
  9437  004D92  112B               	iorwf ((TurnToDirection@dir+1))&0ffh,w
  9438                           
  9439  004D94  A4D8               	btfss	status,2
  9440  004D96  EFCF  F026         	goto	u10151
  9441  004D9A  EFD1  F026         	goto	u10150
  9442  004D9E                     u10151:
  9443  004D9E  EFD8  F026         	goto	l652
  9444  004DA2                     u10150:
  9445                           	line	837
  9446                           ;main.c: 837: dirCount = 3;
  9447  004DA2  0E03               	movlw	low(03h)
  9448  004DA4  0109               	movlb	9	; () banked
  9449  004DA6  0109               	movlb	9	; () banked
  9450  004DA8  6F2C               	movwf	((TurnToDirection@dirCount))&0ffh
  9451  004DAA  0E00               	movlw	high(03h)
  9452  004DAC  0109               	movlb	9	; () banked
  9453  004DAE  6F2D               	movwf	((TurnToDirection@dirCount+1))&0ffh
  9454                           	
  9455  004DB0                     l657:		; BSR set to: ?
  9456                           
  9457                           	line	839
  9458                           	
  9459  004DB0                     l656:		; BSR set to: ?
  9460                           
  9461                           	
  9462  004DB0                     l654:		; BSR set to: ?
  9463                           
  9464                           	
  9465  004DB0                     l652:		; BSR set to: ?
  9466                           
  9467                           ;main.c: 839: if(fixedDir - dirCount == -1){
  9468  004DB0  0109               	movlb	9	; () banked
  9469  004DB2  C92E  F930         	movff	(TurnToDirection@fixedDir),??_TurnToDirec
                                 tion+4+0
  9470  004DB6  0109               	movlb	9	; () banked
  9471  004DB8  C92F  F931         	movff	(TurnToDirection@fixedDir+1),??_TurnToDir
                                 ection+4+0+1
  9472  004DBC  0109               	movlb	9	; () banked
  9473  004DBE  0109               	movlb	9	; () banked
  9474  004DC0  512C               	movf	((TurnToDirection@dirCount))&0ffh,w
  9475+ 004DC2  0109               	movlb	9	; () banked
  9476+ 004DC4  5F30               	subwf	(??_TurnToDirection+4+0)&0ffh
  9477+ 004DC6  0109               	movlb	9	; () banked
  9478+ 004DC8  0109               	movlb	9	; () banked
  9479+ 004DCA  512D               	movf	((TurnToDirection@dirCount+1))&0ffh,w
  9480+ 004DCC  0109               	movlb	9	; () banked
  9481+ 004DCE  5B31               	subwfb	(??_TurnToDirection+4+1)&0ffh
  9482+ 004DD0  0109               	movlb	9	; () banked
  9483+ 004DD2  2930               	incf	(??_TurnToDirection+4+0)&0ffh,w
  9484+ 004DD4  B4D8               	btfsc	status,2
  9485+ 004DD6  2931               	incf (??_TurnToDirection+4+1)&0ffh,w
  9486+                          
  9487+ 004DD8  A4D8               	btfss	status,2
  9488+ 004DDA  EFF1  F026         	goto	u10161
  9489+ 004DDE  EFF3  F026         	goto	u10160
  9490+ 004DE2                     u10161:
  9491+ 004DE2  EF0E  F027         	goto	l658
  9492+ 004DE6                     u10160:
  9493+                          	line	840
  9494+                          ;main.c: 840: backMove[backMoveCount] = 2;
  9495+ 004DE6  90D8               	bcf	status,0
  9496+ 004DE8  0108               	movlb	8	; () banked
  9497+ 004DEA  0108               	movlb	8	; () banked
  9498+ 004DEC  3515               	rlcf	((2069))&0ffh,w
  9499+ 004DEE  0109               	movlb	9	; () banked
  9500+ 004DF0  6F30               	movwf	(??_TurnToDirection+4+0)&0ffh
  9501+ 004DF2  0108               	movlb	8	; () banked
  9502+ 004DF4  0108               	movlb	8	; () banked
  9503+ 004DF6  3516               	rlcf	((2069+1))&0ffh,w
  9504+ 004DF8  0109               	movlb	9	; () banked
  9505+ 004DFA  6F31               	movwf	1+(??_TurnToDirection+4+0)&0ffh
  9506+ 004DFC  0E00               	movlw	low(1024)
  9507+ 004DFE  0109               	movlb	9	; () banked
  9508+ 004E00  2530               	addwf	(??_TurnToDirection+4+0)&0ffh,w
  9509+ 004E02  6EE9               	movwf	c:fsr0l
  9510+ 004E04  0E04               	movlw	high(1024)
  9511+ 004E06  0109               	movlb	9	; () banked
  9512+ 004E08  2131               	addwfc	(??_TurnToDirection+4+1)&0ffh,w
  9513+ 004E0A  6EEA               	movwf	1+c:fsr0l
  9514+ 004E0C  0E02               	movlw	low(02h)
  9515+ 004E0E  6EEE               	movwf	postinc0
  9516+ 004E10  0E00               	movlw	high(02h)
  9517+ 004E12  6EED               	movwf	postdec0
  9518+                          	line	841
  9519+                          ;main.c: 841: TurnRight();
  9520+ 004E14  EC4D  F02F         	call	_TurnRight	;wreg free
  9521+                          	line	842
  9522+                          ;main.c: 842: }
  9523+ 004E18  EF1B  F028         	goto	l659
  9524+                          	line	843
  9525+                          	
  9526+ 004E1C                     l658:		; BSR set to: ?
  9527+                          
  9528+                          ;main.c: 843: else if(fixedDir - dirCount == -2)
      +                          {
  9529+ 004E1C  0109               	movlb	9	; () banked
  9530+ 004E1E  C92E  F930         	movff	(TurnToDirection@fixedDir),??_TurnToDirec
      +                          tion+4+0
  9531+ 004E22  0109               	movlb	9	; () banked
  9532+ 004E24  C92F  F931         	movff	(TurnToDirection@fixedDir+1),??_TurnToDir
      +                          ection+4+0+1
  9533+ 004E28  0109               	movlb	9	; () banked
  9534+ 004E2A  0109               	movlb	9	; () banked
  9535+ 004E2C  512C               	movf	((TurnToDirection@dirCount))&0ffh,w
  9536+ 004E2E  0109               	movlb	9	; () banked
  9537+ 004E30  5F30               	subwf	(??_TurnToDirection+4+0)&0ffh
  9538+ 004E32  0109               	movlb	9	; () banked
  9539+ 004E34  0109               	movlb	9	; () banked
  9540+ 004E36  512D               	movf	((TurnToDirection@dirCount+1))&0ffh,w
  9541+ 004E38  0109               	movlb	9	; () banked
  9542+ 004E3A  5B31               	subwfb	(??_TurnToDirection+4+1)&0ffh
  9543+ 004E3C  0109               	movlb	9	; () banked
  9544+ 004E3E  2931               	incf	(??_TurnToDirection+4+1)&0ffh,w
  9545+ 004E40  0EFE               	movlw	254
  9546+ 004E42  B4D8               	btfsc	status,2
  9547+ 004E44  1930               	xorwf (??_TurnToDirection+4+0)&0ffh,w
  9548+                          
  9549+ 004E46  A4D8               	btfss	status,2
  9550+ 004E48  EF28  F027         	goto	u10171
  9551+ 004E4C  EF2A  F027         	goto	u10170
  9552+ 004E50                     u10171:
  9553+ 004E50  EF45  F027         	goto	l660
  9554+ 004E54                     u10170:
  9555+                          	line	844
  9556+                          ;main.c: 844: backMove[backMoveCount] = 4;
  9557+ 004E54  90D8               	bcf	status,0
  9558+ 004E56  0108               	movlb	8	; () banked
  9559+ 004E58  0108               	movlb	8	; () banked
  9560+ 004E5A  3515               	rlcf	((2069))&0ffh,w
  9561+ 004E5C  0109               	movlb	9	; () banked
  9562+ 004E5E  6F30               	movwf	(??_TurnToDirection+4+0)&0ffh
  9563+ 004E60  0108               	movlb	8	; () banked
  9564+ 004E62  0108               	movlb	8	; () banked
  9565+ 004E64  3516               	rlcf	((2069+1))&0ffh,w
  9566+ 004E66  0109               	movlb	9	; () banked
  9567+ 004E68  6F31               	movwf	1+(??_TurnToDirection+4+0)&0ffh
  9568+ 004E6A  0E00               	movlw	low(1024)
  9569+ 004E6C  0109               	movlb	9	; () banked
  9570+ 004E6E  2530               	addwf	(??_TurnToDirection+4+0)&0ffh,w
  9571+ 004E70  6EE9               	movwf	c:fsr0l
  9572+ 004E72  0E04               	movlw	high(1024)
  9573+ 004E74  0109               	movlb	9	; () banked
  9574+ 004E76  2131               	addwfc	(??_TurnToDirection+4+1)&0ffh,w
  9575+ 004E78  6EEA               	movwf	1+c:fsr0l
  9576+ 004E7A  0E04               	movlw	low(04h)
  9577+ 004E7C  6EEE               	movwf	postinc0
  9578+ 004E7E  0E00               	movlw	high(04h)
  9579+ 004E80  6EED               	movwf	postdec0
  9580+                          	line	845
  9581+                          ;main.c: 845: TurnAround();
  9582+ 004E82  EC97  F02E         	call	_TurnAround	;wreg free
  9583+                          	line	846
  9584+                          ;main.c: 846: }
  9585+ 004E86  EF1B  F028         	goto	l659
  9586+                          	line	847
  9587+                          	
  9588+ 004E8A                     l660:		; BSR set to: ?
  9589+                          
  9590+                          ;main.c: 847: else if(fixedDir - dirCount == -3)
      +                          {
  9591+ 004E8A  0109               	movlb	9	; () banked
  9592+ 004E8C  C92E  F930         	movff	(TurnToDirection@fixedDir),??_TurnToDirec
      +                          tion+4+0
  9593+ 004E90  0109               	movlb	9	; () banked
  9594+ 004E92  C92F  F931         	movff	(TurnToDirection@fixedDir+1),??_TurnToDir
      +                          ection+4+0+1
  9595+ 004E96  0109               	movlb	9	; () banked
  9596+ 004E98  0109               	movlb	9	; () banked
  9597+ 004E9A  512C               	movf	((TurnToDirection@dirCount))&0ffh,w
  9598+ 004E9C  0109               	movlb	9	; () banked
  9599+ 004E9E  5F30               	subwf	(??_TurnToDirection+4+0)&0ffh
  9600+ 004EA0  0109               	movlb	9	; () banked
  9601+ 004EA2  0109               	movlb	9	; () banked
  9602+ 004EA4  512D               	movf	((TurnToDirection@dirCount+1))&0ffh,w
  9603+ 004EA6  0109               	movlb	9	; () banked
  9604+ 004EA8  5B31               	subwfb	(??_TurnToDirection+4+1)&0ffh
  9605+ 004EAA  0109               	movlb	9	; () banked
  9606+ 004EAC  2931               	incf	(??_TurnToDirection+4+1)&0ffh,w
  9607+ 004EAE  0EFD               	movlw	253
  9608+ 004EB0  B4D8               	btfsc	status,2
  9609+ 004EB2  1930               	xorwf (??_TurnToDirection+4+0)&0ffh,w
  9610+                          
  9611+ 004EB4  A4D8               	btfss	status,2
  9612+ 004EB6  EF5F  F027         	goto	u10181
  9613+ 004EBA  EF61  F027         	goto	u10180
  9614+ 004EBE                     u10181:
  9615+ 004EBE  EF7C  F027         	goto	l662
  9616+ 004EC2                     u10180:
  9617+                          	line	848
  9618+                          ;main.c: 848: backMove[backMoveCount] = 3;
  9619+ 004EC2  90D8               	bcf	status,0
  9620+ 004EC4  0108               	movlb	8	; () banked
  9621+ 004EC6  0108               	movlb	8	; () banked
  9622+ 004EC8  3515               	rlcf	((2069))&0ffh,w
  9623+ 004ECA  0109               	movlb	9	; () banked
  9624+ 004ECC  6F30               	movwf	(??_TurnToDirection+4+0)&0ffh
  9625+ 004ECE  0108               	movlb	8	; () banked
  9626+ 004ED0  0108               	movlb	8	; () banked
  9627+ 004ED2  3516               	rlcf	((2069+1))&0ffh,w
  9628+ 004ED4  0109               	movlb	9	; () banked
  9629+ 004ED6  6F31               	movwf	1+(??_TurnToDirection+4+0)&0ffh
  9630+ 004ED8  0E00               	movlw	low(1024)
  9631+ 004EDA  0109               	movlb	9	; () banked
  9632+ 004EDC  2530               	addwf	(??_TurnToDirection+4+0)&0ffh,w
  9633+ 004EDE  6EE9               	movwf	c:fsr0l
  9634+ 004EE0  0E04               	movlw	high(1024)
  9635+ 004EE2  0109               	movlb	9	; () banked
  9636+ 004EE4  2131               	addwfc	(??_TurnToDirection+4+1)&0ffh,w
  9637+ 004EE6  6EEA               	movwf	1+c:fsr0l
  9638+ 004EE8  0E03               	movlw	low(03h)
  9639+ 004EEA  6EEE               	movwf	postinc0
  9640+ 004EEC  0E00               	movlw	high(03h)
  9641+ 004EEE  6EED               	movwf	postdec0
  9642+                          	line	849
  9643+                          ;main.c: 849: TurnLeft();
  9644+ 004EF0  EC14  F02F         	call	_TurnLeft	;wreg free
  9645+                          	line	850
  9646+                          ;main.c: 850: }
  9647+ 004EF4  EF1B  F028         	goto	l659
  9648+                          	line	851
  9649+                          	
  9650+ 004EF8                     l662:		; BSR set to: ?
  9651+                          
  9652+                          ;main.c: 851: else if(fixedDir - dirCount == 1){
  9653+ 004EF8  0109               	movlb	9	; () banked
  9654+ 004EFA  C92E  F930         	movff	(TurnToDirection@fixedDir),??_TurnToDirec
      +                          tion+4+0
  9655+ 004EFE  0109               	movlb	9	; () banked
  9656+ 004F00  C92F  F931         	movff	(TurnToDirection@fixedDir+1),??_TurnToDir
      +                          ection+4+0+1
  9657+ 004F04  0109               	movlb	9	; () banked
  9658+ 004F06  0109               	movlb	9	; () banked
  9659+ 004F08  512C               	movf	((TurnToDirection@dirCount))&0ffh,w
  9660+ 004F0A  0109               	movlb	9	; () banked
  9661+ 004F0C  5F30               	subwf	(??_TurnToDirection+4+0)&0ffh
  9662+ 004F0E  0109               	movlb	9	; () banked
  9663+ 004F10  0109               	movlb	9	; () banked
  9664+ 004F12  512D               	movf	((TurnToDirection@dirCount+1))&0ffh,w
  9665+ 004F14  0109               	movlb	9	; () banked
  9666+ 004F16  5B31               	subwfb	(??_TurnToDirection+4+1)&0ffh
  9667+ 004F18  0109               	movlb	9	; () banked
  9668+ 004F1A  0530               	decf	(??_TurnToDirection+4+0)&0ffh,w
  9669+ 004F1C  1131               	iorwf (??_TurnToDirection+4+1)&0ffh,w
  9670+                          
  9671+ 004F1E  A4D8               	btfss	status,2
  9672+ 004F20  EF94  F027         	goto	u10191
  9673+ 004F24  EF96  F027         	goto	u10190
  9674+ 004F28                     u10191:
  9675+ 004F28  EFB1  F027         	goto	l664
  9676+ 004F2C                     u10190:
  9677+                          	line	852
  9678+                          ;main.c: 852: backMove[backMoveCount] = 3;
  9679+ 004F2C  90D8               	bcf	status,0
  9680+ 004F2E  0108               	movlb	8	; () banked
  9681+ 004F30  0108               	movlb	8	; () banked
  9682+ 004F32  3515               	rlcf	((2069))&0ffh,w
  9683+ 004F34  0109               	movlb	9	; () banked
  9684+ 004F36  6F30               	movwf	(??_TurnToDirection+4+0)&0ffh
  9685+ 004F38  0108               	movlb	8	; () banked
  9686+ 004F3A  0108               	movlb	8	; () banked
  9687+ 004F3C  3516               	rlcf	((2069+1))&0ffh,w
  9688+ 004F3E  0109               	movlb	9	; () banked
  9689+ 004F40  6F31               	movwf	1+(??_TurnToDirection+4+0)&0ffh
  9690+ 004F42  0E00               	movlw	low(1024)
  9691+ 004F44  0109               	movlb	9	; () banked
  9692+ 004F46  2530               	addwf	(??_TurnToDirection+4+0)&0ffh,w
  9693+ 004F48  6EE9               	movwf	c:fsr0l
  9694+ 004F4A  0E04               	movlw	high(1024)
  9695+ 004F4C  0109               	movlb	9	; () banked
  9696+ 004F4E  2131               	addwfc	(??_TurnToDirection+4+1)&0ffh,w
  9697+ 004F50  6EEA               	movwf	1+c:fsr0l
  9698+ 004F52  0E03               	movlw	low(03h)
  9699+ 004F54  6EEE               	movwf	postinc0
  9700+ 004F56  0E00               	movlw	high(03h)
  9701+ 004F58  6EED               	movwf	postdec0
  9702+                          	line	853
  9703+                          ;main.c: 853: TurnLeft();
  9704+ 004F5A  EC14  F02F         	call	_TurnLeft	;wreg free
  9705+                          	line	854
  9706+                          ;main.c: 854: }
  9707+ 004F5E  EF1B  F028         	goto	l659
  9708+                          	line	855
  9709+                          	
  9710+ 004F62                     l664:		; BSR set to: ?
  9711+                          
  9712+                          ;main.c: 855: else if(fixedDir - dirCount == 2){
  9713+ 004F62  0109               	movlb	9	; () banked
  9714+ 004F64  C92E  F930         	movff	(TurnToDirection@fixedDir),??_TurnToDirec
      +                          tion+4+0
  9715+ 004F68  0109               	movlb	9	; () banked
  9716+ 004F6A  C92F  F931         	movff	(TurnToDirection@fixedDir+1),??_TurnToDir
      +                          ection+4+0+1
  9717+ 004F6E  0109               	movlb	9	; () banked
  9718+ 004F70  0109               	movlb	9	; () banked
  9719+ 004F72  512C               	movf	((TurnToDirection@dirCount))&0ffh,w
  9720+ 004F74  0109               	movlb	9	; () banked
  9721+ 004F76  5F30               	subwf	(??_TurnToDirection+4+0)&0ffh
  9722+ 004F78  0109               	movlb	9	; () banked
  9723+ 004F7A  0109               	movlb	9	; () banked
  9724+ 004F7C  512D               	movf	((TurnToDirection@dirCount+1))&0ffh,w
  9725+ 004F7E  0109               	movlb	9	; () banked
  9726+ 004F80  5B31               	subwfb	(??_TurnToDirection+4+1)&0ffh
  9727+ 004F82  0109               	movlb	9	; () banked
  9728+ 004F84  5130               	movf	(??_TurnToDirection+4+0)&0ffh,w
  9729+ 004F86  0A02               	xorlw	2
  9730+ 004F88  1131               	iorwf (??_TurnToDirection+4+1)&0ffh,w
  9731+                          
  9732+ 004F8A  A4D8               	btfss	status,2
  9733+ 004F8C  EFCA  F027         	goto	u10201
  9734+ 004F90  EFCC  F027         	goto	u10200
  9735+ 004F94                     u10201:
  9736+ 004F94  EFE7  F027         	goto	l666
  9737+ 004F98                     u10200:
  9738+                          	line	856
  9739+                          ;main.c: 856: backMove[backMoveCount] = 4;
  9740+ 004F98  90D8               	bcf	status,0
  9741+ 004F9A  0108               	movlb	8	; () banked
  9742+ 004F9C  0108               	movlb	8	; () banked
  9743+ 004F9E  3515               	rlcf	((2069))&0ffh,w
  9744+ 004FA0  0109               	movlb	9	; () banked
  9745+ 004FA2  6F30               	movwf	(??_TurnToDirection+4+0)&0ffh
  9746+ 004FA4  0108               	movlb	8	; () banked
  9747+ 004FA6  0108               	movlb	8	; () banked
  9748+ 004FA8  3516               	rlcf	((2069+1))&0ffh,w
  9749+ 004FAA  0109               	movlb	9	; () banked
  9750+ 004FAC  6F31               	movwf	1+(??_TurnToDirection+4+0)&0ffh
  9751+ 004FAE  0E00               	movlw	low(1024)
  9752+ 004FB0  0109               	movlb	9	; () banked
  9753+ 004FB2  2530               	addwf	(??_TurnToDirection+4+0)&0ffh,w
  9754+ 004FB4  6EE9               	movwf	c:fsr0l
  9755+ 004FB6  0E04               	movlw	high(1024)
  9756+ 004FB8  0109               	movlb	9	; () banked
  9757+ 004FBA  2131               	addwfc	(??_TurnToDirection+4+1)&0ffh,w
  9758+ 004FBC  6EEA               	movwf	1+c:fsr0l
  9759+ 004FBE  0E04               	movlw	low(04h)
  9760+ 004FC0  6EEE               	movwf	postinc0
  9761+ 004FC2  0E00               	movlw	high(04h)
  9762+ 004FC4  6EED               	movwf	postdec0
  9763+                          	line	857
  9764+                          ;main.c: 857: TurnAround();
  9765+ 004FC6  EC97  F02E         	call	_TurnAround	;wreg free
  9766+                          	line	858
  9767+                          ;main.c: 858: }
  9768+ 004FCA  EF1B  F028         	goto	l659
  9769+                          	line	859
  9770+                          	
  9771+ 004FCE                     l666:		; BSR set to: ?
  9772+                          
  9773+                          ;main.c: 859: else if(fixedDir - dirCount == 3){
  9774+ 004FCE  0109               	movlb	9	; () banked
  9775+ 004FD0  C92E  F930         	movff	(TurnToDirection@fixedDir),??_TurnToDirec
      +                          tion+4+0
  9776+ 004FD4  0109               	movlb	9	; () banked
  9777+ 004FD6  C92F  F931         	movff	(TurnToDirection@fixedDir+1),??_TurnToDir
      +                          ection+4+0+1
  9778+ 004FDA  0109               	movlb	9	; () banked
  9779+ 004FDC  0109               	movlb	9	; () banked
  9780+ 004FDE  512C               	movf	((TurnToDirection@dirCount))&0ffh,w
  9781+ 004FE0  0109               	movlb	9	; () banked
  9782+ 004FE2  5F30               	subwf	(??_TurnToDirection+4+0)&0ffh
  9783+ 004FE4  0109               	movlb	9	; () banked
  9784+ 004FE6  0109               	movlb	9	; () banked
  9785+ 004FE8  512D               	movf	((TurnToDirection@dirCount+1))&0ffh,w
  9786+ 004FEA  0109               	movlb	9	; () banked
  9787+ 004FEC  5B31               	subwfb	(??_TurnToDirection+4+1)&0ffh
  9788+ 004FEE  0109               	movlb	9	; () banked
  9789+ 004FF0  5130               	movf	(??_TurnToDirection+4+0)&0ffh,w
  9790+ 004FF2  0A03               	xorlw	3
  9791+ 004FF4  1131               	iorwf (??_TurnToDirection+4+1)&0ffh,w
  9792+                          
  9793+ 004FF6  A4D8               	btfss	status,2
  9794+ 004FF8  EF00  F028         	goto	u10211
  9795+ 004FFC  EF02  F028         	goto	u10210
  9796+ 005000                     u10211:
  9797+ 005000  EF1B  F028         	goto	l659
  9798+ 005004                     u10210:
  9799+                          	line	860
  9800+                          ;main.c: 860: backMove[backMoveCount] = 2;
  9801+ 005004  90D8               	bcf	status,0
  9802+ 005006  0108               	movlb	8	; () banked
  9803+ 005008  0108               	movlb	8	; () banked
  9804+ 00500A  3515               	rlcf	((2069))&0ffh,w
  9805+ 00500C  0109               	movlb	9	; () banked
  9806+ 00500E  6F30               	movwf	(??_TurnToDirection+4+0)&0ffh
  9807+ 005010  0108               	movlb	8	; () banked
  9808+ 005012  0108               	movlb	8	; () banked
  9809+ 005014  3516               	rlcf	((2069+1))&0ffh,w
  9810+ 005016  0109               	movlb	9	; () banked
  9811+ 005018  6F31               	movwf	1+(??_TurnToDirection+4+0)&0ffh
  9812+ 00501A  0E00               	movlw	low(1024)
  9813+ 00501C  0109               	movlb	9	; () banked
  9814+ 00501E  2530               	addwf	(??_TurnToDirection+4+0)&0ffh,w
  9815+ 005020  6EE9               	movwf	c:fsr0l
  9816+ 005022  0E04               	movlw	high(1024)
  9817+ 005024  0109               	movlb	9	; () banked
  9818+ 005026  2131               	addwfc	(??_TurnToDirection+4+1)&0ffh,w
  9819+ 005028  6EEA               	movwf	1+c:fsr0l
  9820+ 00502A  0E02               	movlw	low(02h)
  9821+ 00502C  6EEE               	movwf	postinc0
  9822+ 00502E  0E00               	movlw	high(02h)
  9823+ 005030  6EED               	movwf	postdec0
  9824+                          	line	861
  9825+                          ;main.c: 861: TurnRight();
  9826+ 005032  EC4D  F02F         	call	_TurnRight	;wreg free
  9827+                          	line	862
  9828+                          	
  9829+ 005036                     l668:		; BSR set to: ?
  9830+                          
  9831+                          	line	864
  9832+                          	
  9833+ 005036                     l667:		; BSR set to: ?
  9834+                          
  9835+                          	
  9836+ 005036                     l665:		; BSR set to: ?
  9837+                          
  9838+                          	
  9839+ 005036                     l663:		; BSR set to: ?
  9840+                          
  9841+                          	
  9842+ 005036                     l661:		; BSR set to: ?
  9843+                          
  9844+                          	
  9845+ 005036                     l659:		; BSR set to: ?
  9846+                          
  9847+                          ;main.c: 862: }
  9848+                          ;main.c: 864: mouseDirection = dir;
  9849+ 005036  C92A  F806         	movff	(TurnToDirection@dir),(2054)
  9850+ 00503A  C92B  F807         	movff	(TurnToDirection@dir+1),(2054+1)
  9851+                          	line	865
  9852+                          ;main.c: 865: }
  9853+ 00503E                     l643:
  9854+                          			; BSR set to: ?
  9855+                          
  9856+ 00503E  0012               	return
  9857+                          	opt stack 0
  9858+                          GLOBAL __end_of_TurnToDirection
  9859+ 005040                     	__end_of_TurnToDirection:
  9860+                          	FNSIZE	_TurnToDirection,6,2
  9861+                          ; =============== function _TurnToDirection ends
      +                           ============
  9862+                          
  9863+                          	signat	_TurnToDirection,4216
  9864+                          	global	_RestoreMaze
  9865+                          	global	??_RestoreMaze
  9866+                          	global	?_RestoreMaze
  9867+                          
  9868+                          ; *************** function _RestoreMaze ********
      +                          *********
  9869+                          ; Defined at:
  9870+                          ;		line 796 in file "C:\Users\tab\Desktop\electr
      +                          onics\micro_mouse\WORKING_SAC\main.c"
  9871+                          ; Parameters:
  9872+                          ;		None
  9873+                          ; Auto variables:
  9874+                          ;		i           	       	type: int 
  9875+                          ;		i           	       	type: int 
  9876+                          ;		j           	       	type: int 
  9877+                          ;		j           	       	type: int 
  9878+                          ; Return value:
  9879+                          ;		type: void 
  9880+                          ;		size: 0
  9881+                          ; Registers used:
  9882+                          ;		wreg, fsr0l, fsr0h, status,2, status,0, cstac
      +                          k
  9883+                          ; Tracked objects:
  9884+                          ;		On entry : 0/0
  9885+                          ;		On exit  : 0/0
  9886+                          ;		Unchanged: 0/0
  9887+                          ; Data sizes:
  9888+                          ;		Autos:    8
  9889+                          ;		Params:   0
  9890+                          ;		Temp:    11
  9891+                          ;		Total:   19
  9892+                          ; This function calls:
  9893+                          ;		_eeprom_read
  9894+                          ; This function is called by:
  9895+                          ;		_MazeSetup
  9896+                          ; This function uses a non-reentrant model
  9897+                          ; 
  9898+                                  psect   text8,class=CODE,space=0,reloc=2
  9899+                          
  9900+                          	opt lm
  9901+                          	file	"C:\Users\tab\Desktop\electronics\micro_mo
      +                          use\WORKING_SAC\main.c"
  9902+                          	line	796
  9903+ 000000                     	__size_of_RestoreMaze	equ	__end_of_RestoreMaze-
      +                          _RestoreMaze
  9904+                          ;main.c: 796: void RestoreMaze(){
  9905+                          	
  9906+ 005040                     _RestoreMaze:		; BSR set to: ?
  9907+                          
  9908+                          	opt stack 28
  9909+                          	line	798
  9910+                          ;main.c: 798: for(int i = 0; i < 16; i++)
  9911+ 005040  0E00               	movlw	low(0)
  9912+ 005042  0109               	movlb	9	; () banked
  9913+ 005044  0109               	movlb	9	; () banked
  9914+ 005046  6F1A               	movwf	((RestoreMaze@i))&0ffh
  9915+ 005048  0E00               	movlw	high(0)
  9916+ 00504A  0109               	movlb	9	; () banked
  9917+ 00504C  6F1B               	movwf	((RestoreMaze@i+1))&0ffh
  9918+ 00504E  0109               	movlb	9	; () banked
  9919+ 005050  0109               	movlb	9	; () banked
  9920+ 005052  511B               	movf	((RestoreMaze@i+1))&0ffh,w
  9921+ 005054  0A80               	xorlw	80h
  9922+ 005056  0F80               	addlw	-((0)^80h)
  9923+ 005058  0E10               	movlw	010h
  9924+ 00505A  B4D8               	btfsc	status,2
  9925+ 00505C  5D1A               	subwf	((RestoreMaze@i))&0ffh,w
  9926+ 00505E  A0D8               	btfss	status,0
  9927+ 005060  EF34  F028         	goto	u7711
  9928+ 005064  EF36  F028         	goto	u7710
  9929+ 005068                     u7711:
  9930+ 005068  EF38  F028         	goto	l631
  9931+ 00506C                     u7710:
  9932+ 00506C  EFCE  F028         	goto	l632
  9933+                          	line	799
  9934+                          	
  9935+ 005070                     l631:		; BSR set to: ?
  9936+                          
  9937+                          ;main.c: 799: for(int j = 0; j < 16; j++)
  9938+ 005070  0E00               	movlw	low(0)
  9939+ 005072  0109               	movlb	9	; () banked
  9940+ 005074  0109               	movlb	9	; () banked
  9941+ 005076  6F1E               	movwf	((RestoreMaze@j))&0ffh
  9942+ 005078  0E00               	movlw	high(0)
  9943+ 00507A  0109               	movlb	9	; () banked
  9944+ 00507C  6F1F               	movwf	((RestoreMaze@j+1))&0ffh
  9945+ 00507E  0109               	movlb	9	; () banked
  9946+ 005080  0109               	movlb	9	; () banked
  9947+ 005082  511F               	movf	((RestoreMaze@j+1))&0ffh,w
  9948+ 005084  0A80               	xorlw	80h
  9949+ 005086  0F80               	addlw	-((0)^80h)
  9950+ 005088  0E10               	movlw	010h
  9951+ 00508A  B4D8               	btfsc	status,2
  9952+ 00508C  5D1E               	subwf	((RestoreMaze@j))&0ffh,w
  9953+ 00508E  A0D8               	btfss	status,0
  9954+ 005090  EF4C  F028         	goto	u7721
  9955+ 005094  EF4E  F028         	goto	u7720
  9956+ 005098                     u7721:
  9957+ 005098  EF50  F028         	goto	l634
  9958+ 00509C                     u7720:
  9959+ 00509C  EFBB  F028         	goto	l635
  9960+                          	line	800
  9961+                          	
  9962+ 0050A0                     l634:		; BSR set to: ?
  9963+                          
  9964+                          ;main.c: 800: mazeMap[i][j] = eeprom_read((i*16)
      +                          +j);
  9965+ 0050A0  0109               	movlb	9	; () banked
  9966+ 0050A2  C91A  F922         	movff	(RestoreMaze@i),??_RestoreMaze+8+0
  9967+ 0050A6  0109               	movlb	9	; () banked
  9968+ 0050A8  C91B  F923         	movff	(RestoreMaze@i+1),??_RestoreMaze+8+0+1
  9969+ 0050AC  0109               	movlb	9	; () banked
  9970+ 0050AE  3B22               	swapf	(??_RestoreMaze+8+0)&0ffh
  9971+ 0050B0  3B23               	swapf	(??_RestoreMaze+8+1)&0ffh
  9972+ 0050B2  0EF0               	movlw	0f0h
  9973+ 0050B4  1723               	andwf	(??_RestoreMaze+8+1)&0ffh
  9974+ 0050B6  5122               	movf	(??_RestoreMaze+8+0)&0ffh,w
  9975+ 0050B8  0B0F               	andlw	0fh
  9976+ 0050BA  1323               	iorwf	(??_RestoreMaze+8+1)&0ffh
  9977+ 0050BC  0EF0               	movlw	0f0h
  9978+ 0050BE  1722               	andwf	(??_RestoreMaze+8+0)&0ffh
  9979+ 0050C0  0109               	movlb	9	; () banked
  9980+ 0050C2  0109               	movlb	9	; () banked
  9981+ 0050C4  511E               	movf	((RestoreMaze@j))&0ffh,w
  9982+ 0050C6  0109               	movlb	9	; () banked
  9983+ 0050C8  2522               	addwf	(??_RestoreMaze+8+0)&0ffh,w
  9984+ 0050CA  0109               	movlb	9	; () banked
  9985+                          	
  9986+ 0050CC  0109               	movlb	9	; () banked
  9987+ 0050CE  6F2D               	movwf	((?_eeprom_read))&0ffh
  9988+ 0050D0  0109               	movlb	9	; () banked
  9989+ 0050D2  0109               	movlb	9	; () banked
  9990+ 0050D4  511F               	movf	((RestoreMaze@j+1))&0ffh,w
  9991+ 0050D6  0109               	movlb	9	; () banked
  9992+ 0050D8  2123               	addwfc	(??_RestoreMaze+8+1)&0ffh,w
  9993+ 0050DA  0109               	movlb	9	; () banked
  9994+ 0050DC  6F2E               	movwf	1+((?_eeprom_read))&0ffh
  9995+ 0050DE  EC43  F030         	call	_eeprom_read	;wreg free
  9996+ 0050E2  0109               	movlb	9	; () banked
  9997+ 0050E4  6F24               	movwf	(??_RestoreMaze+10+0)&0ffh
  9998+ 0050E6  C924  F925         	movff	(??_RestoreMaze+10+0),??_RestoreMaze+11+0
  9999+ 0050EA  0109               	movlb	9	; () banked
 10000+ 0050EC  6B26               	clrf	(??_RestoreMaze+11+0+1)&0ffh
 10001+ 0050EE  90D8               	bcf	status,0
 10002+ 0050F0  0109               	movlb	9	; () banked
 10003+ 0050F2  0109               	movlb	9	; () banked
 10004+ 0050F4  351E               	rlcf	((RestoreMaze@j))&0ffh,w
 10005+ 0050F6  0109               	movlb	9	; () banked
 10006+ 0050F8  6F27               	movwf	(??_RestoreMaze+13+0)&0ffh
 10007+ 0050FA  0109               	movlb	9	; () banked
 10008+ 0050FC  0109               	movlb	9	; () banked
 10009+ 0050FE  351F               	rlcf	((RestoreMaze@j+1))&0ffh,w
 10010+ 005100  0109               	movlb	9	; () banked
 10011+ 005102  6F28               	movwf	1+(??_RestoreMaze+13+0)&0ffh
 10012+ 005104  0109               	movlb	9	; () banked
 10013+ 005106  C91A  F929         	movff	(RestoreMaze@i),??_RestoreMaze+15+0
 10014+ 00510A  0109               	movlb	9	; () banked
 10015+ 00510C  C91B  F92A         	movff	(RestoreMaze@i+1),??_RestoreMaze+15+0+1
 10016+ 005110  0E05               	movlw	05h
 10017+ 005112                     u7735:
 10018+ 005112  90D8               	bcf	status,0
 10019+ 005114  0109               	movlb	9	; () banked
 10020+ 005116  3729               	rlcf	(??_RestoreMaze+15+0)&0ffh
 10021+ 005118  372A               	rlcf	(??_RestoreMaze+15+1)&0ffh
 10022+ 00511A  2EE8               	decfsz	wreg
 10023+ 00511C  EF89  F028         	goto	u7735
 10024+ 005120  0E00               	movlw	low(512)
 10025+ 005122  0109               	movlb	9	; () banked
 10026+ 005124  2529               	addwf	(??_RestoreMaze+15+0)&0ffh,w
 10027+ 005126  0109               	movlb	9	; () banked
 10028+ 005128  6F2B               	movwf	(??_RestoreMaze+17+0)&0ffh
 10029+ 00512A  0E02               	movlw	high(512)
 10030+ 00512C  0109               	movlb	9	; () banked
 10031+ 00512E  212A               	addwfc	(??_RestoreMaze+15+1)&0ffh,w
 10032+ 005130  0109               	movlb	9	; () banked
 10033+ 005132  6F2C               	movwf	1+(??_RestoreMaze+17+0)&0ffh
 10034+ 005134  0109               	movlb	9	; () banked
 10035+ 005136  5127               	movf	(??_RestoreMaze+13+0)&0ffh,w
 10036+ 005138  0109               	movlb	9	; () banked
 10037+ 00513A  252B               	addwf	(??_RestoreMaze+17+0)&0ffh,w
 10038+ 00513C  6EE9               	movwf	c:fsr0l
 10039+ 00513E  0109               	movlb	9	; () banked
 10040+ 005140  5128               	movf	(??_RestoreMaze+13+1)&0ffh,w
 10041+ 005142  0109               	movlb	9	; () banked
 10042+ 005144  212C               	addwfc	(??_RestoreMaze+17+1)&0ffh,w
 10043+ 005146  6EEA               	movwf	1+c:fsr0l
 10044+ 005148  C925  FFEE         	movff	??_RestoreMaze+11+0,postinc0
 10045+ 00514C  C926  FFED         	movff	??_RestoreMaze+11+1,postdec0
 10046+                          
 10047+                          	line	799
 10048+ 005150  0109               	movlb	9	; () banked
 10049+ 005152  0109               	movlb	9	; () banked
 10050+ 005154  4B1E               	infsnz	((RestoreMaze@j))&0ffh
 10051+ 005156  2B1F               	incf	((RestoreMaze@j+1))&0ffh
 10052+ 005158  0109               	movlb	9	; () banked
 10053+ 00515A  0109               	movlb	9	; () banked
 10054+ 00515C  511F               	movf	((RestoreMaze@j+1))&0ffh,w
 10055+ 00515E  0A80               	xorlw	80h
 10056+ 005160  0F80               	addlw	-((0)^80h)
 10057+ 005162  0E10               	movlw	010h
 10058+ 005164  B4D8               	btfsc	status,2
 10059+ 005166  5D1E               	subwf	((RestoreMaze@j))&0ffh,w
 10060+ 005168  A0D8               	btfss	status,0
 10061+ 00516A  EFB9  F028         	goto	u7741
 10062+ 00516E  EFBB  F028         	goto	u7740
 10063+ 005172                     u7741:
 10064+ 005172  EF50  F028         	goto	l634
 10065+ 005176                     u7740:
 10066+                          	
 10067+ 005176                     l635:		; BSR set to: ?
 10068+                          
 10069+                          	line	798
 10070+ 005176  0109               	movlb	9	; () banked
 10071+ 005178  0109               	movlb	9	; () banked
 10072+ 00517A  4B1A               	infsnz	((RestoreMaze@i))&0ffh
 10073+ 00517C  2B1B               	incf	((RestoreMaze@i+1))&0ffh
 10074+ 00517E  0109               	movlb	9	; () banked
 10075+ 005180  0109               	movlb	9	; () banked
 10076+ 005182  511B               	movf	((RestoreMaze@i+1))&0ffh,w
 10077+ 005184  0A80               	xorlw	80h
 10078+ 005186  0F80               	addlw	-((0)^80h)
 10079+ 005188  0E10               	movlw	010h
 10080+ 00518A  B4D8               	btfsc	status,2
 10081+ 00518C  5D1A               	subwf	((RestoreMaze@i))&0ffh,w
 10082+ 00518E  A0D8               	btfss	status,0
 10083+ 005190  EFCC  F028         	goto	u7751
 10084+ 005194  EFCE  F028         	goto	u7750
 10085+ 005198                     u7751:
 10086+ 005198  EF38  F028         	goto	l631
 10087+ 00519C                     u7750:
 10088+                          	
 10089+ 00519C                     l632:		; BSR set to: ?
 10090+                          
 10091+                          	line	803
 10092+                          ;main.c: 803: for(int i = 0; i < 16; i++)
 10093+ 00519C  0E00               	movlw	low(0)
 10094+ 00519E  0109               	movlb	9	; () banked
 10095+ 0051A0  0109               	movlb	9	; () banked
 10096+ 0051A2  6F1C               	movwf	((RestoreMaze@i_170))&0ffh
 10097+ 0051A4  0E00               	movlw	high(0)
 10098+ 0051A6  0109               	movlb	9	; () banked
 10099+ 0051A8  6F1D               	movwf	((RestoreMaze@i_170+1))&0ffh
 10100+ 0051AA  0109               	movlb	9	; () banked
 10101+ 0051AC  0109               	movlb	9	; () banked
 10102+ 0051AE  511D               	movf	((RestoreMaze@i_170+1))&0ffh,w
 10103+ 0051B0  0A80               	xorlw	80h
 10104+ 0051B2  0F80               	addlw	-((0)^80h)
 10105+ 0051B4  0E10               	movlw	010h
 10106+ 0051B6  B4D8               	btfsc	status,2
 10107+ 0051B8  5D1C               	subwf	((RestoreMaze@i_170))&0ffh,w
 10108+ 0051BA  A0D8               	btfss	status,0
 10109+ 0051BC  EFE2  F028         	goto	u7761
 10110+ 0051C0  EFE4  F028         	goto	u7760
 10111+ 0051C4                     u7761:
 10112+ 0051C4  EFE6  F028         	goto	l637
 10113+ 0051C8                     u7760:
 10114+ 0051C8  EF78  F029         	goto	l638
 10115+                          	line	804
 10116+                          	
 10117+ 0051CC                     l637:		; BSR set to: ?
 10118+                          
 10119+                          ;main.c: 804: for(int j = 0; j < 16; j++)
 10120+ 0051CC  0E00               	movlw	low(0)
 10121+ 0051CE  0109               	movlb	9	; () banked
 10122+ 0051D0  0109               	movlb	9	; () banked
 10123+ 0051D2  6F20               	movwf	((RestoreMaze@j_171))&0ffh
 10124+ 0051D4  0E00               	movlw	high(0)
 10125+ 0051D6  0109               	movlb	9	; () banked
 10126+ 0051D8  6F21               	movwf	((RestoreMaze@j_171+1))&0ffh
 10127+ 0051DA  0109               	movlb	9	; () banked
 10128+ 0051DC  0109               	movlb	9	; () banked
 10129+ 0051DE  5121               	movf	((RestoreMaze@j_171+1))&0ffh,w
 10130+ 0051E0  0A80               	xorlw	80h
 10131+ 0051E2  0F80               	addlw	-((0)^80h)
 10132+ 0051E4  0E10               	movlw	010h
 10133+ 0051E6  B4D8               	btfsc	status,2
 10134+ 0051E8  5D20               	subwf	((RestoreMaze@j_171))&0ffh,w
 10135+ 0051EA  A0D8               	btfss	status,0
 10136+ 0051EC  EFFA  F028         	goto	u7771
 10137+ 0051F0  EFFC  F028         	goto	u7770
 10138+ 0051F4                     u7771:
 10139+ 0051F4  EFFE  F028         	goto	l640
 10140+ 0051F8                     u7770:
 10141+ 0051F8  EF65  F029         	goto	l641
 10142+                          	line	805
 10143+                          	
 10144+ 0051FC                     l640:		; BSR set to: ?
 10145+                          
 10146+                          ;main.c: 805: wallMap[i][j] = eeprom_read(i+j+25
      +                          6);
 10147+ 0051FC  0109               	movlb	9	; () banked
 10148+ 0051FE  C91C  F922         	movff	(RestoreMaze@i_170),??_RestoreMaze+8+0
 10149+ 005202  0109               	movlb	9	; () banked
 10150+ 005204  C91D  F923         	movff	(RestoreMaze@i_170+1),??_RestoreMaze+8+0+
      +                          1
 10151+ 005208  0109               	movlb	9	; () banked
 10152+ 00520A  0109               	movlb	9	; () banked
 10153+ 00520C  5120               	movf	((RestoreMaze@j_171))&0ffh,w
 10154+ 00520E  0109               	movlb	9	; () banked
 10155+ 005210  2722               	addwf	(??_RestoreMaze+8+0)&0ffh
 10156+ 005212  0109               	movlb	9	; () banked
 10157+ 005214  0109               	movlb	9	; () banked
 10158+ 005216  5121               	movf	((RestoreMaze@j_171+1))&0ffh,w
 10159+ 005218  0109               	movlb	9	; () banked
 10160+ 00521A  2323               	addwfc	(??_RestoreMaze+8+1)&0ffh
 10161+ 00521C  0E00               	movlw	low(0100h)
 10162+ 00521E  0109               	movlb	9	; () banked
 10163+ 005220  2522               	addwf	(??_RestoreMaze+8+0)&0ffh,w
 10164+ 005222  0109               	movlb	9	; () banked
 10165+                          	
 10166+ 005224  0109               	movlb	9	; () banked
 10167+ 005226  6F2D               	movwf	((?_eeprom_read))&0ffh
 10168+ 005228  0E01               	movlw	high(0100h)
 10169+ 00522A  0109               	movlb	9	; () banked
 10170+ 00522C  2123               	addwfc	(??_RestoreMaze+8+1)&0ffh,w
 10171+ 00522E  0109               	movlb	9	; () banked
 10172+ 005230  6F2E               	movwf	1+((?_eeprom_read))&0ffh
 10173+ 005232  EC43  F030         	call	_eeprom_read	;wreg free
 10174+ 005236  0109               	movlb	9	; () banked
 10175+ 005238  6F24               	movwf	(??_RestoreMaze+10+0)&0ffh
 10176+ 00523A  C924  F925         	movff	(??_RestoreMaze+10+0),??_RestoreMaze+11+0
 10177+ 00523E  0109               	movlb	9	; () banked
 10178+ 005240  6B26               	clrf	(??_RestoreMaze+11+0+1)&0ffh
 10179+ 005242  90D8               	bcf	status,0
 10180+ 005244  0109               	movlb	9	; () banked
 10181+ 005246  0109               	movlb	9	; () banked
 10182+ 005248  3520               	rlcf	((RestoreMaze@j_171))&0ffh,w
 10183+ 00524A  0109               	movlb	9	; () banked
 10184+ 00524C  6F27               	movwf	(??_RestoreMaze+13+0)&0ffh
 10185+ 00524E  0109               	movlb	9	; () banked
 10186+ 005250  0109               	movlb	9	; () banked
 10187+ 005252  3521               	rlcf	((RestoreMaze@j_171+1))&0ffh,w
 10188+ 005254  0109               	movlb	9	; () banked
 10189+ 005256  6F28               	movwf	1+(??_RestoreMaze+13+0)&0ffh
 10190+ 005258  0109               	movlb	9	; () banked
 10191+ 00525A  C91C  F929         	movff	(RestoreMaze@i_170),??_RestoreMaze+15+0
 10192+ 00525E  0109               	movlb	9	; () banked
 10193+ 005260  C91D  F92A         	movff	(RestoreMaze@i_170+1),??_RestoreMaze+15+0
      +                          +1
 10194+ 005264  0E05               	movlw	05h
 10195+ 005266                     u7785:
 10196+ 005266  90D8               	bcf	status,0
 10197+ 005268  0109               	movlb	9	; () banked
 10198+ 00526A  3729               	rlcf	(??_RestoreMaze+15+0)&0ffh
 10199+ 00526C  372A               	rlcf	(??_RestoreMaze+15+1)&0ffh
 10200+ 00526E  2EE8               	decfsz	wreg
 10201+ 005270  EF33  F029         	goto	u7785
 10202+ 005274  0E00               	movlw	low(0)
 10203+ 005276  0109               	movlb	9	; () banked
 10204+ 005278  2529               	addwf	(??_RestoreMaze+15+0)&0ffh,w
 10205+ 00527A  0109               	movlb	9	; () banked
 10206+ 00527C  6F2B               	movwf	(??_RestoreMaze+17+0)&0ffh
 10207+ 00527E  0E00               	movlw	high(0)
 10208+ 005280  0109               	movlb	9	; () banked
 10209+ 005282  212A               	addwfc	(??_RestoreMaze+15+1)&0ffh,w
 10210+ 005284  0109               	movlb	9	; () banked
 10211+ 005286  6F2C               	movwf	1+(??_RestoreMaze+17+0)&0ffh
 10212+ 005288  0109               	movlb	9	; () banked
 10213+ 00528A  5127               	movf	(??_RestoreMaze+13+0)&0ffh,w
 10214+ 00528C  0109               	movlb	9	; () banked
 10215+ 00528E  252B               	addwf	(??_RestoreMaze+17+0)&0ffh,w
 10216+ 005290  6EE9               	movwf	c:fsr0l
 10217+ 005292  0109               	movlb	9	; () banked
 10218+ 005294  5128               	movf	(??_RestoreMaze+13+1)&0ffh,w
 10219+ 005296  0109               	movlb	9	; () banked
 10220+ 005298  212C               	addwfc	(??_RestoreMaze+17+1)&0ffh,w
 10221+ 00529A  6EEA               	movwf	1+c:fsr0l
 10222+ 00529C  C925  FFEE         	movff	??_RestoreMaze+11+0,postinc0
 10223+ 0052A0  C926  FFED         	movff	??_RestoreMaze+11+1,postdec0
 10224+                          
 10225+                          	line	804
 10226+ 0052A4  0109               	movlb	9	; () banked
 10227+ 0052A6  0109               	movlb	9	; () banked
 10228+ 0052A8  4B20               	infsnz	((RestoreMaze@j_171))&0ffh
 10229+ 0052AA  2B21               	incf	((RestoreMaze@j_171+1))&0ffh
 10230+ 0052AC  0109               	movlb	9	; () banked
 10231+ 0052AE  0109               	movlb	9	; () banked
 10232+ 0052B0  5121               	movf	((RestoreMaze@j_171+1))&0ffh,w
 10233+ 0052B2  0A80               	xorlw	80h
 10234+ 0052B4  0F80               	addlw	-((0)^80h)
 10235+ 0052B6  0E10               	movlw	010h
 10236+ 0052B8  B4D8               	btfsc	status,2
 10237+ 0052BA  5D20               	subwf	((RestoreMaze@j_171))&0ffh,w
 10238+ 0052BC  A0D8               	btfss	status,0
 10239+ 0052BE  EF63  F029         	goto	u7791
 10240+ 0052C2  EF65  F029         	goto	u7790
 10241+ 0052C6                     u7791:
 10242+ 0052C6  EFFE  F028         	goto	l640
 10243+ 0052CA                     u7790:
 10244+                          	
 10245+ 0052CA                     l641:		; BSR set to: ?
 10246+                          
 10247+                          	line	803
 10248+ 0052CA  0109               	movlb	9	; () banked
 10249+ 0052CC  0109               	movlb	9	; () banked
 10250+ 0052CE  4B1C               	infsnz	((RestoreMaze@i_170))&0ffh
 10251+ 0052D0  2B1D               	incf	((RestoreMaze@i_170+1))&0ffh
 10252+ 0052D2  0109               	movlb	9	; () banked
 10253+ 0052D4  0109               	movlb	9	; () banked
 10254+ 0052D6  511D               	movf	((RestoreMaze@i_170+1))&0ffh,w
 10255+ 0052D8  0A80               	xorlw	80h
 10256+ 0052DA  0F80               	addlw	-((0)^80h)
 10257+ 0052DC  0E10               	movlw	010h
 10258+ 0052DE  B4D8               	btfsc	status,2
 10259+ 0052E0  5D1C               	subwf	((RestoreMaze@i_170))&0ffh,w
 10260+ 0052E2  A0D8               	btfss	status,0
 10261+ 0052E4  EF76  F029         	goto	u7801
 10262+ 0052E8  EF78  F029         	goto	u7800
 10263+ 0052EC                     u7801:
 10264+ 0052EC  EFE6  F028         	goto	l637
 10265+ 0052F0                     u7800:
 10266+                          	
 10267+ 0052F0                     l638:		; BSR set to: ?
 10268+                          
 10269+                          	line	808
 10270+                          ;main.c: 808: mazeStart = eeprom_read(513);
 10271+ 0052F0  0E01               	movlw	low(0201h)
 10272+ 0052F2  0109               	movlb	9	; () banked
 10273+ 0052F4  0109               	movlb	9	; () banked
 10274+ 0052F6  6F2D               	movwf	((?_eeprom_read))&0ffh
 10275+ 0052F8  0E02               	movlw	high(0201h)
 10276+ 0052FA  0109               	movlb	9	; () banked
 10277+ 0052FC  6F2E               	movwf	((?_eeprom_read+1))&0ffh
 10278+ 0052FE  EC43  F030         	call	_eeprom_read	;wreg free
 10279+ 005302  0109               	movlb	9	; () banked
 10280+ 005304  6F22               	movwf	(??_RestoreMaze+8+0)&0ffh
 10281+ 005306  0109               	movlb	9	; () banked
 10282+ 005308  5122               	movf	((??_RestoreMaze+8+0))&0ffh,w
 10283+ 00530A  0108               	movlb	8	; () banked
 10284+ 00530C  0108               	movlb	8	; () banked
 10285+ 00530E  6F17               	movwf	((2071))&0ffh
 10286+ 005310  0108               	movlb	8	; () banked
 10287+ 005312  6B18               	clrf	((2071+1))&0ffh
 10288+                          	line	810
 10289+                          ;main.c: 810: }
 10290+ 005314                     l630:
 10291+                          			; BSR set to: ?
 10292+                          
 10293+ 005314  0012               	return
 10294+                          	opt stack 0
 10295+                          GLOBAL __end_of_RestoreMaze
 10296+ 005316                     	__end_of_RestoreMaze:
 10297+                          	FNSIZE	_RestoreMaze,19,0
 10298+                          ; =============== function _RestoreMaze ends ===
      +                          =========
 10299+                          
 10300+                          	signat	_RestoreMaze,88
 10301+                          	global	_EndMaze
 10302+                          	global	??_EndMaze
 10303+                          	global	?_EndMaze
 10304+                          
 10305+                          ; *************** function _EndMaze ************
      +                          *****
 10306+                          ; Defined at:
 10307+                          ;		line 510 in file "C:\Users\tab\Desktop\electr
      +                          onics\micro_mouse\WORKING_SAC\main.c"
 10308+                          ; Parameters:
 10309+                          ;		None
 10310+                          ; Auto variables:
 10311+                          ;		i           	       	type: int 
 10312+                          ;		bsVar       	       	type: int 
 10313+                          ; Return value:
 10314+                          ;		type: void 
 10315+                          ;		size: 0
 10316+                          ; Registers used:
 10317+                          ;		wreg, fsr0l, fsr0h, status,2, status,0, cstac
      +                          k
 10318+                          ; Tracked objects:
 10319+                          ;		On entry : 0/0
 10320+                          ;		On exit  : 0/0
 10321+                          ;		Unchanged: 0/0
 10322+                          ; Data sizes:
 10323+                          ;		Autos:    4
 10324+                          ;		Params:   0
 10325+                          ;		Temp:     2
 10326+                          ;		Total:    6
 10327+                          ; This function calls:
 10328+                          ;		_SaveMaze
 10329+                          ;		_LED
 10330+                          ;		_DelayMs
 10331+                          ;		_TurnAround
 10332+                          ;		_MOVE
 10333+                          ;		_TurnLeft
 10334+                          ;		_TurnRight
 10335+                          ; This function is called by:
 10336+                          ;		_SolveMaze
 10337+                          ; This function uses a non-reentrant model
 10338+                          ; 
 10339+                                  psect   text9,class=CODE,space=0,reloc=2
 10340+                          
 10341+                          	opt lm
 10342+                          	file	"C:\Users\tab\Desktop\electronics\micro_mo
      +                          use\WORKING_SAC\main.c"
 10343+                          	line	510
 10344+ 000000                     	__size_of_EndMaze	equ	__end_of_EndMaze-_EndMaze
 10345+                          ;main.c: 510: void EndMaze(){
 10346+                          	
 10347+ 005882                     _EndMaze:		; BSR set to: ?
 10348+                          
 10349+                          	opt stack 28
 10350+                          	line	511
 10351+                          ;main.c: 511: SaveMaze();
 10352+ 005882  ECE9  F02A         	call	_SaveMaze	;wreg free
 10353+                          	line	514
 10354+                          ;main.c: 514: for(int i = 0;i < 2; i++){
 10355+ 005886  0E00               	movlw	low(0)
 10356+ 005888  0109               	movlb	9	; () banked
 10357+ 00588A  0109               	movlb	9	; () banked
 10358+ 00588C  6F2A               	movwf	((EndMaze@i))&0ffh
 10359+ 00588E  0E00               	movlw	high(0)
 10360+ 005890  0109               	movlb	9	; () banked
 10361+ 005892  6F2B               	movwf	((EndMaze@i+1))&0ffh
 10362+ 005894  0109               	movlb	9	; () banked
 10363+ 005896  0109               	movlb	9	; () banked
 10364+ 005898  512B               	movf	((EndMaze@i+1))&0ffh,w
 10365+ 00589A  0A80               	xorlw	80h
 10366+ 00589C  0F80               	addlw	-((0)^80h)
 10367+ 00589E  0E02               	movlw	02h
 10368+ 0058A0  B4D8               	btfsc	status,2
 10369+ 0058A2  5D2A               	subwf	((EndMaze@i))&0ffh,w
 10370+ 0058A4  A0D8               	btfss	status,0
 10371+ 0058A6  EF57  F02C         	goto	u7941
 10372+ 0058AA  EF59  F02C         	goto	u7940
 10373+ 0058AE                     u7941:
 10374+ 0058AE  EF5B  F02C         	goto	l517
 10375+ 0058B2                     u7940:
 10376+ 0058B2  EFAE  F02C         	goto	l518
 10377+                          	
 10378+ 0058B6                     l517:		; BSR set to: ?
 10379+                          
 10380+                          	line	515
 10381+                          ;main.c: 515: if(switchPosition != RB5)
 10382+ 0058B6  0E00               	movlw	0
 10383+ 0058B8  BA81               	btfsc	c:(31757/8),(31757)&7	;volatile
 10384+ 0058BA  0E01               	movlw	1
 10385+ 0058BC  0109               	movlb	9	; () banked
 10386+ 0058BE  6F2E               	movwf	(??_EndMaze+4+0)&0ffh
 10387+ 0058C0  6B2F               	clrf	(??_EndMaze+4+0+1)&0ffh
 10388+ 0058C2  0108               	movlb	8	; () banked
 10389+ 0058C4  0108               	movlb	8	; () banked
 10390+ 0058C6  511C               	movf	((2075+1))&0ffh,w
 10391+ 0058C8  0109               	movlb	9	; () banked
 10392+ 0058CA  192F               	xorwf	(??_EndMaze+4+1)&0ffh,w
 10393+ 0058CC  E105               	bnz	u7955
 10394+ 0058CE  0108               	movlb	8	; () banked
 10395+ 0058D0  0108               	movlb	8	; () banked
 10396+ 0058D2  511B               	movf	((2075))&0ffh,w
 10397+ 0058D4  0109               	movlb	9	; () banked
 10398+ 0058D6  192E               	xorwf	(??_EndMaze+4+0)&0ffh,w
 10399+ 0058D8                     u7955:
 10400+                          
 10401+ 0058D8  B4D8               	btfsc	status,2
 10402+ 0058DA  EF71  F02C         	goto	u7951
 10403+ 0058DE  EF73  F02C         	goto	u7950
 10404+ 0058E2                     u7951:
 10405+ 0058E2  EF75  F02C         	goto	l520
 10406+ 0058E6                     u7950:
 10407+                          	line	516
 10408+                          ;main.c: 516: break;
 10409+ 0058E6  EFAE  F02C         	goto	l518
 10410+                          	
 10411+ 0058EA                     l520:		; BSR set to: ?
 10412+                          
 10413+                          	line	518
 10414+                          ;main.c: 518: LED(5);
 10415+ 0058EA  0E05               	movlw	low(05h)
 10416+ 0058EC  0109               	movlb	9	; () banked
 10417+ 0058EE  0109               	movlb	9	; () banked
 10418+ 0058F0  6F30               	movwf	((?_LED))&0ffh
 10419+ 0058F2  0E00               	movlw	high(05h)
 10420+ 0058F4  0109               	movlb	9	; () banked
 10421+ 0058F6  6F31               	movwf	((?_LED+1))&0ffh
 10422+ 0058F8  EC5B  F030         	call	_LED	;wreg free
 10423+                          	line	519
 10424+                          ;main.c: 519: DelayMs(1000);
 10425+ 0058FC  0109               	movlb	9	; () banked
 10426+ 0058FE  6F2E               	movwf	(??_EndMaze+4+0)&0ffh
 10427+ 005900  0EE8               	movlw	low(0E8h)
 10428+ 005902  0109               	movlb	9	; () banked
 10429+ 005904  0109               	movlb	9	; () banked
 10430+ 005906  6F35               	movwf	((?_DelayMs))&0ffh
 10431+ 005908  0109               	movlb	9	; () banked
 10432+ 00590A  512E               	movf	(??_EndMaze+4+0)&0ffh,w
 10433+ 00590C  ECD9  F02F         	call	_DelayMs	;wreg free
 10434+                          	line	520
 10435+                          ;main.c: 520: LED(0);
 10436+ 005910  0E00               	movlw	low(0)
 10437+ 005912  0109               	movlb	9	; () banked
 10438+ 005914  0109               	movlb	9	; () banked
 10439+ 005916  6F30               	movwf	((?_LED))&0ffh
 10440+ 005918  0E00               	movlw	high(0)
 10441+ 00591A  0109               	movlb	9	; () banked
 10442+ 00591C  6F31               	movwf	((?_LED+1))&0ffh
 10443+ 00591E  EC5B  F030         	call	_LED	;wreg free
 10444+                          	line	521
 10445+                          ;main.c: 521: DelayMs(1000);
 10446+ 005922  0109               	movlb	9	; () banked
 10447+ 005924  6F2E               	movwf	(??_EndMaze+4+0)&0ffh
 10448+ 005926  0EE8               	movlw	low(0E8h)
 10449+ 005928  0109               	movlb	9	; () banked
 10450+ 00592A  0109               	movlb	9	; () banked
 10451+ 00592C  6F35               	movwf	((?_DelayMs))&0ffh
 10452+ 00592E  0109               	movlb	9	; () banked
 10453+ 005930  512E               	movf	(??_EndMaze+4+0)&0ffh,w
 10454+ 005932  ECD9  F02F         	call	_DelayMs	;wreg free
 10455+                          	line	514
 10456+ 005936  0109               	movlb	9	; () banked
 10457+ 005938  0109               	movlb	9	; () banked
 10458+ 00593A  4B2A               	infsnz	((EndMaze@i))&0ffh
 10459+ 00593C  2B2B               	incf	((EndMaze@i+1))&0ffh
 10460+ 00593E  0109               	movlb	9	; () banked
 10461+ 005940  0109               	movlb	9	; () banked
 10462+ 005942  512B               	movf	((EndMaze@i+1))&0ffh,w
 10463+ 005944  0A80               	xorlw	80h
 10464+ 005946  0F80               	addlw	-((0)^80h)
 10465+ 005948  0E02               	movlw	02h
 10466+ 00594A  B4D8               	btfsc	status,2
 10467+ 00594C  5D2A               	subwf	((EndMaze@i))&0ffh,w
 10468+ 00594E  A0D8               	btfss	status,0
 10469+ 005950  EFAC  F02C         	goto	u7961
 10470+ 005954  EFAE  F02C         	goto	u7960
 10471+ 005958                     u7961:
 10472+ 005958  EF5B  F02C         	goto	l517
 10473+ 00595C                     u7960:
 10474+                          	
 10475+ 00595C                     l518:		; BSR set to: ?
 10476+                          
 10477+                          	line	524
 10478+                          ;main.c: 522: }
 10479+                          ;main.c: 524: TurnAround();
 10480+ 00595C  EC97  F02E         	call	_TurnAround	;wreg free
 10481+                          	line	525
 10482+                          ;main.c: 525: for(int bsVar = backMoveCount; bsV
      +                          ar >= 0; bsVar--){
 10483+ 005960  C815 F92C          	movff	(2069),(EndMaze@bsVar)
 10484+ 005964  C816 F92D          	movff	(2069+1),(EndMaze@bsVar+1)
 10485+ 005968  0109               	movlb	9	; () banked
 10486+ 00596A  0109               	movlb	9	; () banked
 10487+ 00596C  AF2D               	btfss	((EndMaze@bsVar+1))&0ffh,7
 10488+ 00596E  EFBB  F02C         	goto	u7971
 10489+ 005972  EFBD  F02C         	goto	u7970
 10490+ 005976                     u7971:
 10491+ 005976  EFBF  F02C         	goto	l521
 10492+ 00597A                     u7970:
 10493+ 00597A  EF49  F02D         	goto	l522
 10494+                          	
 10495+ 00597E                     l521:		; BSR set to: ?
 10496+                          
 10497+                          	line	527
 10498+                          ;main.c: 527: if(backMove[bsVar] == 1)
 10499+ 00597E  90D8               	bcf	status,0
 10500+ 005980  0109               	movlb	9	; () banked
 10501+ 005982  0109               	movlb	9	; () banked
 10502+ 005984  352C               	rlcf	((EndMaze@bsVar))&0ffh,w
 10503+ 005986  0109               	movlb	9	; () banked
 10504+ 005988  6F2E               	movwf	(??_EndMaze+4+0)&0ffh
 10505+ 00598A  0109               	movlb	9	; () banked
 10506+ 00598C  0109               	movlb	9	; () banked
 10507+ 00598E  352D               	rlcf	((EndMaze@bsVar+1))&0ffh,w
 10508+ 005990  0109               	movlb	9	; () banked
 10509+ 005992  6F2F               	movwf	1+(??_EndMaze+4+0)&0ffh
 10510+ 005994  0E00               	movlw	low(1024)
 10511+ 005996  0109               	movlb	9	; () banked
 10512+ 005998  252E               	addwf	(??_EndMaze+4+0)&0ffh,w
 10513+ 00599A  6EE9               	movwf	c:fsr0l
 10514+ 00599C  0E04               	movlw	high(1024)
 10515+ 00599E  0109               	movlb	9	; () banked
 10516+ 0059A0  212F               	addwfc	(??_EndMaze+4+1)&0ffh,w
 10517+ 0059A2  6EEA               	movwf	1+c:fsr0l
 10518+ 0059A4  50EE               	movf	postinc0,w
 10519+ 0059A6  0A01               	xorlw	01h
 10520+ 0059A8  10ED               	iorwf	postdec0,w
 10521+ 0059AA  A4D8               	btfss	status,2
 10522+ 0059AC  EFDA  F02C         	goto	u7981
 10523+ 0059B0  EFDC  F02C         	goto	u7980
 10524+ 0059B4                     u7981:
 10525+ 0059B4  EFDE  F02C         	goto	l524
 10526+ 0059B8                     u7980:
 10527+                          	line	528
 10528+                          ;main.c: 528: MOVE();
 10529+ 0059B8  EC3C  F024         	call	_MOVE	;wreg free
 10530+                          	
 10531+ 0059BC                     l524:		; BSR set to: ?
 10532+                          
 10533+                          	line	529
 10534+                          ;main.c: 529: if(backMove[bsVar] == 2)
 10535+ 0059BC  90D8               	bcf	status,0
 10536+ 0059BE  0109               	movlb	9	; () banked
 10537+ 0059C0  0109               	movlb	9	; () banked
 10538+ 0059C2  352C               	rlcf	((EndMaze@bsVar))&0ffh,w
 10539+ 0059C4  0109               	movlb	9	; () banked
 10540+ 0059C6  6F2E               	movwf	(??_EndMaze+4+0)&0ffh
 10541+ 0059C8  0109               	movlb	9	; () banked
 10542+ 0059CA  0109               	movlb	9	; () banked
 10543+ 0059CC  352D               	rlcf	((EndMaze@bsVar+1))&0ffh,w
 10544+ 0059CE  0109               	movlb	9	; () banked
 10545+ 0059D0  6F2F               	movwf	1+(??_EndMaze+4+0)&0ffh
 10546+ 0059D2  0E00               	movlw	low(1024)
 10547+ 0059D4  0109               	movlb	9	; () banked
 10548+ 0059D6  252E               	addwf	(??_EndMaze+4+0)&0ffh,w
 10549+ 0059D8  6EE9               	movwf	c:fsr0l
 10550+ 0059DA  0E04               	movlw	high(1024)
 10551+ 0059DC  0109               	movlb	9	; () banked
 10552+ 0059DE  212F               	addwfc	(??_EndMaze+4+1)&0ffh,w
 10553+ 0059E0  6EEA               	movwf	1+c:fsr0l
 10554+ 0059E2  50EE               	movf	postinc0,w
 10555+ 0059E4  0A02               	xorlw	02h
 10556+ 0059E6  10ED               	iorwf	postdec0,w
 10557+ 0059E8  A4D8               	btfss	status,2
 10558+ 0059EA  EFF9  F02C         	goto	u7991
 10559+ 0059EE  EFFB  F02C         	goto	u7990
 10560+ 0059F2                     u7991:
 10561+ 0059F2  EFFD  F02C         	goto	l525
 10562+ 0059F6                     u7990:
 10563+                          	line	530
 10564+                          ;main.c: 530: TurnLeft();
 10565+ 0059F6  EC14  F02F         	call	_TurnLeft	;wreg free
 10566+                          	
 10567+ 0059FA                     l525:		; BSR set to: ?
 10568+                          
 10569+                          	line	531
 10570+                          ;main.c: 531: if(backMove[bsVar] == 3)
 10571+ 0059FA  90D8               	bcf	status,0
 10572+ 0059FC  0109               	movlb	9	; () banked
 10573+ 0059FE  0109               	movlb	9	; () banked
 10574+ 005A00  352C               	rlcf	((EndMaze@bsVar))&0ffh,w
 10575+ 005A02  0109               	movlb	9	; () banked
 10576+ 005A04  6F2E               	movwf	(??_EndMaze+4+0)&0ffh
 10577+ 005A06  0109               	movlb	9	; () banked
 10578+ 005A08  0109               	movlb	9	; () banked
 10579+ 005A0A  352D               	rlcf	((EndMaze@bsVar+1))&0ffh,w
 10580+ 005A0C  0109               	movlb	9	; () banked
 10581+ 005A0E  6F2F               	movwf	1+(??_EndMaze+4+0)&0ffh
 10582+ 005A10  0E00               	movlw	low(1024)
 10583+ 005A12  0109               	movlb	9	; () banked
 10584+ 005A14  252E               	addwf	(??_EndMaze+4+0)&0ffh,w
 10585+ 005A16  6EE9               	movwf	c:fsr0l
 10586+ 005A18  0E04               	movlw	high(1024)
 10587+ 005A1A  0109               	movlb	9	; () banked
 10588+ 005A1C  212F               	addwfc	(??_EndMaze+4+1)&0ffh,w
 10589+ 005A1E  6EEA               	movwf	1+c:fsr0l
 10590+ 005A20  50EE               	movf	postinc0,w
 10591+ 005A22  0A03               	xorlw	03h
 10592+ 005A24  10ED               	iorwf	postdec0,w
 10593+ 005A26  A4D8               	btfss	status,2
 10594+ 005A28  EF18  F02D         	goto	u8001
 10595+ 005A2C  EF1A  F02D         	goto	u8000
 10596+ 005A30                     u8001:
 10597+ 005A30  EF1C  F02D         	goto	l526
 10598+ 005A34                     u8000:
 10599+                          	line	532
 10600+                          ;main.c: 532: TurnRight();
 10601+ 005A34  EC4D  F02F         	call	_TurnRight	;wreg free
 10602+                          	
 10603+ 005A38                     l526:		; BSR set to: ?
 10604+                          
 10605+                          	line	533
 10606+                          ;main.c: 533: if(backMove[bsVar] == 4)
 10607+ 005A38  90D8               	bcf	status,0
 10608+ 005A3A  0109               	movlb	9	; () banked
 10609+ 005A3C  0109               	movlb	9	; () banked
 10610+ 005A3E  352C               	rlcf	((EndMaze@bsVar))&0ffh,w
 10611+ 005A40  0109               	movlb	9	; () banked
 10612+ 005A42  6F2E               	movwf	(??_EndMaze+4+0)&0ffh
 10613+ 005A44  0109               	movlb	9	; () banked
 10614+ 005A46  0109               	movlb	9	; () banked
 10615+ 005A48  352D               	rlcf	((EndMaze@bsVar+1))&0ffh,w
 10616+ 005A4A  0109               	movlb	9	; () banked
 10617+ 005A4C  6F2F               	movwf	1+(??_EndMaze+4+0)&0ffh
 10618+ 005A4E  0E00               	movlw	low(1024)
 10619+ 005A50  0109               	movlb	9	; () banked
 10620+ 005A52  252E               	addwf	(??_EndMaze+4+0)&0ffh,w
 10621+ 005A54  6EE9               	movwf	c:fsr0l
 10622+ 005A56  0E04               	movlw	high(1024)
 10623+ 005A58  0109               	movlb	9	; () banked
 10624+ 005A5A  212F               	addwfc	(??_EndMaze+4+1)&0ffh,w
 10625+ 005A5C  6EEA               	movwf	1+c:fsr0l
 10626+ 005A5E  50EE               	movf	postinc0,w
 10627+ 005A60  0A04               	xorlw	04h
 10628+ 005A62  10ED               	iorwf	postdec0,w
 10629+ 005A64  A4D8               	btfss	status,2
 10630+ 005A66  EF37  F02D         	goto	u8011
 10631+ 005A6A  EF39  F02D         	goto	u8010
 10632+ 005A6E                     u8011:
 10633+ 005A6E  EF3B  F02D         	goto	l527
 10634+ 005A72                     u8010:
 10635+                          	line	534
 10636+                          ;main.c: 534: TurnAround();
 10637+ 005A72  EC97  F02E         	call	_TurnAround	;wreg free
 10638+                          	
 10639+ 005A76                     l527:		; BSR set to: ?
 10640+                          
 10641+                          	line	525
 10642+ 005A76  0109               	movlb	9	; () banked
 10643+ 005A78  0109               	movlb	9	; () banked
 10644+ 005A7A  072C               	decf	((EndMaze@bsVar))&0ffh
 10645+ 005A7C  A0D8               	btfss	status,0
 10646+ 005A7E  072D               	decf	((EndMaze@bsVar+1))&0ffh
 10647+ 005A80  0109               	movlb	9	; () banked
 10648+ 005A82  0109               	movlb	9	; () banked
 10649+ 005A84  AF2D               	btfss	((EndMaze@bsVar+1))&0ffh,7
 10650+ 005A86  EF47  F02D         	goto	u8021
 10651+ 005A8A  EF49  F02D         	goto	u8020
 10652+ 005A8E                     u8021:
 10653+ 005A8E  EFBF  F02C         	goto	l521
 10654+ 005A92                     u8020:
 10655+                          	
 10656+ 005A92                     l522:		; BSR set to: ?
 10657+                          
 10658+                          	line	537
 10659+                          ;main.c: 535: }
 10660+                          ;main.c: 537: switchPosition = RB5;
 10661+ 005A92  0E00               	movlw	0
 10662+ 005A94  BA81               	btfsc	c:(31757/8),(31757)&7	;volatile
 10663+ 005A96  0E01               	movlw	1
 10664+ 005A98  0108               	movlb	8	; () banked
 10665+ 005A9A  0108               	movlb	8	; () banked
 10666+ 005A9C  6F1B               	movwf	((2075))&0ffh
 10667+ 005A9E  0108               	movlb	8	; () banked
 10668+ 005AA0  6B1C               	clrf	((2075+1))&0ffh
 10669+                          	line	538
 10670+                          ;main.c: 538: for(;;){
 10671+                          	
 10672+ 005AA2                     l528:		; BSR set to: ?
 10673+                          
 10674+                          	line	539
 10675+                          ;main.c: 539: if(switchPosition != RB5)
 10676+ 005AA2  0E00               	movlw	0
 10677+ 005AA4  BA81               	btfsc	c:(31757/8),(31757)&7	;volatile
 10678+ 005AA6  0E01               	movlw	1
 10679+ 005AA8  0109               	movlb	9	; () banked
 10680+ 005AAA  6F2E               	movwf	(??_EndMaze+4+0)&0ffh
 10681+ 005AAC  6B2F               	clrf	(??_EndMaze+4+0+1)&0ffh
 10682+ 005AAE  0108               	movlb	8	; () banked
 10683+ 005AB0  0108               	movlb	8	; () banked
 10684+ 005AB2  511C               	movf	((2075+1))&0ffh,w
 10685+ 005AB4  0109               	movlb	9	; () banked
 10686+ 005AB6  192F               	xorwf	(??_EndMaze+4+1)&0ffh,w
 10687+ 005AB8  E105               	bnz	u8035
 10688+ 005ABA  0108               	movlb	8	; () banked
 10689+ 005ABC  0108               	movlb	8	; () banked
 10690+ 005ABE  511B               	movf	((2075))&0ffh,w
 10691+ 005AC0  0109               	movlb	9	; () banked
 10692+ 005AC2  192E               	xorwf	(??_EndMaze+4+0)&0ffh,w
 10693+ 005AC4                     u8035:
 10694+                          
 10695+ 005AC4  B4D8               	btfsc	status,2
 10696+ 005AC6  EF67  F02D         	goto	u8031
 10697+ 005ACA  EF69  F02D         	goto	u8030
 10698+ 005ACE                     u8031:
 10699+ 005ACE  EF6B  F02D         	goto	l531
 10700+ 005AD2                     u8030:
 10701+                          	line	540
 10702+                          ;main.c: 540: break;
 10703+ 005AD2  EF93  F02D         	goto	l529
 10704+                          	
 10705+ 005AD6                     l531:		; BSR set to: ?
 10706+                          
 10707+                          	line	542
 10708+                          ;main.c: 542: LED(5);
 10709+ 005AD6  0E05               	movlw	low(05h)
 10710+ 005AD8  0109               	movlb	9	; () banked
 10711+ 005ADA  0109               	movlb	9	; () banked
 10712+ 005ADC  6F30               	movwf	((?_LED))&0ffh
 10713+ 005ADE  0E00               	movlw	high(05h)
 10714+ 005AE0  0109               	movlb	9	; () banked
 10715+ 005AE2  6F31               	movwf	((?_LED+1))&0ffh
 10716+ 005AE4  EC5B  F030         	call	_LED	;wreg free
 10717+                          	line	543
 10718+                          ;main.c: 543: DelayMs(1000);
 10719+ 005AE8  0109               	movlb	9	; () banked
 10720+ 005AEA  6F2E               	movwf	(??_EndMaze+4+0)&0ffh
 10721+ 005AEC  0EE8               	movlw	low(0E8h)
 10722+ 005AEE  0109               	movlb	9	; () banked
 10723+ 005AF0  0109               	movlb	9	; () banked
 10724+ 005AF2  6F35               	movwf	((?_DelayMs))&0ffh
 10725+ 005AF4  0109               	movlb	9	; () banked
 10726+ 005AF6  512E               	movf	(??_EndMaze+4+0)&0ffh,w
 10727+ 005AF8  ECD9  F02F         	call	_DelayMs	;wreg free
 10728+                          	line	544
 10729+                          ;main.c: 544: LED(0);
 10730+ 005AFC  0E00               	movlw	low(0)
 10731+ 005AFE  0109               	movlb	9	; () banked
 10732+ 005B00  0109               	movlb	9	; () banked
 10733+ 005B02  6F30               	movwf	((?_LED))&0ffh
 10734+ 005B04  0E00               	movlw	high(0)
 10735+ 005B06  0109               	movlb	9	; () banked
 10736+ 005B08  6F31               	movwf	((?_LED+1))&0ffh
 10737+ 005B0A  EC5B  F030         	call	_LED	;wreg free
 10738+                          	line	545
 10739+                          ;main.c: 545: DelayMs(1000);
 10740+ 005B0E  0109               	movlb	9	; () banked
 10741+ 005B10  6F2E               	movwf	(??_EndMaze+4+0)&0ffh
 10742+ 005B12  0EE8               	movlw	low(0E8h)
 10743+ 005B14  0109               	movlb	9	; () banked
 10744+ 005B16  0109               	movlb	9	; () banked
 10745+ 005B18  6F35               	movwf	((?_DelayMs))&0ffh
 10746+ 005B1A  0109               	movlb	9	; () banked
 10747+ 005B1C  512E               	movf	(??_EndMaze+4+0)&0ffh,w
 10748+ 005B1E  ECD9  F02F         	call	_DelayMs	;wreg free
 10749+                          	line	546
 10750+                          ;main.c: 546: }
 10751+ 005B22  EF51  F02D         	goto	l528
 10752+                          	
 10753+ 005B26                     l529:		; BSR set to: ?
 10754+                          
 10755+                          	line	549
 10756+                          ;main.c: 549: }
 10757+ 005B26                     l516:
 10758+                          			; BSR set to: ?
 10759+                          
 10760+ 005B26  0012               	return
 10761+                          	opt stack 0
 10762+                          GLOBAL __end_of_EndMaze
 10763+ 005B28                     	__end_of_EndMaze:
 10764+                          	FNSIZE	_EndMaze,6,0
 10765+                          ; =============== function _EndMaze ends =======
      +                          =====
 10766+                          
 10767+                          	signat	_EndMaze,88
 10768+                          	global	_CheckAdjacentCells
 10769+                          	global	??_CheckAdjacentCells
 10770+                          	global	?_CheckAdjacentCells
 10771+                          
 10772+                          ; *************** function _CheckAdjacentCells *
      +                          ****************
 10773+                          ; Defined at:
 10774+                          ;		line 553 in file "C:\Users\tab\Desktop\electr
      +                          onics\micro_mouse\WORKING_SAC\main.c"
 10775+                          ; Parameters:
 10776+                          ;		y              size:   2offs:   0	type: short
      +                           
 10777+                          ;		x              size:   2offs:   2	type: short
      +                           
 10778+                          ; Auto variables:
 10779+                          ;		bottomSquare	       	type: short 
 10780+                          ;		holdVar     	       	type: short 
 10781+                          ;		leftSquare  	       	type: short 
 10782+                          ;		rightSquare 	       	type: short 
 10783+                          ;		topSquare   	       	type: short 
 10784+                          ;		lowestSquare	       	type: short 
 10785+                          ;		lowestFound 	       	type: short 
 10786+                          ;		adjacentSqua	       	type: short [4]
 10787+                          ;		j           	       	type: int 
 10788+                          ;		i           	       	type: int 
 10789+                          ;		i           	       	type: int 
 10790+                          ; Return value:
 10791+                          ;		type: void 
 10792+                          ;		size: 0
 10793+                          ; Registers used:
 10794+                          ;		wreg, fsr0l, fsr0h, fsr1l, fsr1h, status,2, s
      +                          tatus,0, cstack
 10795+                          ; Tracked objects:
 10796+                          ;		On entry : 0/0
 10797+                          ;		On exit  : 0/0
 10798+                          ;		Unchanged: 0/0
 10799+                          ; Data sizes:
 10800+                          ;		Autos:   28
 10801+                          ;		Params:   4
 10802+                          ;		Temp:     8
 10803+                          ;		Total:   40
 10804+                          ; This function calls:
 10805+                          ;		___awmod
 10806+                          ; This function is called by:
 10807+                          ;		_SolveMaze
 10808+                          ; This function uses a non-reentrant model
 10809+                          ; 
 10810+                                  psect   text10,class=CODE,space=0,reloc=
      +                          2
 10811+                          
 10812+                          	opt lm
 10813+                          	file	"C:\Users\tab\Desktop\electronics\micro_mo
      +                          use\WORKING_SAC\main.c"
 10814+                          	line	553
 10815+ 000000                     	__size_of_CheckAdjacentCells	equ	__end_of_Check
      +                          AdjacentCells-_CheckAdjacentCells
 10816+                          ;main.c: 553: void CheckAdjacentCells(short y, s
      +                          hort x){
 10817+                          	
 10818+ 003604                     _CheckAdjacentCells:		; BSR set to: ?
 10819+                          
 10820+                          	opt stack 28
 10821+                          	line	554
 10822+                          ;main.c: 554: short adjacentSquares[4]={300,300,
      +                          300,300};
 10823+ 003604  EE08 F00D          	lfsr	0,(2061)
 10824+ 003608  EE19  F03C         	lfsr	1,(CheckAdjacentCells@adjacentSquares)
 10825+ 00360C  0E08               	movlw	8
 10826+ 00360E                     u9781:
 10827+ 00360E  CFEE FFE6          	movff	postinc0,postinc1
 10828+ 003612  2EE8               	decfsz	wreg
 10829+ 003614  EF07  F01B         	goto	u9781
 10830+                          	line	560
 10831+                          ;main.c: 555: short rightSquare;
 10832+                          ;main.c: 556: short leftSquare;
 10833+                          ;main.c: 557: short topSquare;
 10834+                          ;main.c: 558: short bottomSquare;
 10835+                          ;main.c: 559: short lowestSquare;
 10836+                          ;main.c: 560: short lowestFound = 0;
 10837+ 003618  0E00               	movlw	low(0)
 10838+ 00361A  0109               	movlb	9	; () banked
 10839+ 00361C  0109               	movlb	9	; () banked
 10840+ 00361E  6F3A               	movwf	((CheckAdjacentCells@lowestFound))&0ffh
 10841+ 003620  0E00               	movlw	high(0)
 10842+ 003622  0109               	movlb	9	; () banked
 10843+ 003624  6F3B               	movwf	((CheckAdjacentCells@lowestFound+1))&0ffh
 10844+                          	line	561
 10845+                          ;main.c: 561: short holdVar = 0;
 10846+ 003626  0E00               	movlw	low(0)
 10847+ 003628  0109               	movlb	9	; () banked
 10848+ 00362A  0109               	movlb	9	; () banked
 10849+ 00362C  6F30               	movwf	((CheckAdjacentCells@holdVar))&0ffh
 10850+ 00362E  0E00               	movlw	high(0)
 10851+ 003630  0109               	movlb	9	; () banked
 10852+ 003632  6F31               	movwf	((CheckAdjacentCells@holdVar+1))&0ffh
 10853+                          	line	566
 10854+                          ;main.c: 566: if(x + 1 < 16){
 10855+ 003634  0E01               	movlw	01h
 10856+ 003636  0109               	movlb	9	; () banked
 10857+ 003638  0109               	movlb	9	; () banked
 10858+ 00363A  252C               	addwf	((CheckAdjacentCells@x))&0ffh,w
 10859+ 00363C  0109               	movlb	9	; () banked
 10860+ 00363E  6F4A               	movwf	(??_CheckAdjacentCells+28+0)&0ffh
 10861+ 003640  0E00               	movlw	0
 10862+ 003642  0109               	movlb	9	; () banked
 10863+ 003644  0109               	movlb	9	; () banked
 10864+ 003646  212D               	addwfc	((CheckAdjacentCells@x+1))&0ffh,w
 10865+ 003648  0109               	movlb	9	; () banked
 10866+ 00364A  6F4B               	movwf	(??_CheckAdjacentCells+28+0+1)&0ffh
 10867+ 00364C  0109               	movlb	9	; () banked
 10868+ 00364E  514B               	movf	(??_CheckAdjacentCells+28+1)&0ffh,w
 10869+ 003650  0A80               	xorlw	80h
 10870+ 003652  0F80               	addlw	-((0)^80h)
 10871+ 003654  0E10               	movlw	010h
 10872+ 003656  B4D8               	btfsc	status,2
 10873+ 003658  5D4A               	subwf	(??_CheckAdjacentCells+28+0)&0ffh,w
 10874+ 00365A  B0D8               	btfsc	status,0
 10875+ 00365C  EF32  F01B         	goto	u9791
 10876+ 003660  EF34  F01B         	goto	u9790
 10877+ 003664                     u9791:
 10878+ 003664  EF70  F01B         	goto	l533
 10879+ 003668                     u9790:
 10880+                          	line	567
 10881+                          ;main.c: 567: adjacentSquares[0] = mazeMap[y][x+
      +                          1];
 10882+ 003668  0109               	movlb	9	; () banked
 10883+ 00366A  C92A  F94A         	movff	(CheckAdjacentCells@y),??_CheckAdjacentCe
      +                          lls+28+0
 10884+ 00366E  0109               	movlb	9	; () banked
 10885+ 003670  C92B  F94B         	movff	(CheckAdjacentCells@y+1),??_CheckAdjacent
      +                          Cells+28+0+1
 10886+ 003674  0E05               	movlw	05h
 10887+ 003676                     u9805:
 10888+ 003676  90D8               	bcf	status,0
 10889+ 003678  0109               	movlb	9	; () banked
 10890+ 00367A  374A               	rlcf	(??_CheckAdjacentCells+28+0)&0ffh
 10891+ 00367C  374B               	rlcf	(??_CheckAdjacentCells+28+1)&0ffh
 10892+ 00367E  2EE8               	decfsz	wreg
 10893+ 003680  EF3B  F01B         	goto	u9805
 10894+ 003684  90D8               	bcf	status,0
 10895+ 003686  0109               	movlb	9	; () banked
 10896+ 003688  0109               	movlb	9	; () banked
 10897+ 00368A  352C               	rlcf	((CheckAdjacentCells@x))&0ffh,w
 10898+ 00368C  0109               	movlb	9	; () banked
 10899+ 00368E  6F4C               	movwf	(??_CheckAdjacentCells+30+0)&0ffh
 10900+ 003690  0109               	movlb	9	; () banked
 10901+ 003692  0109               	movlb	9	; () banked
 10902+ 003694  352D               	rlcf	((CheckAdjacentCells@x+1))&0ffh,w
 10903+ 003696  0109               	movlb	9	; () banked
 10904+ 003698  6F4D               	movwf	1+(??_CheckAdjacentCells+30+0)&0ffh
 10905+ 00369A  0E02               	movlw	02h
 10906+ 00369C  0109               	movlb	9	; () banked
 10907+ 00369E  274C               	addwf	(??_CheckAdjacentCells+30+0)&0ffh
 10908+ 0036A0  0E00               	movlw	0
 10909+ 0036A2  234D               	addwfc	(??_CheckAdjacentCells+30+1)&0ffh
 10910+ 0036A4  0E00               	movlw	low(512)
 10911+ 0036A6  0109               	movlb	9	; () banked
 10912+ 0036A8  254C               	addwf	(??_CheckAdjacentCells+30+0)&0ffh,w
 10913+ 0036AA  0109               	movlb	9	; () banked
 10914+ 0036AC  6F4E               	movwf	(??_CheckAdjacentCells+32+0)&0ffh
 10915+ 0036AE  0E02               	movlw	high(512)
 10916+ 0036B0  0109               	movlb	9	; () banked
 10917+ 0036B2  214D               	addwfc	(??_CheckAdjacentCells+30+1)&0ffh,w
 10918+ 0036B4  0109               	movlb	9	; () banked
 10919+ 0036B6  6F4F               	movwf	1+(??_CheckAdjacentCells+32+0)&0ffh
 10920+ 0036B8  0109               	movlb	9	; () banked
 10921+ 0036BA  514A               	movf	(??_CheckAdjacentCells+28+0)&0ffh,w
 10922+ 0036BC  0109               	movlb	9	; () banked
 10923+ 0036BE  254E               	addwf	(??_CheckAdjacentCells+32+0)&0ffh,w
 10924+ 0036C0  6EE9               	movwf	c:fsr0l
 10925+ 0036C2  0109               	movlb	9	; () banked
 10926+ 0036C4  514B               	movf	(??_CheckAdjacentCells+28+1)&0ffh,w
 10927+ 0036C6  0109               	movlb	9	; () banked
 10928+ 0036C8  214F               	addwfc	(??_CheckAdjacentCells+32+1)&0ffh,w
 10929+ 0036CA  6EEA               	movwf	1+c:fsr0l
 10930+ 0036CC  0109               	movlb	9	; () banked
 10931+ 0036CE  CFEE F93C          	movff	postinc0,(CheckAdjacentCells@adjacentSqua
      +                          res)
 10932+ 0036D2  0109               	movlb	9	; () banked
 10933+ 0036D4  CFED F93D          	movff	postdec0,(CheckAdjacentCells@adjacentSqua
      +                          res+1)
 10934+                          	line	568
 10935+                          ;main.c: 568: rightSquare = adjacentSquares[0];
 10936+ 0036D8  C93C  F934         	movff	(CheckAdjacentCells@adjacentSquares),(Che
      +                          ckAdjacentCells@rightSquare)
 10937+ 0036DC  C93D  F935         	movff	(CheckAdjacentCells@adjacentSquares+1),(C
      +                          heckAdjacentCells@rightSquare+1)
 10938+                          	line	569
 10939+                          	
 10940+ 0036E0                     l533:		; BSR set to: ?
 10941+                          
 10942+                          	line	570
 10943+                          ;main.c: 569: }
 10944+                          ;main.c: 570: if(x - 1 >= 0){
 10945+ 0036E0  0EFF               	movlw	0FFh
 10946+ 0036E2  0109               	movlb	9	; () banked
 10947+ 0036E4  0109               	movlb	9	; () banked
 10948+ 0036E6  252C               	addwf	((CheckAdjacentCells@x))&0ffh,w
 10949+ 0036E8  0EFF               	movlw	0FFh
 10950+ 0036EA  0109               	movlb	9	; () banked
 10951+ 0036EC  212D               	addwfc	((CheckAdjacentCells@x+1))&0ffh,w
 10952+ 0036EE  0B80               	andlw	80h
 10953+ 0036F0  A4D8               	btfss	status,2
 10954+ 0036F2  EF7D  F01B         	goto	u9811
 10955+ 0036F6  EF7F  F01B         	goto	u9810
 10956+ 0036FA                     u9811:
 10957+ 0036FA  EFC0  F01B         	goto	l534
 10958+ 0036FE                     u9810:
 10959+                          	line	571
 10960+                          ;main.c: 571: adjacentSquares[1] = mazeMap[y][x-
      +                          1];
 10961+ 0036FE  0109               	movlb	9	; () banked
 10962+ 003700  C92A  F94A         	movff	(CheckAdjacentCells@y),??_CheckAdjacentCe
      +                          lls+28+0
 10963+ 003704  0109               	movlb	9	; () banked
 10964+ 003706  C92B  F94B         	movff	(CheckAdjacentCells@y+1),??_CheckAdjacent
      +                          Cells+28+0+1
 10965+ 00370A  0E05               	movlw	05h
 10966+ 00370C                     u9825:
 10967+ 00370C  90D8               	bcf	status,0
 10968+ 00370E  0109               	movlb	9	; () banked
 10969+ 003710  374A               	rlcf	(??_CheckAdjacentCells+28+0)&0ffh
 10970+ 003712  374B               	rlcf	(??_CheckAdjacentCells+28+1)&0ffh
 10971+ 003714  2EE8               	decfsz	wreg
 10972+ 003716  EF86  F01B         	goto	u9825
 10973+ 00371A  90D8               	bcf	status,0
 10974+ 00371C  0109               	movlb	9	; () banked
 10975+ 00371E  0109               	movlb	9	; () banked
 10976+ 003720  352C               	rlcf	((CheckAdjacentCells@x))&0ffh,w
 10977+ 003722  0109               	movlb	9	; () banked
 10978+ 003724  6F4C               	movwf	(??_CheckAdjacentCells+30+0)&0ffh
 10979+ 003726  0109               	movlb	9	; () banked
 10980+ 003728  0109               	movlb	9	; () banked
 10981+ 00372A  352D               	rlcf	((CheckAdjacentCells@x+1))&0ffh,w
 10982+ 00372C  0109               	movlb	9	; () banked
 10983+ 00372E  6F4D               	movwf	1+(??_CheckAdjacentCells+30+0)&0ffh
 10984+ 003730  0EFE               	movlw	low(0FFFEh)
 10985+ 003732  0109               	movlb	9	; () banked
 10986+ 003734  254C               	addwf	(??_CheckAdjacentCells+30+0)&0ffh,w
 10987+ 003736  0109               	movlb	9	; () banked
 10988+ 003738  6F4E               	movwf	(??_CheckAdjacentCells+32+0)&0ffh
 10989+ 00373A  0EFF               	movlw	high(0FFFEh)
 10990+ 00373C  0109               	movlb	9	; () banked
 10991+ 00373E  214D               	addwfc	(??_CheckAdjacentCells+30+1)&0ffh,w
 10992+ 003740  0109               	movlb	9	; () banked
 10993+ 003742  6F4F               	movwf	1+(??_CheckAdjacentCells+32+0)&0ffh
 10994+ 003744  0E00               	movlw	low(512)
 10995+ 003746  0109               	movlb	9	; () banked
 10996+ 003748  254E               	addwf	(??_CheckAdjacentCells+32+0)&0ffh,w
 10997+ 00374A  0109               	movlb	9	; () banked
 10998+ 00374C  6F50               	movwf	(??_CheckAdjacentCells+34+0)&0ffh
 10999+ 00374E  0E02               	movlw	high(512)
 11000+ 003750  0109               	movlb	9	; () banked
 11001+ 003752  214F               	addwfc	(??_CheckAdjacentCells+32+1)&0ffh,w
 11002+ 003754  0109               	movlb	9	; () banked
 11003+ 003756  6F51               	movwf	1+(??_CheckAdjacentCells+34+0)&0ffh
 11004+ 003758  0109               	movlb	9	; () banked
 11005+ 00375A  514A               	movf	(??_CheckAdjacentCells+28+0)&0ffh,w
 11006+ 00375C  0109               	movlb	9	; () banked
 11007+ 00375E  2550               	addwf	(??_CheckAdjacentCells+34+0)&0ffh,w
 11008+ 003760  6EE9               	movwf	c:fsr0l
 11009+ 003762  0109               	movlb	9	; () banked
 11010+ 003764  514B               	movf	(??_CheckAdjacentCells+28+1)&0ffh,w
 11011+ 003766  0109               	movlb	9	; () banked
 11012+ 003768  2151               	addwfc	(??_CheckAdjacentCells+34+1)&0ffh,w
 11013+ 00376A  6EEA               	movwf	1+c:fsr0l
 11014+ 00376C  0109               	movlb	9	; () banked
 11015+ 00376E  CFEE F93E          	movff	postinc0,0+(CheckAdjacentCells@adjacentSq
      +                          uares+02h)
 11016+ 003772  0109               	movlb	9	; () banked
 11017+ 003774  CFED F93F          	movff	postdec0,1+(CheckAdjacentCells@adjacentSq
      +                          uares+02h)
 11018+                          	line	572
 11019+                          ;main.c: 572: leftSquare = adjacentSquares[1];
 11020+ 003778  C93E  F932         	movff	0+(CheckAdjacentCells@adjacentSquares+02h
      +                          ),(CheckAdjacentCells@leftSquare)
 11021+ 00377C  C93F  F933         	movff	1+(CheckAdjacentCells@adjacentSquares+02h
      +                          ),(CheckAdjacentCells@leftSquare+1)
 11022+                          	line	573
 11023+                          	
 11024+ 003780                     l534:		; BSR set to: ?
 11025+                          
 11026+                          	line	574
 11027+                          ;main.c: 573: }
 11028+                          ;main.c: 574: if(y - 1 >= 0){
 11029+ 003780  0EFF               	movlw	0FFh
 11030+ 003782  0109               	movlb	9	; () banked
 11031+ 003784  0109               	movlb	9	; () banked
 11032+ 003786  252A               	addwf	((CheckAdjacentCells@y))&0ffh,w
 11033+ 003788  0EFF               	movlw	0FFh
 11034+ 00378A  0109               	movlb	9	; () banked
 11035+ 00378C  212B               	addwfc	((CheckAdjacentCells@y+1))&0ffh,w
 11036+ 00378E  0B80               	andlw	80h
 11037+ 003790  A4D8               	btfss	status,2
 11038+ 003792  EFCD  F01B         	goto	u9831
 11039+ 003796  EFCF  F01B         	goto	u9830
 11040+ 00379A                     u9831:
 11041+ 00379A  EF10  F01C         	goto	l535
 11042+ 00379E                     u9830:
 11043+                          	line	575
 11044+                          ;main.c: 575: adjacentSquares[2] = mazeMap[y-1][
      +                          x];
 11045+ 00379E  90D8               	bcf	status,0
 11046+ 0037A0  0109               	movlb	9	; () banked
 11047+ 0037A2  0109               	movlb	9	; () banked
 11048+ 0037A4  352C               	rlcf	((CheckAdjacentCells@x))&0ffh,w
 11049+ 0037A6  0109               	movlb	9	; () banked
 11050+ 0037A8  6F4A               	movwf	(??_CheckAdjacentCells+28+0)&0ffh
 11051+ 0037AA  0109               	movlb	9	; () banked
 11052+ 0037AC  0109               	movlb	9	; () banked
 11053+ 0037AE  352D               	rlcf	((CheckAdjacentCells@x+1))&0ffh,w
 11054+ 0037B0  0109               	movlb	9	; () banked
 11055+ 0037B2  6F4B               	movwf	1+(??_CheckAdjacentCells+28+0)&0ffh
 11056+ 0037B4  0109               	movlb	9	; () banked
 11057+ 0037B6  C92A  F94C         	movff	(CheckAdjacentCells@y),??_CheckAdjacentCe
      +                          lls+30+0
 11058+ 0037BA  0109               	movlb	9	; () banked
 11059+ 0037BC  C92B  F94D         	movff	(CheckAdjacentCells@y+1),??_CheckAdjacent
      +                          Cells+30+0+1
 11060+ 0037C0  0E05               	movlw	05h
 11061+ 0037C2                     u9845:
 11062+ 0037C2  90D8               	bcf	status,0
 11063+ 0037C4  0109               	movlb	9	; () banked
 11064+ 0037C6  374C               	rlcf	(??_CheckAdjacentCells+30+0)&0ffh
 11065+ 0037C8  374D               	rlcf	(??_CheckAdjacentCells+30+1)&0ffh
 11066+ 0037CA  2EE8               	decfsz	wreg
 11067+ 0037CC  EFE1  F01B         	goto	u9845
 11068+ 0037D0  0EE0               	movlw	low(0FFE0h)
 11069+ 0037D2  0109               	movlb	9	; () banked
 11070+ 0037D4  254C               	addwf	(??_CheckAdjacentCells+30+0)&0ffh,w
 11071+ 0037D6  0109               	movlb	9	; () banked
 11072+ 0037D8  6F4E               	movwf	(??_CheckAdjacentCells+32+0)&0ffh
 11073+ 0037DA  0EFF               	movlw	high(0FFE0h)
 11074+ 0037DC  0109               	movlb	9	; () banked
 11075+ 0037DE  214D               	addwfc	(??_CheckAdjacentCells+30+1)&0ffh,w
 11076+ 0037E0  0109               	movlb	9	; () banked
 11077+ 0037E2  6F4F               	movwf	1+(??_CheckAdjacentCells+32+0)&0ffh
 11078+ 0037E4  0E00               	movlw	low(512)
 11079+ 0037E6  0109               	movlb	9	; () banked
 11080+ 0037E8  254E               	addwf	(??_CheckAdjacentCells+32+0)&0ffh,w
 11081+ 0037EA  0109               	movlb	9	; () banked
 11082+ 0037EC  6F50               	movwf	(??_CheckAdjacentCells+34+0)&0ffh
 11083+ 0037EE  0E02               	movlw	high(512)
 11084+ 0037F0  0109               	movlb	9	; () banked
 11085+ 0037F2  214F               	addwfc	(??_CheckAdjacentCells+32+1)&0ffh,w
 11086+ 0037F4  0109               	movlb	9	; () banked
 11087+ 0037F6  6F51               	movwf	1+(??_CheckAdjacentCells+34+0)&0ffh
 11088+ 0037F8  0109               	movlb	9	; () banked
 11089+ 0037FA  514A               	movf	(??_CheckAdjacentCells+28+0)&0ffh,w
 11090+ 0037FC  0109               	movlb	9	; () banked
 11091+ 0037FE  2550               	addwf	(??_CheckAdjacentCells+34+0)&0ffh,w
 11092+ 003800  6EE9               	movwf	c:fsr0l
 11093+ 003802  0109               	movlb	9	; () banked
 11094+ 003804  514B               	movf	(??_CheckAdjacentCells+28+1)&0ffh,w
 11095+ 003806  0109               	movlb	9	; () banked
 11096+ 003808  2151               	addwfc	(??_CheckAdjacentCells+34+1)&0ffh,w
 11097+ 00380A  6EEA               	movwf	1+c:fsr0l
 11098+ 00380C  0109               	movlb	9	; () banked
 11099+ 00380E  CFEE F940          	movff	postinc0,0+(CheckAdjacentCells@adjacentSq
      +                          uares+04h)
 11100+ 003812  0109               	movlb	9	; () banked
 11101+ 003814  CFED F941          	movff	postdec0,1+(CheckAdjacentCells@adjacentSq
      +                          uares+04h)
 11102+                          	line	576
 11103+                          ;main.c: 576: topSquare = adjacentSquares[2];
 11104+ 003818  C940  F936         	movff	0+(CheckAdjacentCells@adjacentSquares+04h
      +                          ),(CheckAdjacentCells@topSquare)
 11105+ 00381C  C941  F937         	movff	1+(CheckAdjacentCells@adjacentSquares+04h
      +                          ),(CheckAdjacentCells@topSquare+1)
 11106+                          	line	577
 11107+                          	
 11108+ 003820                     l535:		; BSR set to: ?
 11109+                          
 11110+                          	line	578
 11111+                          ;main.c: 577: }
 11112+                          ;main.c: 578: if(y + 1 < 16){
 11113+ 003820  0E01               	movlw	01h
 11114+ 003822  0109               	movlb	9	; () banked
 11115+ 003824  0109               	movlb	9	; () banked
 11116+ 003826  252A               	addwf	((CheckAdjacentCells@y))&0ffh,w
 11117+ 003828  0109               	movlb	9	; () banked
 11118+ 00382A  6F4A               	movwf	(??_CheckAdjacentCells+28+0)&0ffh
 11119+ 00382C  0E00               	movlw	0
 11120+ 00382E  0109               	movlb	9	; () banked
 11121+ 003830  0109               	movlb	9	; () banked
 11122+ 003832  212B               	addwfc	((CheckAdjacentCells@y+1))&0ffh,w
 11123+ 003834  0109               	movlb	9	; () banked
 11124+ 003836  6F4B               	movwf	(??_CheckAdjacentCells+28+0+1)&0ffh
 11125+ 003838  0109               	movlb	9	; () banked
 11126+ 00383A  514B               	movf	(??_CheckAdjacentCells+28+1)&0ffh,w
 11127+ 00383C  0A80               	xorlw	80h
 11128+ 00383E  0F80               	addlw	-((0)^80h)
 11129+ 003840  0E10               	movlw	010h
 11130+ 003842  B4D8               	btfsc	status,2
 11131+ 003844  5D4A               	subwf	(??_CheckAdjacentCells+28+0)&0ffh,w
 11132+ 003846  B0D8               	btfsc	status,0
 11133+ 003848  EF28  F01C         	goto	u9851
 11134+ 00384C  EF2A  F01C         	goto	u9850
 11135+ 003850                     u9851:
 11136+ 003850  EF66  F01C         	goto	l536
 11137+ 003854                     u9850:
 11138+                          	line	579
 11139+                          ;main.c: 579: adjacentSquares[3] = mazeMap[y+1][
      +                          x];
 11140+ 003854  90D8               	bcf	status,0
 11141+ 003856  0109               	movlb	9	; () banked
 11142+ 003858  0109               	movlb	9	; () banked
 11143+ 00385A  352C               	rlcf	((CheckAdjacentCells@x))&0ffh,w
 11144+ 00385C  0109               	movlb	9	; () banked
 11145+ 00385E  6F4A               	movwf	(??_CheckAdjacentCells+28+0)&0ffh
 11146+ 003860  0109               	movlb	9	; () banked
 11147+ 003862  0109               	movlb	9	; () banked
 11148+ 003864  352D               	rlcf	((CheckAdjacentCells@x+1))&0ffh,w
 11149+ 003866  0109               	movlb	9	; () banked
 11150+ 003868  6F4B               	movwf	1+(??_CheckAdjacentCells+28+0)&0ffh
 11151+ 00386A  0109               	movlb	9	; () banked
 11152+ 00386C  C92A  F94C         	movff	(CheckAdjacentCells@y),??_CheckAdjacentCe
      +                          lls+30+0
 11153+ 003870  0109               	movlb	9	; () banked
 11154+ 003872  C92B  F94D         	movff	(CheckAdjacentCells@y+1),??_CheckAdjacent
      +                          Cells+30+0+1
 11155+ 003876  0E05               	movlw	05h
 11156+ 003878                     u9865:
 11157+ 003878  90D8               	bcf	status,0
 11158+ 00387A  0109               	movlb	9	; () banked
 11159+ 00387C  374C               	rlcf	(??_CheckAdjacentCells+30+0)&0ffh
 11160+ 00387E  374D               	rlcf	(??_CheckAdjacentCells+30+1)&0ffh
 11161+ 003880  2EE8               	decfsz	wreg
 11162+ 003882  EF3C  F01C         	goto	u9865
 11163+ 003886  0E20               	movlw	020h
 11164+ 003888  0109               	movlb	9	; () banked
 11165+ 00388A  274C               	addwf	(??_CheckAdjacentCells+30+0)&0ffh
 11166+ 00388C  0E00               	movlw	0
 11167+ 00388E  234D               	addwfc	(??_CheckAdjacentCells+30+1)&0ffh
 11168+ 003890  0E00               	movlw	low(512)
 11169+ 003892  0109               	movlb	9	; () banked
 11170+ 003894  254C               	addwf	(??_CheckAdjacentCells+30+0)&0ffh,w
 11171+ 003896  0109               	movlb	9	; () banked
 11172+ 003898  6F4E               	movwf	(??_CheckAdjacentCells+32+0)&0ffh
 11173+ 00389A  0E02               	movlw	high(512)
 11174+ 00389C  0109               	movlb	9	; () banked
 11175+ 00389E  214D               	addwfc	(??_CheckAdjacentCells+30+1)&0ffh,w
 11176+ 0038A0  0109               	movlb	9	; () banked
 11177+ 0038A2  6F4F               	movwf	1+(??_CheckAdjacentCells+32+0)&0ffh
 11178+ 0038A4  0109               	movlb	9	; () banked
 11179+ 0038A6  514A               	movf	(??_CheckAdjacentCells+28+0)&0ffh,w
 11180+ 0038A8  0109               	movlb	9	; () banked
 11181+ 0038AA  254E               	addwf	(??_CheckAdjacentCells+32+0)&0ffh,w
 11182+ 0038AC  6EE9               	movwf	c:fsr0l
 11183+ 0038AE  0109               	movlb	9	; () banked
 11184+ 0038B0  514B               	movf	(??_CheckAdjacentCells+28+1)&0ffh,w
 11185+ 0038B2  0109               	movlb	9	; () banked
 11186+ 0038B4  214F               	addwfc	(??_CheckAdjacentCells+32+1)&0ffh,w
 11187+ 0038B6  6EEA               	movwf	1+c:fsr0l
 11188+ 0038B8  0109               	movlb	9	; () banked
 11189+ 0038BA  CFEE F942          	movff	postinc0,0+(CheckAdjacentCells@adjacentSq
      +                          uares+06h)
 11190+ 0038BE  0109               	movlb	9	; () banked
 11191+ 0038C0  CFED F943          	movff	postdec0,1+(CheckAdjacentCells@adjacentSq
      +                          uares+06h)
 11192+                          	line	580
 11193+                          ;main.c: 580: bottomSquare = adjacentSquares[3];
 11194+ 0038C4  C942  F92E         	movff	0+(CheckAdjacentCells@adjacentSquares+06h
      +                          ),(CheckAdjacentCells@bottomSquare)
 11195+ 0038C8  C943  F92F         	movff	1+(CheckAdjacentCells@adjacentSquares+06h
      +                          ),(CheckAdjacentCells@bottomSquare+1)
 11196+                          	line	581
 11197+                          	
 11198+ 0038CC                     l536:		; BSR set to: ?
 11199+                          
 11200+                          	line	584
 11201+                          ;main.c: 581: }
 11202+                          ;main.c: 584: for(int j = 0; j <= 2; j++)
 11203+ 0038CC  0E00               	movlw	low(0)
 11204+ 0038CE  0109               	movlb	9	; () banked
 11205+ 0038D0  0109               	movlb	9	; () banked
 11206+ 0038D2  6F44               	movwf	((CheckAdjacentCells@j))&0ffh
 11207+ 0038D4  0E00               	movlw	high(0)
 11208+ 0038D6  0109               	movlb	9	; () banked
 11209+ 0038D8  6F45               	movwf	((CheckAdjacentCells@j+1))&0ffh
 11210+ 0038DA  0109               	movlb	9	; () banked
 11211+ 0038DC  0109               	movlb	9	; () banked
 11212+ 0038DE  5145               	movf	((CheckAdjacentCells@j+1))&0ffh,w
 11213+ 0038E0  0A80               	xorlw	80h
 11214+ 0038E2  0F80               	addlw	-((0)^80h)
 11215+ 0038E4  0E03               	movlw	03h
 11216+ 0038E6  B4D8               	btfsc	status,2
 11217+ 0038E8  5D44               	subwf	((CheckAdjacentCells@j))&0ffh,w
 11218+ 0038EA  A0D8               	btfss	status,0
 11219+ 0038EC  EF7A  F01C         	goto	u9871
 11220+ 0038F0  EF7C  F01C         	goto	u9870
 11221+ 0038F4                     u9871:
 11222+ 0038F4  EF7E  F01C         	goto	l537
 11223+ 0038F8                     u9870:
 11224+ 0038F8  EF3F  F01D         	goto	l538
 11225+                          	line	585
 11226+                          	
 11227+ 0038FC                     l537:		; BSR set to: ?
 11228+                          
 11229+                          ;main.c: 585: for(int i = j+1; i <= 3; i++)
 11230+ 0038FC  0E01               	movlw	low(01h)
 11231+ 0038FE  0109               	movlb	9	; () banked
 11232+ 003900  0109               	movlb	9	; () banked
 11233+ 003902  2544               	addwf	((CheckAdjacentCells@j))&0ffh,w
 11234+ 003904  0109               	movlb	9	; () banked
 11235+                          	
 11236+ 003906  0109               	movlb	9	; () banked
 11237+ 003908  6F48               	movwf	((CheckAdjacentCells@i))&0ffh
 11238+ 00390A  0E00               	movlw	high(01h)
 11239+ 00390C  0109               	movlb	9	; () banked
 11240+ 00390E  0109               	movlb	9	; () banked
 11241+ 003910  2145               	addwfc	((CheckAdjacentCells@j+1))&0ffh,w
 11242+ 003912  0109               	movlb	9	; () banked
 11243+ 003914  6F49               	movwf	1+((CheckAdjacentCells@i))&0ffh
 11244+ 003916  0109               	movlb	9	; () banked
 11245+ 003918  0109               	movlb	9	; () banked
 11246+ 00391A  5149               	movf	((CheckAdjacentCells@i+1))&0ffh,w
 11247+ 00391C  0A80               	xorlw	80h
 11248+ 00391E  0F80               	addlw	-((0)^80h)
 11249+ 003920  0E04               	movlw	04h
 11250+ 003922  B4D8               	btfsc	status,2
 11251+ 003924  5D48               	subwf	((CheckAdjacentCells@i))&0ffh,w
 11252+ 003926  A0D8               	btfss	status,0
 11253+ 003928  EF98  F01C         	goto	u9881
 11254+ 00392C  EF9A  F01C         	goto	u9880
 11255+ 003930                     u9881:
 11256+ 003930  EF9C  F01C         	goto	l540
 11257+ 003934                     u9880:
 11258+ 003934  EF2C  F01D         	goto	l541
 11259+                          	line	586
 11260+                          	
 11261+ 003938                     l540:		; BSR set to: ?
 11262+                          
 11263+                          ;main.c: 586: if(adjacentSquares[i]<adjacentSqua
      +                          res[j]){
 11264+ 003938  0109               	movlb	9	; () banked
 11265+ 00393A  90D8               	bcf	status,0
 11266+ 00393C  0109               	movlb	9	; () banked
 11267+ 00393E  3544               	rlcf	((CheckAdjacentCells@j))&0ffh,w
 11268+ 003940  0109               	movlb	9	; () banked
 11269+ 003942  6F4A               	movwf	(??_CheckAdjacentCells+28+0)&0ffh
 11270+ 003944  0109               	movlb	9	; () banked
 11271+ 003946  0E3C               	movlw	low(CheckAdjacentCells@adjacentSquares)
 11272+ 003948  0109               	movlb	9	; () banked
 11273+ 00394A  254A               	addwf	(??_CheckAdjacentCells+28+0)&0ffh,w
 11274+ 00394C  6EE9               	movwf	c:fsr0l
 11275+ 00394E  6AEA               	clrf	1+c:fsr0l
 11276+ 003950  0109               	movlb	9	; () banked
 11277+ 003952  0E09               	movlw	high(CheckAdjacentCells@adjacentSquares)
 11278+ 003954  22EA               	addwfc	1+c:fsr0l
 11279+ 003956  0109               	movlb	9	; () banked
 11280+ 003958  90D8               	bcf	status,0
 11281+ 00395A  0109               	movlb	9	; () banked
 11282+ 00395C  3548               	rlcf	((CheckAdjacentCells@i))&0ffh,w
 11283+ 00395E  0109               	movlb	9	; () banked
 11284+ 003960  6F4B               	movwf	(??_CheckAdjacentCells+29+0)&0ffh
 11285+ 003962  0109               	movlb	9	; () banked
 11286+ 003964  0E3C               	movlw	low(CheckAdjacentCells@adjacentSquares)
 11287+ 003966  0109               	movlb	9	; () banked
 11288+ 003968  254B               	addwf	(??_CheckAdjacentCells+29+0)&0ffh,w
 11289+ 00396A  6EE1               	movwf	c:fsr1l
 11290+ 00396C  6AE2               	clrf	1+c:fsr1l
 11291+ 00396E  0109               	movlb	9	; () banked
 11292+ 003970  0E09               	movlw	high(CheckAdjacentCells@adjacentSquares)
 11293+ 003972  22E2               	addwfc	1+c:fsr1l
 11294+ 003974  52E6               	movf	postinc1
 11295+ 003976  52EE               	movf	postinc0
 11296+ 003978  50E5               	movf	postdec1,w
 11297+ 00397A  0A80               	xorlw	80h
 11298+ 00397C  0109               	movlb	9	; () banked
 11299+ 00397E  6F4C               	movwf	(??_CheckAdjacentCells+30+0)&0ffh
 11300+ 003980  50ED               	movf	postdec0,w
 11301+ 003982  0A80               	xorlw	80h
 11302+ 003984  5D4C               	subwf	(??_CheckAdjacentCells+30+0)&0ffh,w
 11303+ 003986  E102               	bnz	u9895
 11304+ 003988  50EF               	movf	indf0,w
 11305+ 00398A  5CE7               	subwf	indf1,w
 11306+ 00398C                     u9895:
 11307+                          
 11308+ 00398C  B0D8               	btfsc	status,0
 11309+ 00398E  EFCB  F01C         	goto	u9891
 11310+ 003992  EFCD  F01C         	goto	u9890
 11311+ 003996                     u9891:
 11312+ 003996  EF19  F01D         	goto	l543
 11313+ 00399A                     u9890:
 11314+                          	line	587
 11315+                          ;main.c: 587: holdVar = adjacentSquares[j];
 11316+ 00399A  0109               	movlb	9	; () banked
 11317+ 00399C  90D8               	bcf	status,0
 11318+ 00399E  0109               	movlb	9	; () banked
 11319+ 0039A0  3544               	rlcf	((CheckAdjacentCells@j))&0ffh,w
 11320+ 0039A2  0109               	movlb	9	; () banked
 11321+ 0039A4  6F4A               	movwf	(??_CheckAdjacentCells+28+0)&0ffh
 11322+ 0039A6  0109               	movlb	9	; () banked
 11323+ 0039A8  0E3C               	movlw	low(CheckAdjacentCells@adjacentSquares)
 11324+ 0039AA  0109               	movlb	9	; () banked
 11325+ 0039AC  254A               	addwf	(??_CheckAdjacentCells+28+0)&0ffh,w
 11326+ 0039AE  6EE9               	movwf	c:fsr0l
 11327+ 0039B0  6AEA               	clrf	1+c:fsr0l
 11328+ 0039B2  0109               	movlb	9	; () banked
 11329+ 0039B4  0E09               	movlw	high(CheckAdjacentCells@adjacentSquares)
 11330+ 0039B6  22EA               	addwfc	1+c:fsr0l
 11331+ 0039B8  0109               	movlb	9	; () banked
 11332+ 0039BA  CFEE F930          	movff	postinc0,(CheckAdjacentCells@holdVar)
 11333+ 0039BE  0109               	movlb	9	; () banked
 11334+ 0039C0  CFED F931          	movff	postdec0,(CheckAdjacentCells@holdVar+1)
 11335+                          	line	588
 11336+                          ;main.c: 588: adjacentSquares[j] = adjacentSquar
      +                          es[i];
 11337+ 0039C4  0109               	movlb	9	; () banked
 11338+ 0039C6  90D8               	bcf	status,0
 11339+ 0039C8  0109               	movlb	9	; () banked
 11340+ 0039CA  3548               	rlcf	((CheckAdjacentCells@i))&0ffh,w
 11341+ 0039CC  0109               	movlb	9	; () banked
 11342+ 0039CE  6F4A               	movwf	(??_CheckAdjacentCells+28+0)&0ffh
 11343+ 0039D0  0109               	movlb	9	; () banked
 11344+ 0039D2  0E3C               	movlw	low(CheckAdjacentCells@adjacentSquares)
 11345+ 0039D4  0109               	movlb	9	; () banked
 11346+ 0039D6  254A               	addwf	(??_CheckAdjacentCells+28+0)&0ffh,w
 11347+ 0039D8  6EE9               	movwf	c:fsr0l
 11348+ 0039DA  6AEA               	clrf	1+c:fsr0l
 11349+ 0039DC  0109               	movlb	9	; () banked
 11350+ 0039DE  0E09               	movlw	high(CheckAdjacentCells@adjacentSquares)
 11351+ 0039E0  22EA               	addwfc	1+c:fsr0l
 11352+ 0039E2  0109               	movlb	9	; () banked
 11353+ 0039E4  90D8               	bcf	status,0
 11354+ 0039E6  0109               	movlb	9	; () banked
 11355+ 0039E8  3544               	rlcf	((CheckAdjacentCells@j))&0ffh,w
 11356+ 0039EA  0109               	movlb	9	; () banked
 11357+ 0039EC  6F4B               	movwf	(??_CheckAdjacentCells+29+0)&0ffh
 11358+ 0039EE  0109               	movlb	9	; () banked
 11359+ 0039F0  0E3C               	movlw	low(CheckAdjacentCells@adjacentSquares)
 11360+ 0039F2  0109               	movlb	9	; () banked
 11361+ 0039F4  254B               	addwf	(??_CheckAdjacentCells+29+0)&0ffh,w
 11362+ 0039F6  6EE1               	movwf	c:fsr1l
 11363+ 0039F8  6AE2               	clrf	1+c:fsr1l
 11364+ 0039FA  0109               	movlb	9	; () banked
 11365+ 0039FC  0E09               	movlw	high(CheckAdjacentCells@adjacentSquares)
 11366+ 0039FE  22E2               	addwfc	1+c:fsr1l
 11367+ 003A00  CFEE FFE6          	movff	postinc0,postinc1
 11368+ 003A04  CFED FFE5          	movff	postdec0,postdec1
 11369+                          	line	589
 11370+                          ;main.c: 589: adjacentSquares[i] = holdVar;
 11371+ 003A08  0109               	movlb	9	; () banked
 11372+ 003A0A  90D8               	bcf	status,0
 11373+ 003A0C  0109               	movlb	9	; () banked
 11374+ 003A0E  3548               	rlcf	((CheckAdjacentCells@i))&0ffh,w
 11375+ 003A10  0109               	movlb	9	; () banked
 11376+ 003A12  6F4A               	movwf	(??_CheckAdjacentCells+28+0)&0ffh
 11377+ 003A14  0109               	movlb	9	; () banked
 11378+ 003A16  0E3C               	movlw	low(CheckAdjacentCells@adjacentSquares)
 11379+ 003A18  0109               	movlb	9	; () banked
 11380+ 003A1A  254A               	addwf	(??_CheckAdjacentCells+28+0)&0ffh,w
 11381+ 003A1C  6EE9               	movwf	c:fsr0l
 11382+ 003A1E  6AEA               	clrf	1+c:fsr0l
 11383+ 003A20  0109               	movlb	9	; () banked
 11384+ 003A22  0E09               	movlw	high(CheckAdjacentCells@adjacentSquares)
 11385+ 003A24  22EA               	addwfc	1+c:fsr0l
 11386+ 003A26  0109               	movlb	9	; () banked
 11387+ 003A28  C930  FFEE         	movff	(CheckAdjacentCells@holdVar),postinc0
 11388+ 003A2C  0109               	movlb	9	; () banked
 11389+ 003A2E  C931  FFED         	movff	(CheckAdjacentCells@holdVar+1),postdec0
 11390+                          	line	590
 11391+                          	
 11392+ 003A32                     l543:		; BSR set to: ?
 11393+                          
 11394+                          	line	585
 11395+ 003A32  0109               	movlb	9	; () banked
 11396+ 003A34  0109               	movlb	9	; () banked
 11397+ 003A36  4B48               	infsnz	((CheckAdjacentCells@i))&0ffh
 11398+ 003A38  2B49               	incf	((CheckAdjacentCells@i+1))&0ffh
 11399+ 003A3A  0109               	movlb	9	; () banked
 11400+ 003A3C  0109               	movlb	9	; () banked
 11401+ 003A3E  5149               	movf	((CheckAdjacentCells@i+1))&0ffh,w
 11402+ 003A40  0A80               	xorlw	80h
 11403+ 003A42  0F80               	addlw	-((0)^80h)
 11404+ 003A44  0E04               	movlw	04h
 11405+ 003A46  B4D8               	btfsc	status,2
 11406+ 003A48  5D48               	subwf	((CheckAdjacentCells@i))&0ffh,w
 11407+ 003A4A  A0D8               	btfss	status,0
 11408+ 003A4C  EF2A  F01D         	goto	u9901
 11409+ 003A50  EF2C  F01D         	goto	u9900
 11410+ 003A54                     u9901:
 11411+ 003A54  EF9C  F01C         	goto	l540
 11412+ 003A58                     u9900:
 11413+                          	
 11414+ 003A58                     l541:		; BSR set to: ?
 11415+                          
 11416+                          	line	584
 11417+ 003A58  0109               	movlb	9	; () banked
 11418+ 003A5A  0109               	movlb	9	; () banked
 11419+ 003A5C  4B44               	infsnz	((CheckAdjacentCells@j))&0ffh
 11420+ 003A5E  2B45               	incf	((CheckAdjacentCells@j+1))&0ffh
 11421+ 003A60  0109               	movlb	9	; () banked
 11422+ 003A62  0109               	movlb	9	; () banked
 11423+ 003A64  5145               	movf	((CheckAdjacentCells@j+1))&0ffh,w
 11424+ 003A66  0A80               	xorlw	80h
 11425+ 003A68  0F80               	addlw	-((0)^80h)
 11426+ 003A6A  0E03               	movlw	03h
 11427+ 003A6C  B4D8               	btfsc	status,2
 11428+ 003A6E  5D44               	subwf	((CheckAdjacentCells@j))&0ffh,w
 11429+ 003A70  A0D8               	btfss	status,0
 11430+ 003A72  EF3D  F01D         	goto	u9911
 11431+ 003A76  EF3F  F01D         	goto	u9910
 11432+ 003A7A                     u9911:
 11433+ 003A7A  EF7E  F01C         	goto	l537
 11434+ 003A7E                     u9910:
 11435+                          	
 11436+ 003A7E                     l538:		; BSR set to: ?
 11437+                          
 11438+                          	line	593
 11439+                          ;main.c: 590: }
 11440+                          ;main.c: 593: for(int i = 0; i < 4; i++){
 11441+ 003A7E  0E00               	movlw	low(0)
 11442+ 003A80  0109               	movlb	9	; () banked
 11443+ 003A82  0109               	movlb	9	; () banked
 11444+ 003A84  6F46               	movwf	((CheckAdjacentCells@i_152))&0ffh
 11445+ 003A86  0E00               	movlw	high(0)
 11446+ 003A88  0109               	movlb	9	; () banked
 11447+ 003A8A  6F47               	movwf	((CheckAdjacentCells@i_152+1))&0ffh
 11448+ 003A8C  0109               	movlb	9	; () banked
 11449+ 003A8E  0109               	movlb	9	; () banked
 11450+ 003A90  5147               	movf	((CheckAdjacentCells@i_152+1))&0ffh,w
 11451+ 003A92  0A80               	xorlw	80h
 11452+ 003A94  0F80               	addlw	-((0)^80h)
 11453+ 003A96  0E04               	movlw	04h
 11454+ 003A98  B4D8               	btfsc	status,2
 11455+ 003A9A  5D46               	subwf	((CheckAdjacentCells@i_152))&0ffh,w
 11456+ 003A9C  A0D8               	btfss	status,0
 11457+ 003A9E  EF53  F01D         	goto	u9921
 11458+ 003AA2  EF55  F01D         	goto	u9920
 11459+ 003AA6                     u9921:
 11460+ 003AA6  EF57  F01D         	goto	l544
 11461+ 003AAA                     u9920:
 11462+ 003AAA  EF5D  F01F         	goto	l545
 11463+                          	
 11464+ 003AAE                     l544:		; BSR set to: ?
 11465+                          
 11466+                          	line	594
 11467+                          ;main.c: 594: if(lowestFound == 0){
 11468+ 003AAE  0109               	movlb	9	; () banked
 11469+ 003AB0  0109               	movlb	9	; () banked
 11470+ 003AB2  513B               	movf	((CheckAdjacentCells@lowestFound+1))&0ffh,
      +                          w
 11471+ 003AB4  113A               	iorwf ((CheckAdjacentCells@lowestFound))&0ffh,w
 11472+                          
 11473+ 003AB6  A4D8               	btfss	status,2
 11474+ 003AB8  EF60  F01D         	goto	u9931
 11475+ 003ABC  EF62  F01D         	goto	u9930
 11476+ 003AC0                     u9931:
 11477+ 003AC0  EF4A  F01F         	goto	l546
 11478+ 003AC4                     u9930:
 11479+                          	line	595
 11480+                          ;main.c: 595: if(adjacentSquares[i] == topSquare
      +                          )
 11481+ 003AC4  0109               	movlb	9	; () banked
 11482+ 003AC6  90D8               	bcf	status,0
 11483+ 003AC8  0109               	movlb	9	; () banked
 11484+ 003ACA  3546               	rlcf	((CheckAdjacentCells@i_152))&0ffh,w
 11485+ 003ACC  0109               	movlb	9	; () banked
 11486+ 003ACE  6F4A               	movwf	(??_CheckAdjacentCells+28+0)&0ffh
 11487+ 003AD0  0109               	movlb	9	; () banked
 11488+ 003AD2  0E3C               	movlw	low(CheckAdjacentCells@adjacentSquares)
 11489+ 003AD4  0109               	movlb	9	; () banked
 11490+ 003AD6  254A               	addwf	(??_CheckAdjacentCells+28+0)&0ffh,w
 11491+ 003AD8  6EE9               	movwf	c:fsr0l
 11492+ 003ADA  6AEA               	clrf	1+c:fsr0l
 11493+ 003ADC  0109               	movlb	9	; () banked
 11494+ 003ADE  0E09               	movlw	high(CheckAdjacentCells@adjacentSquares)
 11495+ 003AE0  22EA               	addwfc	1+c:fsr0l
 11496+ 003AE2  0109               	movlb	9	; () banked
 11497+ 003AE4  52EE               	movf	postinc0
 11498+ 003AE6  0109               	movlb	9	; () banked
 11499+ 003AE8  5137               	movf	((CheckAdjacentCells@topSquare+1))&0ffh,w
 11500+ 003AEA  18ED               	xorwf	postdec0,w
 11501+ 003AEC  0109               	movlb	9	; () banked
 11502+ 003AEE  C936  FFE8         	movff	(CheckAdjacentCells@topSquare),wreg
 11503+ 003AF2  B4D8               	btfsc	status,2
 11504+ 003AF4  18EF               	xorwf	indf0,w
 11505+                          
 11506+ 003AF6  A4D8               	btfss	status,2
 11507+ 003AF8  EF80  F01D         	goto	u9941
 11508+ 003AFC  EF82  F01D         	goto	u9940
 11509+ 003B00                     u9941:
 11510+ 003B00  EFDC  F01D         	goto	l548
 11511+ 003B04                     u9940:
 11512+                          	line	596
 11513+                          ;main.c: 596: if(wallMap[y][x] % 3 != 0){
 11514+ 003B04  0E03               	movlw	low(03h)
 11515+ 003B06  0109               	movlb	9	; () banked
 11516+ 003B08  0109               	movlb	9	; () banked
 11517+ 003B0A  6F54               	movwf	(0+(?___awmod+02h))&0ffh
 11518+ 003B0C  0E00               	movlw	high(03h)
 11519+ 003B0E  0109               	movlb	9	; () banked
 11520+ 003B10  6F55               	movwf	(1+(?___awmod+02h))&0ffh
 11521+ 003B12  90D8               	bcf	status,0
 11522+ 003B14  0109               	movlb	9	; () banked
 11523+ 003B16  0109               	movlb	9	; () banked
 11524+ 003B18  352C               	rlcf	((CheckAdjacentCells@x))&0ffh,w
 11525+ 003B1A  0109               	movlb	9	; () banked
 11526+ 003B1C  6F4A               	movwf	(??_CheckAdjacentCells+28+0)&0ffh
 11527+ 003B1E  0109               	movlb	9	; () banked
 11528+ 003B20  0109               	movlb	9	; () banked
 11529+ 003B22  352D               	rlcf	((CheckAdjacentCells@x+1))&0ffh,w
 11530+ 003B24  0109               	movlb	9	; () banked
 11531+ 003B26  6F4B               	movwf	1+(??_CheckAdjacentCells+28+0)&0ffh
 11532+ 003B28  0109               	movlb	9	; () banked
 11533+ 003B2A  C92A  F94C         	movff	(CheckAdjacentCells@y),??_CheckAdjacentCe
      +                          lls+30+0
 11534+ 003B2E  0109               	movlb	9	; () banked
 11535+ 003B30  C92B  F94D         	movff	(CheckAdjacentCells@y+1),??_CheckAdjacent
      +                          Cells+30+0+1
 11536+ 003B34  0E05               	movlw	05h
 11537+ 003B36                     u9955:
 11538+ 003B36  90D8               	bcf	status,0
 11539+ 003B38  0109               	movlb	9	; () banked
 11540+ 003B3A  374C               	rlcf	(??_CheckAdjacentCells+30+0)&0ffh
 11541+ 003B3C  374D               	rlcf	(??_CheckAdjacentCells+30+1)&0ffh
 11542+ 003B3E  2EE8               	decfsz	wreg
 11543+ 003B40  EF9B  F01D         	goto	u9955
 11544+ 003B44  0E00               	movlw	low(0)
 11545+ 003B46  0109               	movlb	9	; () banked
 11546+ 003B48  254C               	addwf	(??_CheckAdjacentCells+30+0)&0ffh,w
 11547+ 003B4A  0109               	movlb	9	; () banked
 11548+ 003B4C  6F4E               	movwf	(??_CheckAdjacentCells+32+0)&0ffh
 11549+ 003B4E  0E00               	movlw	high(0)
 11550+ 003B50  0109               	movlb	9	; () banked
 11551+ 003B52  214D               	addwfc	(??_CheckAdjacentCells+30+1)&0ffh,w
 11552+ 003B54  0109               	movlb	9	; () banked
 11553+ 003B56  6F4F               	movwf	1+(??_CheckAdjacentCells+32+0)&0ffh
 11554+ 003B58  0109               	movlb	9	; () banked
 11555+ 003B5A  514A               	movf	(??_CheckAdjacentCells+28+0)&0ffh,w
 11556+ 003B5C  0109               	movlb	9	; () banked
 11557+ 003B5E  254E               	addwf	(??_CheckAdjacentCells+32+0)&0ffh,w
 11558+ 003B60  6EE9               	movwf	c:fsr0l
 11559+ 003B62  0109               	movlb	9	; () banked
 11560+ 003B64  514B               	movf	(??_CheckAdjacentCells+28+1)&0ffh,w
 11561+ 003B66  0109               	movlb	9	; () banked
 11562+ 003B68  214F               	addwfc	(??_CheckAdjacentCells+32+1)&0ffh,w
 11563+ 003B6A  6EEA               	movwf	1+c:fsr0l
 11564+ 003B6C  0109               	movlb	9	; () banked
 11565+ 003B6E  CFEE F952          	movff	postinc0,(?___awmod)
 11566+ 003B72  0109               	movlb	9	; () banked
 11567+ 003B74  CFED F953          	movff	postdec0,(?___awmod+1)
 11568+ 003B78  EC94  F02D         	call	___awmod	;wreg free
 11569+ 003B7C  0109               	movlb	9	; () banked
 11570+ 003B7E  5153               	movf	(1+?___awmod)&0ffh,w
 11571+ 003B80  1152               	iorwf (0+?___awmod)&0ffh,w
 11572+                          
 11573+ 003B82  B4D8               	btfsc	status,2
 11574+ 003B84  EFC6  F01D         	goto	u9961
 11575+ 003B88  EFC8  F01D         	goto	u9960
 11576+ 003B8C                     u9961:
 11577+ 003B8C  EFDC  F01D         	goto	l548
 11578+ 003B90                     u9960:
 11579+                          	line	597
 11580+                          ;main.c: 597: lowestSquare = topSquare;
 11581+ 003B90  C936  F938         	movff	(CheckAdjacentCells@topSquare),(CheckAdja
      +                          centCells@lowestSquare)
 11582+ 003B94  C937  F939         	movff	(CheckAdjacentCells@topSquare+1),(CheckAd
      +                          jacentCells@lowestSquare+1)
 11583+                          	line	598
 11584+                          ;main.c: 598: directionFlag = 3;
 11585+ 003B98  0E03               	movlw	low(03h)
 11586+ 003B9A  0108               	movlb	8	; () banked
 11587+ 003B9C  0108               	movlb	8	; () banked
 11588+ 003B9E  6F0A               	movwf	((2058))&0ffh
 11589+ 003BA0  0E00               	movlw	high(03h)
 11590+ 003BA2  0108               	movlb	8	; () banked
 11591+ 003BA4  6F0B               	movwf	((2058+1))&0ffh
 11592+                          	line	599
 11593+                          ;main.c: 599: lowestFound = 1;
 11594+ 003BA6  0E01               	movlw	low(01h)
 11595+ 003BA8  0109               	movlb	9	; () banked
 11596+ 003BAA  0109               	movlb	9	; () banked
 11597+ 003BAC  6F3A               	movwf	((CheckAdjacentCells@lowestFound))&0ffh
 11598+ 003BAE  0E00               	movlw	high(01h)
 11599+ 003BB0  0109               	movlb	9	; () banked
 11600+ 003BB2  6F3B               	movwf	((CheckAdjacentCells@lowestFound+1))&0ffh
 11601+                          	line	600
 11602+                          ;main.c: 600: continue;
 11603+ 003BB4  EF4A  F01F         	goto	l546
 11604+                          	line	602
 11605+                          	
 11606+ 003BB8                     l548:		; BSR set to: ?
 11607+                          
 11608+                          ;main.c: 601: }
 11609+                          ;main.c: 602: if(adjacentSquares[i] == rightSqua
      +                          re)
 11610+ 003BB8  0109               	movlb	9	; () banked
 11611+ 003BBA  90D8               	bcf	status,0
 11612+ 003BBC  0109               	movlb	9	; () banked
 11613+ 003BBE  3546               	rlcf	((CheckAdjacentCells@i_152))&0ffh,w
 11614+ 003BC0  0109               	movlb	9	; () banked
 11615+ 003BC2  6F4A               	movwf	(??_CheckAdjacentCells+28+0)&0ffh
 11616+ 003BC4  0109               	movlb	9	; () banked
 11617+ 003BC6  0E3C               	movlw	low(CheckAdjacentCells@adjacentSquares)
 11618+ 003BC8  0109               	movlb	9	; () banked
 11619+ 003BCA  254A               	addwf	(??_CheckAdjacentCells+28+0)&0ffh,w
 11620+ 003BCC  6EE9               	movwf	c:fsr0l
 11621+ 003BCE  6AEA               	clrf	1+c:fsr0l
 11622+ 003BD0  0109               	movlb	9	; () banked
 11623+ 003BD2  0E09               	movlw	high(CheckAdjacentCells@adjacentSquares)
 11624+ 003BD4  22EA               	addwfc	1+c:fsr0l
 11625+ 003BD6  0109               	movlb	9	; () banked
 11626+ 003BD8  52EE               	movf	postinc0
 11627+ 003BDA  0109               	movlb	9	; () banked
 11628+ 003BDC  5135               	movf	((CheckAdjacentCells@rightSquare+1))&0ffh,
      +                          w
 11629+ 003BDE  18ED               	xorwf	postdec0,w
 11630+ 003BE0  0109               	movlb	9	; () banked
 11631+ 003BE2  C934  FFE8         	movff	(CheckAdjacentCells@rightSquare),wreg
 11632+ 003BE6  B4D8               	btfsc	status,2
 11633+ 003BE8  18EF               	xorwf	indf0,w
 11634+                          
 11635+ 003BEA  A4D8               	btfss	status,2
 11636+ 003BEC  EFFA  F01D         	goto	u9971
 11637+ 003BF0  EFFC  F01D         	goto	u9970
 11638+ 003BF4                     u9971:
 11639+ 003BF4  EF56  F01E         	goto	l550
 11640+ 003BF8                     u9970:
 11641+                          	line	603
 11642+                          ;main.c: 603: if(wallMap[y][x] % 5 != 0){
 11643+ 003BF8  0E05               	movlw	low(05h)
 11644+ 003BFA  0109               	movlb	9	; () banked
 11645+ 003BFC  0109               	movlb	9	; () banked
 11646+ 003BFE  6F54               	movwf	(0+(?___awmod+02h))&0ffh
 11647+ 003C00  0E00               	movlw	high(05h)
 11648+ 003C02  0109               	movlb	9	; () banked
 11649+ 003C04  6F55               	movwf	(1+(?___awmod+02h))&0ffh
 11650+ 003C06  90D8               	bcf	status,0
 11651+ 003C08  0109               	movlb	9	; () banked
 11652+ 003C0A  0109               	movlb	9	; () banked
 11653+ 003C0C  352C               	rlcf	((CheckAdjacentCells@x))&0ffh,w
 11654+ 003C0E  0109               	movlb	9	; () banked
 11655+ 003C10  6F4A               	movwf	(??_CheckAdjacentCells+28+0)&0ffh
 11656+ 003C12  0109               	movlb	9	; () banked
 11657+ 003C14  0109               	movlb	9	; () banked
 11658+ 003C16  352D               	rlcf	((CheckAdjacentCells@x+1))&0ffh,w
 11659+ 003C18  0109               	movlb	9	; () banked
 11660+ 003C1A  6F4B               	movwf	1+(??_CheckAdjacentCells+28+0)&0ffh
 11661+ 003C1C  0109               	movlb	9	; () banked
 11662+ 003C1E  C92A  F94C         	movff	(CheckAdjacentCells@y),??_CheckAdjacentCe
      +                          lls+30+0
 11663+ 003C22  0109               	movlb	9	; () banked
 11664+ 003C24  C92B  F94D         	movff	(CheckAdjacentCells@y+1),??_CheckAdjacent
      +                          Cells+30+0+1
 11665+ 003C28  0E05               	movlw	05h
 11666+ 003C2A                     u9985:
 11667+ 003C2A  90D8               	bcf	status,0
 11668+ 003C2C  0109               	movlb	9	; () banked
 11669+ 003C2E  374C               	rlcf	(??_CheckAdjacentCells+30+0)&0ffh
 11670+ 003C30  374D               	rlcf	(??_CheckAdjacentCells+30+1)&0ffh
 11671+ 003C32  2EE8               	decfsz	wreg
 11672+ 003C34  EF15  F01E         	goto	u9985
 11673+ 003C38  0E00               	movlw	low(0)
 11674+ 003C3A  0109               	movlb	9	; () banked
 11675+ 003C3C  254C               	addwf	(??_CheckAdjacentCells+30+0)&0ffh,w
 11676+ 003C3E  0109               	movlb	9	; () banked
 11677+ 003C40  6F4E               	movwf	(??_CheckAdjacentCells+32+0)&0ffh
 11678+ 003C42  0E00               	movlw	high(0)
 11679+ 003C44  0109               	movlb	9	; () banked
 11680+ 003C46  214D               	addwfc	(??_CheckAdjacentCells+30+1)&0ffh,w
 11681+ 003C48  0109               	movlb	9	; () banked
 11682+ 003C4A  6F4F               	movwf	1+(??_CheckAdjacentCells+32+0)&0ffh
 11683+ 003C4C  0109               	movlb	9	; () banked
 11684+ 003C4E  514A               	movf	(??_CheckAdjacentCells+28+0)&0ffh,w
 11685+ 003C50  0109               	movlb	9	; () banked
 11686+ 003C52  254E               	addwf	(??_CheckAdjacentCells+32+0)&0ffh,w
 11687+ 003C54  6EE9               	movwf	c:fsr0l
 11688+ 003C56  0109               	movlb	9	; () banked
 11689+ 003C58  514B               	movf	(??_CheckAdjacentCells+28+1)&0ffh,w
 11690+ 003C5A  0109               	movlb	9	; () banked
 11691+ 003C5C  214F               	addwfc	(??_CheckAdjacentCells+32+1)&0ffh,w
 11692+ 003C5E  6EEA               	movwf	1+c:fsr0l
 11693+ 003C60  0109               	movlb	9	; () banked
 11694+ 003C62  CFEE F952          	movff	postinc0,(?___awmod)
 11695+ 003C66  0109               	movlb	9	; () banked
 11696+ 003C68  CFED F953          	movff	postdec0,(?___awmod+1)
 11697+ 003C6C  EC94  F02D         	call	___awmod	;wreg free
 11698+ 003C70  0109               	movlb	9	; () banked
 11699+ 003C72  5153               	movf	(1+?___awmod)&0ffh,w
 11700+ 003C74  1152               	iorwf (0+?___awmod)&0ffh,w
 11701+                          
 11702+ 003C76  B4D8               	btfsc	status,2
 11703+ 003C78  EF40  F01E         	goto	u9991
 11704+ 003C7C  EF42  F01E         	goto	u9990
 11705+ 003C80                     u9991:
 11706+ 003C80  EF56  F01E         	goto	l550
 11707+ 003C84                     u9990:
 11708+                          	line	604
 11709+                          ;main.c: 604: lowestSquare = rightSquare;
 11710+ 003C84  C934  F938         	movff	(CheckAdjacentCells@rightSquare),(CheckAd
      +                          jacentCells@lowestSquare)
 11711+ 003C88  C935  F939         	movff	(CheckAdjacentCells@rightSquare+1),(Check
      +                          AdjacentCells@lowestSquare+1)
 11712+                          	line	605
 11713+                          ;main.c: 605: directionFlag = 5;
 11714+ 003C8C  0E05               	movlw	low(05h)
 11715+ 003C8E  0108               	movlb	8	; () banked
 11716+ 003C90  0108               	movlb	8	; () banked
 11717+ 003C92  6F0A               	movwf	((2058))&0ffh
 11718+ 003C94  0E00               	movlw	high(05h)
 11719+ 003C96  0108               	movlb	8	; () banked
 11720+ 003C98  6F0B               	movwf	((2058+1))&0ffh
 11721+                          	line	606
 11722+                          ;main.c: 606: lowestFound = 1;
 11723+ 003C9A  0E01               	movlw	low(01h)
 11724+ 003C9C  0109               	movlb	9	; () banked
 11725+ 003C9E  0109               	movlb	9	; () banked
 11726+ 003CA0  6F3A               	movwf	((CheckAdjacentCells@lowestFound))&0ffh
 11727+ 003CA2  0E00               	movlw	high(01h)
 11728+ 003CA4  0109               	movlb	9	; () banked
 11729+ 003CA6  6F3B               	movwf	((CheckAdjacentCells@lowestFound+1))&0ffh
 11730+                          	line	607
 11731+                          ;main.c: 607: continue;
 11732+ 003CA8  EF4A  F01F         	goto	l546
 11733+                          	line	609
 11734+                          	
 11735+ 003CAC                     l550:		; BSR set to: ?
 11736+                          
 11737+                          ;main.c: 608: }
 11738+                          ;main.c: 609: if(adjacentSquares[i] == bottomSqu
      +                          are)
 11739+ 003CAC  0109               	movlb	9	; () banked
 11740+ 003CAE  90D8               	bcf	status,0
 11741+ 003CB0  0109               	movlb	9	; () banked
 11742+ 003CB2  3546               	rlcf	((CheckAdjacentCells@i_152))&0ffh,w
 11743+ 003CB4  0109               	movlb	9	; () banked
 11744+ 003CB6  6F4A               	movwf	(??_CheckAdjacentCells+28+0)&0ffh
 11745+ 003CB8  0109               	movlb	9	; () banked
 11746+ 003CBA  0E3C               	movlw	low(CheckAdjacentCells@adjacentSquares)
 11747+ 003CBC  0109               	movlb	9	; () banked
 11748+ 003CBE  254A               	addwf	(??_CheckAdjacentCells+28+0)&0ffh,w
 11749+ 003CC0  6EE9               	movwf	c:fsr0l
 11750+ 003CC2  6AEA               	clrf	1+c:fsr0l
 11751+ 003CC4  0109               	movlb	9	; () banked
 11752+ 003CC6  0E09               	movlw	high(CheckAdjacentCells@adjacentSquares)
 11753+ 003CC8  22EA               	addwfc	1+c:fsr0l
 11754+ 003CCA  0109               	movlb	9	; () banked
 11755+ 003CCC  52EE               	movf	postinc0
 11756+ 003CCE  0109               	movlb	9	; () banked
 11757+ 003CD0  512F               	movf	((CheckAdjacentCells@bottomSquare+1))&0ffh
      +                          ,w
 11758+ 003CD2  18ED               	xorwf	postdec0,w
 11759+ 003CD4  0109               	movlb	9	; () banked
 11760+ 003CD6  C92E  FFE8         	movff	(CheckAdjacentCells@bottomSquare),wreg
 11761+ 003CDA  B4D8               	btfsc	status,2
 11762+ 003CDC  18EF               	xorwf	indf0,w
 11763+                          
 11764+ 003CDE  A4D8               	btfss	status,2
 11765+ 003CE0  EF74  F01E         	goto	u10001
 11766+ 003CE4  EF76  F01E         	goto	u10000
 11767+ 003CE8                     u10001:
 11768+ 003CE8  EFD0  F01E         	goto	l552
 11769+ 003CEC                     u10000:
 11770+                          	line	610
 11771+                          ;main.c: 610: if(wallMap[y][x]% 7 != 0){
 11772+ 003CEC  0E07               	movlw	low(07h)
 11773+ 003CEE  0109               	movlb	9	; () banked
 11774+ 003CF0  0109               	movlb	9	; () banked
 11775+ 003CF2  6F54               	movwf	(0+(?___awmod+02h))&0ffh
 11776+ 003CF4  0E00               	movlw	high(07h)
 11777+ 003CF6  0109               	movlb	9	; () banked
 11778+ 003CF8  6F55               	movwf	(1+(?___awmod+02h))&0ffh
 11779+ 003CFA  90D8               	bcf	status,0
 11780+ 003CFC  0109               	movlb	9	; () banked
 11781+ 003CFE  0109               	movlb	9	; () banked
 11782+ 003D00  352C               	rlcf	((CheckAdjacentCells@x))&0ffh,w
 11783+ 003D02  0109               	movlb	9	; () banked
 11784+ 003D04  6F4A               	movwf	(??_CheckAdjacentCells+28+0)&0ffh
 11785+ 003D06  0109               	movlb	9	; () banked
 11786+ 003D08  0109               	movlb	9	; () banked
 11787+ 003D0A  352D               	rlcf	((CheckAdjacentCells@x+1))&0ffh,w
 11788+ 003D0C  0109               	movlb	9	; () banked
 11789+ 003D0E  6F4B               	movwf	1+(??_CheckAdjacentCells+28+0)&0ffh
 11790+ 003D10  0109               	movlb	9	; () banked
 11791+ 003D12  C92A  F94C         	movff	(CheckAdjacentCells@y),??_CheckAdjacentCe
      +                          lls+30+0
 11792+ 003D16  0109               	movlb	9	; () banked
 11793+ 003D18  C92B  F94D         	movff	(CheckAdjacentCells@y+1),??_CheckAdjacent
      +                          Cells+30+0+1
 11794+ 003D1C  0E05               	movlw	05h
 11795+ 003D1E                     u10015:
 11796+ 003D1E  90D8               	bcf	status,0
 11797+ 003D20  0109               	movlb	9	; () banked
 11798+ 003D22  374C               	rlcf	(??_CheckAdjacentCells+30+0)&0ffh
 11799+ 003D24  374D               	rlcf	(??_CheckAdjacentCells+30+1)&0ffh
 11800+ 003D26  2EE8               	decfsz	wreg
 11801+ 003D28  EF8F  F01E         	goto	u10015
 11802+ 003D2C  0E00               	movlw	low(0)
 11803+ 003D2E  0109               	movlb	9	; () banked
 11804+ 003D30  254C               	addwf	(??_CheckAdjacentCells+30+0)&0ffh,w
 11805+ 003D32  0109               	movlb	9	; () banked
 11806+ 003D34  6F4E               	movwf	(??_CheckAdjacentCells+32+0)&0ffh
 11807+ 003D36  0E00               	movlw	high(0)
 11808+ 003D38  0109               	movlb	9	; () banked
 11809+ 003D3A  214D               	addwfc	(??_CheckAdjacentCells+30+1)&0ffh,w
 11810+ 003D3C  0109               	movlb	9	; () banked
 11811+ 003D3E  6F4F               	movwf	1+(??_CheckAdjacentCells+32+0)&0ffh
 11812+ 003D40  0109               	movlb	9	; () banked
 11813+ 003D42  514A               	movf	(??_CheckAdjacentCells+28+0)&0ffh,w
 11814+ 003D44  0109               	movlb	9	; () banked
 11815+ 003D46  254E               	addwf	(??_CheckAdjacentCells+32+0)&0ffh,w
 11816+ 003D48  6EE9               	movwf	c:fsr0l
 11817+ 003D4A  0109               	movlb	9	; () banked
 11818+ 003D4C  514B               	movf	(??_CheckAdjacentCells+28+1)&0ffh,w
 11819+ 003D4E  0109               	movlb	9	; () banked
 11820+ 003D50  214F               	addwfc	(??_CheckAdjacentCells+32+1)&0ffh,w
 11821+ 003D52  6EEA               	movwf	1+c:fsr0l
 11822+ 003D54  0109               	movlb	9	; () banked
 11823+ 003D56  CFEE F952          	movff	postinc0,(?___awmod)
 11824+ 003D5A  0109               	movlb	9	; () banked
 11825+ 003D5C  CFED F953          	movff	postdec0,(?___awmod+1)
 11826+ 003D60  EC94  F02D         	call	___awmod	;wreg free
 11827+ 003D64  0109               	movlb	9	; () banked
 11828+ 003D66  5153               	movf	(1+?___awmod)&0ffh,w
 11829+ 003D68  1152               	iorwf (0+?___awmod)&0ffh,w
 11830+                          
 11831+ 003D6A  B4D8               	btfsc	status,2
 11832+ 003D6C  EFBA  F01E         	goto	u10021
 11833+ 003D70  EFBC  F01E         	goto	u10020
 11834+ 003D74                     u10021:
 11835+ 003D74  EFD0  F01E         	goto	l552
 11836+ 003D78                     u10020:
 11837+                          	line	611
 11838+                          ;main.c: 611: lowestSquare = bottomSquare;
 11839+ 003D78  C92E  F938         	movff	(CheckAdjacentCells@bottomSquare),(CheckA
      +                          djacentCells@lowestSquare)
 11840+ 003D7C  C92F  F939         	movff	(CheckAdjacentCells@bottomSquare+1),(Chec
      +                          kAdjacentCells@lowestSquare+1)
 11841+                          	line	612
 11842+                          ;main.c: 612: directionFlag = 7;
 11843+ 003D80  0E07               	movlw	low(07h)
 11844+ 003D82  0108               	movlb	8	; () banked
 11845+ 003D84  0108               	movlb	8	; () banked
 11846+ 003D86  6F0A               	movwf	((2058))&0ffh
 11847+ 003D88  0E00               	movlw	high(07h)
 11848+ 003D8A  0108               	movlb	8	; () banked
 11849+ 003D8C  6F0B               	movwf	((2058+1))&0ffh
 11850+                          	line	613
 11851+                          ;main.c: 613: lowestFound = 1;
 11852+ 003D8E  0E01               	movlw	low(01h)
 11853+ 003D90  0109               	movlb	9	; () banked
 11854+ 003D92  0109               	movlb	9	; () banked
 11855+ 003D94  6F3A               	movwf	((CheckAdjacentCells@lowestFound))&0ffh
 11856+ 003D96  0E00               	movlw	high(01h)
 11857+ 003D98  0109               	movlb	9	; () banked
 11858+ 003D9A  6F3B               	movwf	((CheckAdjacentCells@lowestFound+1))&0ffh
 11859+                          	line	614
 11860+                          ;main.c: 614: continue;
 11861+ 003D9C  EF4A  F01F         	goto	l546
 11862+                          	line	616
 11863+                          	
 11864+ 003DA0                     l552:		; BSR set to: ?
 11865+                          
 11866+                          ;main.c: 615: }
 11867+                          ;main.c: 616: if(adjacentSquares[i] == leftSquar
      +                          e)
 11868+ 003DA0  0109               	movlb	9	; () banked
 11869+ 003DA2  90D8               	bcf	status,0
 11870+ 003DA4  0109               	movlb	9	; () banked
 11871+ 003DA6  3546               	rlcf	((CheckAdjacentCells@i_152))&0ffh,w
 11872+ 003DA8  0109               	movlb	9	; () banked
 11873+ 003DAA  6F4A               	movwf	(??_CheckAdjacentCells+28+0)&0ffh
 11874+ 003DAC  0109               	movlb	9	; () banked
 11875+ 003DAE  0E3C               	movlw	low(CheckAdjacentCells@adjacentSquares)
 11876+ 003DB0  0109               	movlb	9	; () banked
 11877+ 003DB2  254A               	addwf	(??_CheckAdjacentCells+28+0)&0ffh,w
 11878+ 003DB4  6EE9               	movwf	c:fsr0l
 11879+ 003DB6  6AEA               	clrf	1+c:fsr0l
 11880+ 003DB8  0109               	movlb	9	; () banked
 11881+ 003DBA  0E09               	movlw	high(CheckAdjacentCells@adjacentSquares)
 11882+ 003DBC  22EA               	addwfc	1+c:fsr0l
 11883+ 003DBE  0109               	movlb	9	; () banked
 11884+ 003DC0  52EE               	movf	postinc0
 11885+ 003DC2  0109               	movlb	9	; () banked
 11886+ 003DC4  5133               	movf	((CheckAdjacentCells@leftSquare+1))&0ffh,w
 11887+ 003DC6  18ED               	xorwf	postdec0,w
 11888+ 003DC8  0109               	movlb	9	; () banked
 11889+ 003DCA  C932  FFE8         	movff	(CheckAdjacentCells@leftSquare),wreg
 11890+ 003DCE  B4D8               	btfsc	status,2
 11891+ 003DD0  18EF               	xorwf	indf0,w
 11892+                          
 11893+ 003DD2  A4D8               	btfss	status,2
 11894+ 003DD4  EFEE  F01E         	goto	u10031
 11895+ 003DD8  EFF0  F01E         	goto	u10030
 11896+ 003DDC                     u10031:
 11897+ 003DDC  EF4A  F01F         	goto	l546
 11898+ 003DE0                     u10030:
 11899+                          	line	617
 11900+                          ;main.c: 617: if(wallMap[y][x] % 13 != 0){
 11901+ 003DE0  0E0D               	movlw	low(0Dh)
 11902+ 003DE2  0109               	movlb	9	; () banked
 11903+ 003DE4  0109               	movlb	9	; () banked
 11904+ 003DE6  6F54               	movwf	(0+(?___awmod+02h))&0ffh
 11905+ 003DE8  0E00               	movlw	high(0Dh)
 11906+ 003DEA  0109               	movlb	9	; () banked
 11907+ 003DEC  6F55               	movwf	(1+(?___awmod+02h))&0ffh
 11908+ 003DEE  90D8               	bcf	status,0
 11909+ 003DF0  0109               	movlb	9	; () banked
 11910+ 003DF2  0109               	movlb	9	; () banked
 11911+ 003DF4  352C               	rlcf	((CheckAdjacentCells@x))&0ffh,w
 11912+ 003DF6  0109               	movlb	9	; () banked
 11913+ 003DF8  6F4A               	movwf	(??_CheckAdjacentCells+28+0)&0ffh
 11914+ 003DFA  0109               	movlb	9	; () banked
 11915+ 003DFC  0109               	movlb	9	; () banked
 11916+ 003DFE  352D               	rlcf	((CheckAdjacentCells@x+1))&0ffh,w
 11917+ 003E00  0109               	movlb	9	; () banked
 11918+ 003E02  6F4B               	movwf	1+(??_CheckAdjacentCells+28+0)&0ffh
 11919+ 003E04  0109               	movlb	9	; () banked
 11920+ 003E06  C92A  F94C         	movff	(CheckAdjacentCells@y),??_CheckAdjacentCe
      +                          lls+30+0
 11921+ 003E0A  0109               	movlb	9	; () banked
 11922+ 003E0C  C92B  F94D         	movff	(CheckAdjacentCells@y+1),??_CheckAdjacent
      +                          Cells+30+0+1
 11923+ 003E10  0E05               	movlw	05h
 11924+ 003E12                     u10045:
 11925+ 003E12  90D8               	bcf	status,0
 11926+ 003E14  0109               	movlb	9	; () banked
 11927+ 003E16  374C               	rlcf	(??_CheckAdjacentCells+30+0)&0ffh
 11928+ 003E18  374D               	rlcf	(??_CheckAdjacentCells+30+1)&0ffh
 11929+ 003E1A  2EE8               	decfsz	wreg
 11930+ 003E1C  EF09  F01F         	goto	u10045
 11931+ 003E20  0E00               	movlw	low(0)
 11932+ 003E22  0109               	movlb	9	; () banked
 11933+ 003E24  254C               	addwf	(??_CheckAdjacentCells+30+0)&0ffh,w
 11934+ 003E26  0109               	movlb	9	; () banked
 11935+ 003E28  6F4E               	movwf	(??_CheckAdjacentCells+32+0)&0ffh
 11936+ 003E2A  0E00               	movlw	high(0)
 11937+ 003E2C  0109               	movlb	9	; () banked
 11938+ 003E2E  214D               	addwfc	(??_CheckAdjacentCells+30+1)&0ffh,w
 11939+ 003E30  0109               	movlb	9	; () banked
 11940+ 003E32  6F4F               	movwf	1+(??_CheckAdjacentCells+32+0)&0ffh
 11941+ 003E34  0109               	movlb	9	; () banked
 11942+ 003E36  514A               	movf	(??_CheckAdjacentCells+28+0)&0ffh,w
 11943+ 003E38  0109               	movlb	9	; () banked
 11944+ 003E3A  254E               	addwf	(??_CheckAdjacentCells+32+0)&0ffh,w
 11945+ 003E3C  6EE9               	movwf	c:fsr0l
 11946+ 003E3E  0109               	movlb	9	; () banked
 11947+ 003E40  514B               	movf	(??_CheckAdjacentCells+28+1)&0ffh,w
 11948+ 003E42  0109               	movlb	9	; () banked
 11949+ 003E44  214F               	addwfc	(??_CheckAdjacentCells+32+1)&0ffh,w
 11950+ 003E46  6EEA               	movwf	1+c:fsr0l
 11951+ 003E48  0109               	movlb	9	; () banked
 11952+ 003E4A  CFEE F952          	movff	postinc0,(?___awmod)
 11953+ 003E4E  0109               	movlb	9	; () banked
 11954+ 003E50  CFED F953          	movff	postdec0,(?___awmod+1)
 11955+ 003E54  EC94  F02D         	call	___awmod	;wreg free
 11956+ 003E58  0109               	movlb	9	; () banked
 11957+ 003E5A  5153               	movf	(1+?___awmod)&0ffh,w
 11958+ 003E5C  1152               	iorwf (0+?___awmod)&0ffh,w
 11959+                          
 11960+ 003E5E  B4D8               	btfsc	status,2
 11961+ 003E60  EF34  F01F         	goto	u10051
 11962+ 003E64  EF36  F01F         	goto	u10050
 11963+ 003E68                     u10051:
 11964+ 003E68  EF4A  F01F         	goto	l546
 11965+ 003E6C                     u10050:
 11966+                          	line	618
 11967+                          ;main.c: 618: lowestSquare = leftSquare;
 11968+ 003E6C  C932  F938         	movff	(CheckAdjacentCells@leftSquare),(CheckAdj
      +                          acentCells@lowestSquare)
 11969+ 003E70  C933  F939         	movff	(CheckAdjacentCells@leftSquare+1),(CheckA
      +                          djacentCells@lowestSquare+1)
 11970+                          	line	619
 11971+                          ;main.c: 619: directionFlag = 13;
 11972+ 003E74  0E0D               	movlw	low(0Dh)
 11973+ 003E76  0108               	movlb	8	; () banked
 11974+ 003E78  0108               	movlb	8	; () banked
 11975+ 003E7A  6F0A               	movwf	((2058))&0ffh
 11976+ 003E7C  0E00               	movlw	high(0Dh)
 11977+ 003E7E  0108               	movlb	8	; () banked
 11978+ 003E80  6F0B               	movwf	((2058+1))&0ffh
 11979+                          	line	620
 11980+                          ;main.c: 620: lowestFound = 1;
 11981+ 003E82  0E01               	movlw	low(01h)
 11982+ 003E84  0109               	movlb	9	; () banked
 11983+ 003E86  0109               	movlb	9	; () banked
 11984+ 003E88  6F3A               	movwf	((CheckAdjacentCells@lowestFound))&0ffh
 11985+ 003E8A  0E00               	movlw	high(01h)
 11986+ 003E8C  0109               	movlb	9	; () banked
 11987+ 003E8E  6F3B               	movwf	((CheckAdjacentCells@lowestFound+1))&0ffh
 11988+                          	line	621
 11989+                          ;main.c: 621: continue;
 11990+ 003E90  EF4A  F01F         	goto	l546
 11991+                          	line	593
 11992+                          	
 11993+ 003E94                     l546:		; BSR set to: ?
 11994+                          
 11995+ 003E94  0109               	movlb	9	; () banked
 11996+ 003E96  0109               	movlb	9	; () banked
 11997+ 003E98  4B46               	infsnz	((CheckAdjacentCells@i_152))&0ffh
 11998+ 003E9A  2B47               	incf	((CheckAdjacentCells@i_152+1))&0ffh
 11999+ 003E9C  0109               	movlb	9	; () banked
 12000+ 003E9E  0109               	movlb	9	; () banked
 12001+ 003EA0  5147               	movf	((CheckAdjacentCells@i_152+1))&0ffh,w
 12002+ 003EA2  0A80               	xorlw	80h
 12003+ 003EA4  0F80               	addlw	-((0)^80h)
 12004+ 003EA6  0E04               	movlw	04h
 12005+ 003EA8  B4D8               	btfsc	status,2
 12006+ 003EAA  5D46               	subwf	((CheckAdjacentCells@i_152))&0ffh,w
 12007+ 003EAC  A0D8               	btfss	status,0
 12008+ 003EAE  EF5B  F01F         	goto	u10061
 12009+ 003EB2  EF5D  F01F         	goto	u10060
 12010+ 003EB6                     u10061:
 12011+ 003EB6  EF57  F01D         	goto	l544
 12012+ 003EBA                     u10060:
 12013+                          	
 12014+ 003EBA                     l545:		; BSR set to: ?
 12015+                          
 12016+                          	line	626
 12017+                          ;main.c: 622: }
 12018+                          ;main.c: 623: }
 12019+                          ;main.c: 624: }
 12020+                          ;main.c: 626: mazeMap[y][x] = lowestSquare + 1;
 12021+ 003EBA  0E01               	movlw	01h
 12022+ 003EBC  0109               	movlb	9	; () banked
 12023+ 003EBE  0109               	movlb	9	; () banked
 12024+ 003EC0  2538               	addwf	((CheckAdjacentCells@lowestSquare))&0ffh,
      +                          w
 12025+ 003EC2  0109               	movlb	9	; () banked
 12026+ 003EC4  6F4A               	movwf	(??_CheckAdjacentCells+28+0)&0ffh
 12027+ 003EC6  0E00               	movlw	0
 12028+ 003EC8  0109               	movlb	9	; () banked
 12029+ 003ECA  0109               	movlb	9	; () banked
 12030+ 003ECC  2139               	addwfc	((CheckAdjacentCells@lowestSquare+1))&0f
      +                          fh,w
 12031+ 003ECE  0109               	movlb	9	; () banked
 12032+ 003ED0  6F4B               	movwf	(??_CheckAdjacentCells+28+0+1)&0ffh
 12033+ 003ED2  90D8               	bcf	status,0
 12034+ 003ED4  0109               	movlb	9	; () banked
 12035+ 003ED6  0109               	movlb	9	; () banked
 12036+ 003ED8  352C               	rlcf	((CheckAdjacentCells@x))&0ffh,w
 12037+ 003EDA  0109               	movlb	9	; () banked
 12038+ 003EDC  6F4C               	movwf	(??_CheckAdjacentCells+30+0)&0ffh
 12039+ 003EDE  0109               	movlb	9	; () banked
 12040+ 003EE0  0109               	movlb	9	; () banked
 12041+ 003EE2  352D               	rlcf	((CheckAdjacentCells@x+1))&0ffh,w
 12042+ 003EE4  0109               	movlb	9	; () banked
 12043+ 003EE6  6F4D               	movwf	1+(??_CheckAdjacentCells+30+0)&0ffh
 12044+ 003EE8  0109               	movlb	9	; () banked
 12045+ 003EEA  C92A  F94E         	movff	(CheckAdjacentCells@y),??_CheckAdjacentCe
      +                          lls+32+0
 12046+ 003EEE  0109               	movlb	9	; () banked
 12047+ 003EF0  C92B  F94F         	movff	(CheckAdjacentCells@y+1),??_CheckAdjacent
      +                          Cells+32+0+1
 12048+ 003EF4  0E05               	movlw	05h
 12049+ 003EF6                     u10075:
 12050+ 003EF6  90D8               	bcf	status,0
 12051+ 003EF8  0109               	movlb	9	; () banked
 12052+ 003EFA  374E               	rlcf	(??_CheckAdjacentCells+32+0)&0ffh
 12053+ 003EFC  374F               	rlcf	(??_CheckAdjacentCells+32+1)&0ffh
 12054+ 003EFE  2EE8               	decfsz	wreg
 12055+ 003F00  EF7B  F01F         	goto	u10075
 12056+ 003F04  0E00               	movlw	low(512)
 12057+ 003F06  0109               	movlb	9	; () banked
 12058+ 003F08  254E               	addwf	(??_CheckAdjacentCells+32+0)&0ffh,w
 12059+ 003F0A  0109               	movlb	9	; () banked
 12060+ 003F0C  6F50               	movwf	(??_CheckAdjacentCells+34+0)&0ffh
 12061+ 003F0E  0E02               	movlw	high(512)
 12062+ 003F10  0109               	movlb	9	; () banked
 12063+ 003F12  214F               	addwfc	(??_CheckAdjacentCells+32+1)&0ffh,w
 12064+ 003F14  0109               	movlb	9	; () banked
 12065+ 003F16  6F51               	movwf	1+(??_CheckAdjacentCells+34+0)&0ffh
 12066+ 003F18  0109               	movlb	9	; () banked
 12067+ 003F1A  514C               	movf	(??_CheckAdjacentCells+30+0)&0ffh,w
 12068+ 003F1C  0109               	movlb	9	; () banked
 12069+ 003F1E  2550               	addwf	(??_CheckAdjacentCells+34+0)&0ffh,w
 12070+ 003F20  6EE9               	movwf	c:fsr0l
 12071+ 003F22  0109               	movlb	9	; () banked
 12072+ 003F24  514D               	movf	(??_CheckAdjacentCells+30+1)&0ffh,w
 12073+ 003F26  0109               	movlb	9	; () banked
 12074+ 003F28  2151               	addwfc	(??_CheckAdjacentCells+34+1)&0ffh,w
 12075+ 003F2A  6EEA               	movwf	1+c:fsr0l
 12076+ 003F2C  C94A  FFEE         	movff	??_CheckAdjacentCells+28+0,postinc0
 12077+ 003F30  C94B  FFED         	movff	??_CheckAdjacentCells+28+1,postdec0
 12078+                          
 12079+                          	line	628
 12080+                          ;main.c: 628: }
 12081+ 003F34                     l532:
 12082+                          			; BSR set to: ?
 12083+                          
 12084+ 003F34  0012               	return
 12085+                          	opt stack 0
 12086+                          GLOBAL __end_of_CheckAdjacentCells
 12087+ 003F36                     	__end_of_CheckAdjacentCells:
 12088+                          	FNSIZE	_CheckAdjacentCells,36,4
 12089+                          ; =============== function _CheckAdjacentCells e
      +                          nds ============
 12090+                          
 12091+                          	signat	_CheckAdjacentCells,8312
 12092+                          	global	_ClearMaze
 12093+                          	global	??_ClearMaze
 12094+                          	global	?_ClearMaze
 12095+                          
 12096+                          ; *************** function _ClearMaze **********
      +                          *******
 12097+                          ; Defined at:
 12098+                          ;		line 758 in file "C:\Users\tab\Desktop\electr
      +                          onics\micro_mouse\WORKING_SAC\main.c"
 12099+                          ; Parameters:
 12100+                          ;		clearRunTime   size:   2offs:   0	type: short
      +                           
 12101+                          ;		clearEeprom    size:   2offs:   2	type: short
      +                           
 12102+                          ; Auto variables:
 12103+                          ;		i           	       	type: int 
 12104+                          ;		i           	       	type: int 
 12105+                          ;		i           	       	type: int 
 12106+                          ;		j           	       	type: int 
 12107+                          ;		j           	       	type: int 
 12108+                          ; Return value:
 12109+                          ;		type: void 
 12110+                          ;		size: 0
 12111+                          ; Registers used:
 12112+                          ;		wreg, fsr0l, fsr0h, status,2, status,0, cstac
      +                          k
 12113+                          ; Tracked objects:
 12114+                          ;		On entry : 0/0
 12115+                          ;		On exit  : 0/0
 12116+                          ;		Unchanged: 0/0
 12117+                          ; Data sizes:
 12118+                          ;		Autos:   10
 12119+                          ;		Params:   4
 12120+                          ;		Temp:     6
 12121+                          ;		Total:   20
 12122+                          ; This function calls:
 12123+                          ;		_eeprom_write
 12124+                          ; This function is called by:
 12125+                          ;		_main
 12126+                          ;		_MazeSetup
 12127+                          ; This function uses a non-reentrant model
 12128+                          ; 
 12129+                                  psect   text11,class=CODE,space=0,reloc=
      +                          2
 12130+                          
 12131+                          	opt lm
 12132+                          	file	"C:\Users\tab\Desktop\electronics\micro_mo
      +                          use\WORKING_SAC\main.c"
 12133+                          	line	758
 12134+ 000000                     	__size_of_ClearMaze	equ	__end_of_ClearMaze-_Cle
      +                          arMaze
 12135+                          ;main.c: 758: void ClearMaze(short clearRunTime,
      +                           short clearEeprom){
 12136+                          	
 12137+ 005316                     _ClearMaze:		; BSR set to: ?
 12138+                          
 12139+                          	opt stack 28
 12140+                          	line	761
 12141+                          ;main.c: 761: if(clearEeprom == 1){
 12142+ 005316  0109               	movlb	9	; () banked
 12143+ 005318  0109               	movlb	9	; () banked
 12144+ 00531A  051C               	decf	((ClearMaze@clearEeprom))&0ffh,w
 12145+ 00531C  111D               	iorwf ((ClearMaze@clearEeprom+1))&0ffh,w
 12146+                          
 12147+ 00531E  A4D8               	btfss	status,2
 12148+ 005320  EF94  F029         	goto	u7571
 12149+ 005324  EF96  F029         	goto	u7570
 12150+ 005328                     u7571:
 12151+ 005328  EFCF  F029         	goto	l600
 12152+ 00532C                     u7570:
 12153+                          	line	762
 12154+                          ;main.c: 762: for(int i = 0; i < 514; i++)
 12155+ 00532C  0E00               	movlw	low(0)
 12156+ 00532E  0109               	movlb	9	; () banked
 12157+ 005330  0109               	movlb	9	; () banked
 12158+ 005332  6F1E               	movwf	((ClearMaze@i))&0ffh
 12159+ 005334  0E00               	movlw	high(0)
 12160+ 005336  0109               	movlb	9	; () banked
 12161+ 005338  6F1F               	movwf	((ClearMaze@i+1))&0ffh
 12162+ 00533A  0109               	movlb	9	; () banked
 12163+ 00533C  0109               	movlb	9	; () banked
 12164+ 00533E  511F               	movf	((ClearMaze@i+1))&0ffh,w
 12165+ 005340  0A80               	xorlw	80h
 12166+ 005342  0F7E               	addlw	-((02h)^80h)
 12167+ 005344  0E02               	movlw	02h
 12168+ 005346  B4D8               	btfsc	status,2
 12169+ 005348  5D1E               	subwf	((ClearMaze@i))&0ffh,w
 12170+ 00534A  A0D8               	btfss	status,0
 12171+ 00534C  EFAA  F029         	goto	u7581
 12172+ 005350  EFAC  F029         	goto	u7580
 12173+ 005354                     u7581:
 12174+ 005354  EFAE  F029         	goto	l601
 12175+ 005358                     u7580:
 12176+ 005358  EFCF  F029         	goto	l600
 12177+                          	line	763
 12178+                          	
 12179+ 00535C                     l601:		; BSR set to: ?
 12180+                          
 12181+                          ;main.c: 763: eeprom_write(i, 0x00);
 12182+ 00535C  0109               	movlb	9	; () banked
 12183+ 00535E  6F28               	movwf	(??_ClearMaze+10+0)&0ffh
 12184+ 005360  0E00               	movlw	low(0)
 12185+ 005362  0109               	movlb	9	; () banked
 12186+ 005364  0109               	movlb	9	; () banked
 12187+ 005366  6F42               	movwf	(0+(?_eeprom_write+02h))&0ffh
 12188+ 005368  0109               	movlb	9	; () banked
 12189+ 00536A  5128               	movf	(??_ClearMaze+10+0)&0ffh,w
 12190+ 00536C  C91E  F940         	movff	(ClearMaze@i),(?_eeprom_write)
 12191+ 005370  C91F  F941         	movff	(ClearMaze@i+1),(?_eeprom_write+1)
 12192+ 005374  EC86  F02F         	call	_eeprom_write	;wreg free
 12193+                          	line	762
 12194+ 005378  0109               	movlb	9	; () banked
 12195+ 00537A  0109               	movlb	9	; () banked
 12196+ 00537C  4B1E               	infsnz	((ClearMaze@i))&0ffh
 12197+ 00537E  2B1F               	incf	((ClearMaze@i+1))&0ffh
 12198+ 005380  0109               	movlb	9	; () banked
 12199+ 005382  0109               	movlb	9	; () banked
 12200+ 005384  511F               	movf	((ClearMaze@i+1))&0ffh,w
 12201+ 005386  0A80               	xorlw	80h
 12202+ 005388  0F7E               	addlw	-((02h)^80h)
 12203+ 00538A  0E02               	movlw	02h
 12204+ 00538C  B4D8               	btfsc	status,2
 12205+ 00538E  5D1E               	subwf	((ClearMaze@i))&0ffh,w
 12206+ 005390  A0D8               	btfss	status,0
 12207+ 005392  EFCD  F029         	goto	u7591
 12208+ 005396  EFCF  F029         	goto	u7590
 12209+ 00539A                     u7591:
 12210+ 00539A  EFAE  F029         	goto	l601
 12211+ 00539E                     u7590:
 12212+                          	
 12213+ 00539E                     l602:		; BSR set to: ?
 12214+                          
 12215+                          	line	764
 12216+                          	
 12217+ 00539E                     l600:		; BSR set to: ?
 12218+                          
 12219+                          	line	767
 12220+                          ;main.c: 764: }
 12221+                          ;main.c: 767: if(clearRunTime == 1){
 12222+ 00539E  0109               	movlb	9	; () banked
 12223+ 0053A0  0109               	movlb	9	; () banked
 12224+ 0053A2  051A               	decf	((ClearMaze@clearRunTime))&0ffh,w
 12225+ 0053A4  111B               	iorwf ((ClearMaze@clearRunTime+1))&0ffh,w
 12226+                          
 12227+ 0053A6  A4D8               	btfss	status,2
 12228+ 0053A8  EFD8  F029         	goto	u7601
 12229+ 0053AC  EFDA  F029         	goto	u7600
 12230+ 0053B0                     u7601:
 12231+ 0053B0  EFE8  F02A         	goto	l604
 12232+ 0053B4                     u7600:
 12233+                          	line	768
 12234+                          ;main.c: 768: for(int i = 0; i < 16; i++)
 12235+ 0053B4  0E00               	movlw	low(0)
 12236+ 0053B6  0109               	movlb	9	; () banked
 12237+ 0053B8  0109               	movlb	9	; () banked
 12238+ 0053BA  6F20               	movwf	((ClearMaze@i_158))&0ffh
 12239+ 0053BC  0E00               	movlw	high(0)
 12240+ 0053BE  0109               	movlb	9	; () banked
 12241+ 0053C0  6F21               	movwf	((ClearMaze@i_158+1))&0ffh
 12242+ 0053C2  0109               	movlb	9	; () banked
 12243+ 0053C4  0109               	movlb	9	; () banked
 12244+ 0053C6  5121               	movf	((ClearMaze@i_158+1))&0ffh,w
 12245+ 0053C8  0A80               	xorlw	80h
 12246+ 0053CA  0F80               	addlw	-((0)^80h)
 12247+ 0053CC  0E10               	movlw	010h
 12248+ 0053CE  B4D8               	btfsc	status,2
 12249+ 0053D0  5D20               	subwf	((ClearMaze@i_158))&0ffh,w
 12250+ 0053D2  A0D8               	btfss	status,0
 12251+ 0053D4  EFEE  F029         	goto	u7611
 12252+ 0053D8  EFF0  F029         	goto	u7610
 12253+ 0053DC                     u7611:
 12254+ 0053DC  EFF2  F029         	goto	l605
 12255+ 0053E0                     u7610:
 12256+ 0053E0  EF61  F02A         	goto	l606
 12257+                          	line	769
 12258+                          	
 12259+ 0053E4                     l605:		; BSR set to: ?
 12260+                          
 12261+                          ;main.c: 769: for(int j = 0; j < 16; j++)
 12262+ 0053E4  0E00               	movlw	low(0)
 12263+ 0053E6  0109               	movlb	9	; () banked
 12264+ 0053E8  0109               	movlb	9	; () banked
 12265+ 0053EA  6F24               	movwf	((ClearMaze@j))&0ffh
 12266+ 0053EC  0E00               	movlw	high(0)
 12267+ 0053EE  0109               	movlb	9	; () banked
 12268+ 0053F0  6F25               	movwf	((ClearMaze@j+1))&0ffh
 12269+ 0053F2  0109               	movlb	9	; () banked
 12270+ 0053F4  0109               	movlb	9	; () banked
 12271+ 0053F6  5125               	movf	((ClearMaze@j+1))&0ffh,w
 12272+ 0053F8  0A80               	xorlw	80h
 12273+ 0053FA  0F80               	addlw	-((0)^80h)
 12274+ 0053FC  0E10               	movlw	010h
 12275+ 0053FE  B4D8               	btfsc	status,2
 12276+ 005400  5D24               	subwf	((ClearMaze@j))&0ffh,w
 12277+ 005402  A0D8               	btfss	status,0
 12278+ 005404  EF06  F02A         	goto	u7621
 12279+ 005408  EF08  F02A         	goto	u7620
 12280+ 00540C                     u7621:
 12281+ 00540C  EF0A  F02A         	goto	l608
 12282+ 005410                     u7620:
 12283+ 005410  EF4E  F02A         	goto	l609
 12284+                          	line	770
 12285+                          	
 12286+ 005414                     l608:		; BSR set to: ?
 12287+                          
 12288+                          ;main.c: 770: mazeMap[i][j] = 0;
 12289+ 005414  90D8               	bcf	status,0
 12290+ 005416  0109               	movlb	9	; () banked
 12291+ 005418  0109               	movlb	9	; () banked
 12292+ 00541A  3524               	rlcf	((ClearMaze@j))&0ffh,w
 12293+ 00541C  0109               	movlb	9	; () banked
 12294+ 00541E  6F28               	movwf	(??_ClearMaze+10+0)&0ffh
 12295+ 005420  0109               	movlb	9	; () banked
 12296+ 005422  0109               	movlb	9	; () banked
 12297+ 005424  3525               	rlcf	((ClearMaze@j+1))&0ffh,w
 12298+ 005426  0109               	movlb	9	; () banked
 12299+ 005428  6F29               	movwf	1+(??_ClearMaze+10+0)&0ffh
 12300+ 00542A  0109               	movlb	9	; () banked
 12301+ 00542C  C920  F92A         	movff	(ClearMaze@i_158),??_ClearMaze+12+0
 12302+ 005430  0109               	movlb	9	; () banked
 12303+ 005432  C921  F92B         	movff	(ClearMaze@i_158+1),??_ClearMaze+12+0+1
 12304+ 005436  0E05               	movlw	05h
 12305+ 005438                     u7635:
 12306+ 005438  90D8               	bcf	status,0
 12307+ 00543A  0109               	movlb	9	; () banked
 12308+ 00543C  372A               	rlcf	(??_ClearMaze+12+0)&0ffh
 12309+ 00543E  372B               	rlcf	(??_ClearMaze+12+1)&0ffh
 12310+ 005440  2EE8               	decfsz	wreg
 12311+ 005442  EF1C  F02A         	goto	u7635
 12312+ 005446  0E00               	movlw	low(512)
 12313+ 005448  0109               	movlb	9	; () banked
 12314+ 00544A  252A               	addwf	(??_ClearMaze+12+0)&0ffh,w
 12315+ 00544C  0109               	movlb	9	; () banked
 12316+ 00544E  6F2C               	movwf	(??_ClearMaze+14+0)&0ffh
 12317+ 005450  0E02               	movlw	high(512)
 12318+ 005452  0109               	movlb	9	; () banked
 12319+ 005454  212B               	addwfc	(??_ClearMaze+12+1)&0ffh,w
 12320+ 005456  0109               	movlb	9	; () banked
 12321+ 005458  6F2D               	movwf	1+(??_ClearMaze+14+0)&0ffh
 12322+ 00545A  0109               	movlb	9	; () banked
 12323+ 00545C  5128               	movf	(??_ClearMaze+10+0)&0ffh,w
 12324+ 00545E  0109               	movlb	9	; () banked
 12325+ 005460  252C               	addwf	(??_ClearMaze+14+0)&0ffh,w
 12326+ 005462  6EE9               	movwf	c:fsr0l
 12327+ 005464  0109               	movlb	9	; () banked
 12328+ 005466  5129               	movf	(??_ClearMaze+10+1)&0ffh,w
 12329+ 005468  0109               	movlb	9	; () banked
 12330+ 00546A  212D               	addwfc	(??_ClearMaze+14+1)&0ffh,w
 12331+ 00546C  6EEA               	movwf	1+c:fsr0l
 12332+ 00546E  0E00               	movlw	low(0)
 12333+ 005470  6EEE               	movwf	postinc0
 12334+ 005472  0E00               	movlw	high(0)
 12335+ 005474  6EED               	movwf	postdec0
 12336+                          	line	769
 12337+ 005476  0109               	movlb	9	; () banked
 12338+ 005478  0109               	movlb	9	; () banked
 12339+ 00547A  4B24               	infsnz	((ClearMaze@j))&0ffh
 12340+ 00547C  2B25               	incf	((ClearMaze@j+1))&0ffh
 12341+ 00547E  0109               	movlb	9	; () banked
 12342+ 005480  0109               	movlb	9	; () banked
 12343+ 005482  5125               	movf	((ClearMaze@j+1))&0ffh,w
 12344+ 005484  0A80               	xorlw	80h
 12345+ 005486  0F80               	addlw	-((0)^80h)
 12346+ 005488  0E10               	movlw	010h
 12347+ 00548A  B4D8               	btfsc	status,2
 12348+ 00548C  5D24               	subwf	((ClearMaze@j))&0ffh,w
 12349+ 00548E  A0D8               	btfss	status,0
 12350+ 005490  EF4C  F02A         	goto	u7641
 12351+ 005494  EF4E  F02A         	goto	u7640
 12352+ 005498                     u7641:
 12353+ 005498  EF0A  F02A         	goto	l608
 12354+ 00549C                     u7640:
 12355+                          	
 12356+ 00549C                     l609:		; BSR set to: ?
 12357+                          
 12358+                          	line	768
 12359+ 00549C  0109               	movlb	9	; () banked
 12360+ 00549E  0109               	movlb	9	; () banked
 12361+ 0054A0  4B20               	infsnz	((ClearMaze@i_158))&0ffh
 12362+ 0054A2  2B21               	incf	((ClearMaze@i_158+1))&0ffh
 12363+ 0054A4  0109               	movlb	9	; () banked
 12364+ 0054A6  0109               	movlb	9	; () banked
 12365+ 0054A8  5121               	movf	((ClearMaze@i_158+1))&0ffh,w
 12366+ 0054AA  0A80               	xorlw	80h
 12367+ 0054AC  0F80               	addlw	-((0)^80h)
 12368+ 0054AE  0E10               	movlw	010h
 12369+ 0054B0  B4D8               	btfsc	status,2
 12370+ 0054B2  5D20               	subwf	((ClearMaze@i_158))&0ffh,w
 12371+ 0054B4  A0D8               	btfss	status,0
 12372+ 0054B6  EF5F  F02A         	goto	u7651
 12373+ 0054BA  EF61  F02A         	goto	u7650
 12374+ 0054BE                     u7651:
 12375+ 0054BE  EFF2  F029         	goto	l605
 12376+ 0054C2                     u7650:
 12377+                          	
 12378+ 0054C2                     l606:		; BSR set to: ?
 12379+                          
 12380+                          	line	772
 12381+                          ;main.c: 772: for(int i = 0; i < 16; i++)
 12382+ 0054C2  0E00               	movlw	low(0)
 12383+ 0054C4  0109               	movlb	9	; () banked
 12384+ 0054C6  0109               	movlb	9	; () banked
 12385+ 0054C8  6F22               	movwf	((ClearMaze@i_160))&0ffh
 12386+ 0054CA  0E00               	movlw	high(0)
 12387+ 0054CC  0109               	movlb	9	; () banked
 12388+ 0054CE  6F23               	movwf	((ClearMaze@i_160+1))&0ffh
 12389+ 0054D0  0109               	movlb	9	; () banked
 12390+ 0054D2  0109               	movlb	9	; () banked
 12391+ 0054D4  5123               	movf	((ClearMaze@i_160+1))&0ffh,w
 12392+ 0054D6  0A80               	xorlw	80h
 12393+ 0054D8  0F80               	addlw	-((0)^80h)
 12394+ 0054DA  0E10               	movlw	010h
 12395+ 0054DC  B4D8               	btfsc	status,2
 12396+ 0054DE  5D22               	subwf	((ClearMaze@i_160))&0ffh,w
 12397+ 0054E0  A0D8               	btfss	status,0
 12398+ 0054E2  EF75  F02A         	goto	u7661
 12399+ 0054E6  EF77  F02A         	goto	u7660
 12400+ 0054EA                     u7661:
 12401+ 0054EA  EF79  F02A         	goto	l611
 12402+ 0054EE                     u7660:
 12403+ 0054EE  EFE8  F02A         	goto	l604
 12404+                          	line	773
 12405+                          	
 12406+ 0054F2                     l611:		; BSR set to: ?
 12407+                          
 12408+                          ;main.c: 773: for(int j = 0; j < 16; j++)
 12409+ 0054F2  0E00               	movlw	low(0)
 12410+ 0054F4  0109               	movlb	9	; () banked
 12411+ 0054F6  0109               	movlb	9	; () banked
 12412+ 0054F8  6F26               	movwf	((ClearMaze@j_161))&0ffh
 12413+ 0054FA  0E00               	movlw	high(0)
 12414+ 0054FC  0109               	movlb	9	; () banked
 12415+ 0054FE  6F27               	movwf	((ClearMaze@j_161+1))&0ffh
 12416+ 005500  0109               	movlb	9	; () banked
 12417+ 005502  0109               	movlb	9	; () banked
 12418+ 005504  5127               	movf	((ClearMaze@j_161+1))&0ffh,w
 12419+ 005506  0A80               	xorlw	80h
 12420+ 005508  0F80               	addlw	-((0)^80h)
 12421+ 00550A  0E10               	movlw	010h
 12422+ 00550C  B4D8               	btfsc	status,2
 12423+ 00550E  5D26               	subwf	((ClearMaze@j_161))&0ffh,w
 12424+ 005510  A0D8               	btfss	status,0
 12425+ 005512  EF8D  F02A         	goto	u7671
 12426+ 005516  EF8F  F02A         	goto	u7670
 12427+ 00551A                     u7671:
 12428+ 00551A  EF91  F02A         	goto	l614
 12429+ 00551E                     u7670:
 12430+ 00551E  EFD5  F02A         	goto	l615
 12431+                          	line	774
 12432+                          	
 12433+ 005522                     l614:		; BSR set to: ?
 12434+                          
 12435+                          ;main.c: 774: wallMap[i][j] = 1;
 12436+ 005522  90D8               	bcf	status,0
 12437+ 005524  0109               	movlb	9	; () banked
 12438+ 005526  0109               	movlb	9	; () banked
 12439+ 005528  3526               	rlcf	((ClearMaze@j_161))&0ffh,w
 12440+ 00552A  0109               	movlb	9	; () banked
 12441+ 00552C  6F28               	movwf	(??_ClearMaze+10+0)&0ffh
 12442+ 00552E  0109               	movlb	9	; () banked
 12443+ 005530  0109               	movlb	9	; () banked
 12444+ 005532  3527               	rlcf	((ClearMaze@j_161+1))&0ffh,w
 12445+ 005534  0109               	movlb	9	; () banked
 12446+ 005536  6F29               	movwf	1+(??_ClearMaze+10+0)&0ffh
 12447+ 005538  0109               	movlb	9	; () banked
 12448+ 00553A  C922  F92A         	movff	(ClearMaze@i_160),??_ClearMaze+12+0
 12449+ 00553E  0109               	movlb	9	; () banked
 12450+ 005540  C923  F92B         	movff	(ClearMaze@i_160+1),??_ClearMaze+12+0+1
 12451+ 005544  0E05               	movlw	05h
 12452+ 005546                     u7685:
 12453+ 005546  90D8               	bcf	status,0
 12454+ 005548  0109               	movlb	9	; () banked
 12455+ 00554A  372A               	rlcf	(??_ClearMaze+12+0)&0ffh
 12456+ 00554C  372B               	rlcf	(??_ClearMaze+12+1)&0ffh
 12457+ 00554E  2EE8               	decfsz	wreg
 12458+ 005550  EFA3  F02A         	goto	u7685
 12459+ 005554  0E00               	movlw	low(0)
 12460+ 005556  0109               	movlb	9	; () banked
 12461+ 005558  252A               	addwf	(??_ClearMaze+12+0)&0ffh,w
 12462+ 00555A  0109               	movlb	9	; () banked
 12463+ 00555C  6F2C               	movwf	(??_ClearMaze+14+0)&0ffh
 12464+ 00555E  0E00               	movlw	high(0)
 12465+ 005560  0109               	movlb	9	; () banked
 12466+ 005562  212B               	addwfc	(??_ClearMaze+12+1)&0ffh,w
 12467+ 005564  0109               	movlb	9	; () banked
 12468+ 005566  6F2D               	movwf	1+(??_ClearMaze+14+0)&0ffh
 12469+ 005568  0109               	movlb	9	; () banked
 12470+ 00556A  5128               	movf	(??_ClearMaze+10+0)&0ffh,w
 12471+ 00556C  0109               	movlb	9	; () banked
 12472+ 00556E  252C               	addwf	(??_ClearMaze+14+0)&0ffh,w
 12473+ 005570  6EE9               	movwf	c:fsr0l
 12474+ 005572  0109               	movlb	9	; () banked
 12475+ 005574  5129               	movf	(??_ClearMaze+10+1)&0ffh,w
 12476+ 005576  0109               	movlb	9	; () banked
 12477+ 005578  212D               	addwfc	(??_ClearMaze+14+1)&0ffh,w
 12478+ 00557A  6EEA               	movwf	1+c:fsr0l
 12479+ 00557C  0E01               	movlw	low(01h)
 12480+ 00557E  6EEE               	movwf	postinc0
 12481+ 005580  0E00               	movlw	high(01h)
 12482+ 005582  6EED               	movwf	postdec0
 12483+                          	line	773
 12484+ 005584  0109               	movlb	9	; () banked
 12485+ 005586  0109               	movlb	9	; () banked
 12486+ 005588  4B26               	infsnz	((ClearMaze@j_161))&0ffh
 12487+ 00558A  2B27               	incf	((ClearMaze@j_161+1))&0ffh
 12488+ 00558C  0109               	movlb	9	; () banked
 12489+ 00558E  0109               	movlb	9	; () banked
 12490+ 005590  5127               	movf	((ClearMaze@j_161+1))&0ffh,w
 12491+ 005592  0A80               	xorlw	80h
 12492+ 005594  0F80               	addlw	-((0)^80h)
 12493+ 005596  0E10               	movlw	010h
 12494+ 005598  B4D8               	btfsc	status,2
 12495+ 00559A  5D26               	subwf	((ClearMaze@j_161))&0ffh,w
 12496+ 00559C  A0D8               	btfss	status,0
 12497+ 00559E  EFD3  F02A         	goto	u7691
 12498+ 0055A2  EFD5  F02A         	goto	u7690
 12499+ 0055A6                     u7691:
 12500+ 0055A6  EF91  F02A         	goto	l614
 12501+ 0055AA                     u7690:
 12502+                          	
 12503+ 0055AA                     l615:		; BSR set to: ?
 12504+                          
 12505+                          	line	772
 12506+ 0055AA  0109               	movlb	9	; () banked
 12507+ 0055AC  0109               	movlb	9	; () banked
 12508+ 0055AE  4B22               	infsnz	((ClearMaze@i_160))&0ffh
 12509+ 0055B0  2B23               	incf	((ClearMaze@i_160+1))&0ffh
 12510+ 0055B2  0109               	movlb	9	; () banked
 12511+ 0055B4  0109               	movlb	9	; () banked
 12512+ 0055B6  5123               	movf	((ClearMaze@i_160+1))&0ffh,w
 12513+ 0055B8  0A80               	xorlw	80h
 12514+ 0055BA  0F80               	addlw	-((0)^80h)
 12515+ 0055BC  0E10               	movlw	010h
 12516+ 0055BE  B4D8               	btfsc	status,2
 12517+ 0055C0  5D22               	subwf	((ClearMaze@i_160))&0ffh,w
 12518+ 0055C2  A0D8               	btfss	status,0
 12519+ 0055C4  EFE6  F02A         	goto	u7701
 12520+ 0055C8  EFE8  F02A         	goto	u7700
 12521+ 0055CC                     u7701:
 12522+ 0055CC  EF79  F02A         	goto	l611
 12523+ 0055D0                     u7700:
 12524+                          	
 12525+ 0055D0                     l612:		; BSR set to: ?
 12526+                          
 12527+                          	line	775
 12528+                          	
 12529+ 0055D0                     l604:		; BSR set to: ?
 12530+                          
 12531+                          	line	777
 12532+                          ;main.c: 775: }
 12533+                          ;main.c: 777: }
 12534+ 0055D0                     l599:
 12535+                          			; BSR set to: ?
 12536+                          
 12537+ 0055D0  0012               	return
 12538+                          	opt stack 0
 12539+                          GLOBAL __end_of_ClearMaze
 12540+ 0055D2                     	__end_of_ClearMaze:
 12541+                          	FNSIZE	_ClearMaze,16,4
 12542+                          ; =============== function _ClearMaze ends =====
      +                          =======
 12543+                          
 12544+                          	signat	_ClearMaze,8312
 12545+                          	global	_SaveMaze
 12546+                          	global	??_SaveMaze
 12547+                          	global	?_SaveMaze
 12548+                          
 12549+                          ; *************** function _SaveMaze ***********
      +                          ******
 12550+                          ; Defined at:
 12551+                          ;		line 781 in file "C:\Users\tab\Desktop\electr
      +                          onics\micro_mouse\WORKING_SAC\main.c"
 12552+                          ; Parameters:
 12553+                          ;		None
 12554+                          ; Auto variables:
 12555+                          ;		i           	       	type: int 
 12556+                          ;		i           	       	type: int 
 12557+                          ;		j           	       	type: int 
 12558+                          ;		j           	       	type: int 
 12559+                          ; Return value:
 12560+                          ;		type: void 
 12561+                          ;		size: 0
 12562+                          ; Registers used:
 12563+                          ;		wreg, fsr0l, fsr0h, status,2, status,0, cstac
      +                          k
 12564+                          ; Tracked objects:
 12565+                          ;		On entry : 0/0
 12566+                          ;		On exit  : 0/0
 12567+                          ;		Unchanged: 0/0
 12568+                          ; Data sizes:
 12569+                          ;		Autos:    8
 12570+                          ;		Params:   0
 12571+                          ;		Temp:     8
 12572+                          ;		Total:   16
 12573+                          ; This function calls:
 12574+                          ;		_eeprom_write
 12575+                          ; This function is called by:
 12576+                          ;		_EndMaze
 12577+                          ; This function uses a non-reentrant model
 12578+                          ; 
 12579+                                  psect   text12,class=CODE,space=0,reloc=
      +                          2
 12580+                          
 12581+                          	opt lm
 12582+                          	file	"C:\Users\tab\Desktop\electronics\micro_mo
      +                          use\WORKING_SAC\main.c"
 12583+                          	line	781
 12584+ 000000                     	__size_of_SaveMaze	equ	__end_of_SaveMaze-_SaveM
      +                          aze
 12585+                          ;main.c: 781: void SaveMaze(){
 12586+                          	
 12587+ 0055D2                     _SaveMaze:		; BSR set to: ?
 12588+                          
 12589+                          	opt stack 27
 12590+                          	line	783
 12591+ 0055D2  0E00               	movlw	low(0)
 12592+ 0055D4  0109               	movlb	9	; () banked
 12593+ 0055D6  0109               	movlb	9	; () banked
 12594+ 0055D8  6F30               	movwf	((SaveMaze@i))&0ffh
 12595+ 0055DA  0E00               	movlw	high(0)
 12596+ 0055DC  0109               	movlb	9	; () banked
 12597+ 0055DE  6F31               	movwf	((SaveMaze@i+1))&0ffh
 12598+ 0055E0  0109               	movlb	9	; () banked
 12599+ 0055E2  0109               	movlb	9	; () banked
 12600+ 0055E4  5131               	movf	((SaveMaze@i+1))&0ffh,w
 12601+ 0055E6  0A80               	xorlw	80h
 12602+ 0055E8  0F80               	addlw	-((0)^80h)
 12603+ 0055EA  0E10               	movlw	010h
 12604+ 0055EC  B4D8               	btfsc	status,2
 12605+ 0055EE  5D30               	subwf	((SaveMaze@i))&0ffh,w
 12606+ 0055F0  A0D8               	btfss	status,0
 12607+ 0055F2  EFFD  F02A         	goto	u7841
 12608+ 0055F6  EFFF  F02A         	goto	u7840
 12609+ 0055FA                     u7841:
 12610+ 0055FA  EF01  F02B         	goto	l618
 12611+ 0055FE                     u7840:
 12612+ 0055FE  EF91  F02B         	goto	l619
 12613+                          	line	784
 12614+                          	
 12615+ 005602                     l618:		; BSR set to: ?
 12616+                          
 12617+                          ;main.c: 784: for(int j = 0; j < 16; j++)
 12618+ 005602  0E00               	movlw	low(0)
 12619+ 005604  0109               	movlb	9	; () banked
 12620+ 005606  0109               	movlb	9	; () banked
 12621+ 005608  6F34               	movwf	((SaveMaze@j))&0ffh
 12622+ 00560A  0E00               	movlw	high(0)
 12623+ 00560C  0109               	movlb	9	; () banked
 12624+ 00560E  6F35               	movwf	((SaveMaze@j+1))&0ffh
 12625+ 005610  0109               	movlb	9	; () banked
 12626+ 005612  0109               	movlb	9	; () banked
 12627+ 005614  5135               	movf	((SaveMaze@j+1))&0ffh,w
 12628+ 005616  0A80               	xorlw	80h
 12629+ 005618  0F80               	addlw	-((0)^80h)
 12630+ 00561A  0E10               	movlw	010h
 12631+ 00561C  B4D8               	btfsc	status,2
 12632+ 00561E  5D34               	subwf	((SaveMaze@j))&0ffh,w
 12633+ 005620  A0D8               	btfss	status,0
 12634+ 005622  EF15  F02B         	goto	u7851
 12635+ 005626  EF17  F02B         	goto	u7850
 12636+ 00562A                     u7851:
 12637+ 00562A  EF19  F02B         	goto	l621
 12638+ 00562E                     u7850:
 12639+ 00562E  EF7E  F02B         	goto	l622
 12640+                          	line	785
 12641+                          	
 12642+ 005632                     l621:		; BSR set to: ?
 12643+                          
 12644+                          ;main.c: 785: eeprom_write((i*16)+j, mazeMap[i][
      +                          j]);
 12645+ 005632  90D8               	bcf	status,0
 12646+ 005634  0109               	movlb	9	; () banked
 12647+ 005636  0109               	movlb	9	; () banked
 12648+ 005638  3534               	rlcf	((SaveMaze@j))&0ffh,w
 12649+ 00563A  0109               	movlb	9	; () banked
 12650+ 00563C  6F38               	movwf	(??_SaveMaze+8+0)&0ffh
 12651+ 00563E  0109               	movlb	9	; () banked
 12652+ 005640  0109               	movlb	9	; () banked
 12653+ 005642  3535               	rlcf	((SaveMaze@j+1))&0ffh,w
 12654+ 005644  0109               	movlb	9	; () banked
 12655+ 005646  6F39               	movwf	1+(??_SaveMaze+8+0)&0ffh
 12656+ 005648  0109               	movlb	9	; () banked
 12657+ 00564A  C930  F93A         	movff	(SaveMaze@i),??_SaveMaze+10+0
 12658+ 00564E  0109               	movlb	9	; () banked
 12659+ 005650  C931  F93B         	movff	(SaveMaze@i+1),??_SaveMaze+10+0+1
 12660+ 005654  0E05               	movlw	05h
 12661+ 005656                     u7865:
 12662+ 005656  90D8               	bcf	status,0
 12663+ 005658  0109               	movlb	9	; () banked
 12664+ 00565A  373A               	rlcf	(??_SaveMaze+10+0)&0ffh
 12665+ 00565C  373B               	rlcf	(??_SaveMaze+10+1)&0ffh
 12666+ 00565E  2EE8               	decfsz	wreg
 12667+ 005660  EF2B  F02B         	goto	u7865
 12668+ 005664  0E00               	movlw	low(512)
 12669+ 005666  0109               	movlb	9	; () banked
 12670+ 005668  253A               	addwf	(??_SaveMaze+10+0)&0ffh,w
 12671+ 00566A  0109               	movlb	9	; () banked
 12672+ 00566C  6F3C               	movwf	(??_SaveMaze+12+0)&0ffh
 12673+ 00566E  0E02               	movlw	high(512)
 12674+ 005670  0109               	movlb	9	; () banked
 12675+ 005672  213B               	addwfc	(??_SaveMaze+10+1)&0ffh,w
 12676+ 005674  0109               	movlb	9	; () banked
 12677+ 005676  6F3D               	movwf	1+(??_SaveMaze+12+0)&0ffh
 12678+ 005678  0109               	movlb	9	; () banked
 12679  00567A  5138               	movf	(??_SaveMaze+8+0)&0ffh,w
 12680  00567C  0109               	movlb	9	; () banked
 12681  00567E  253C               	addwf	(??_SaveMaze+12+0)&0ffh,w
 12682  005680  6EE9               	movwf	c:fsr0l
 12683  005682  0109               	movlb	9	; () banked
 12684  005684  5139               	movf	(??_SaveMaze+8+1)&0ffh,w
 12685  005686  0109               	movlb	9	; () banked
 12686  005688  213D               	addwfc	(??_SaveMaze+12+1)&0ffh,w
 12687  00568A  6EEA               	movwf	1+c:fsr0l
 12688  00568C  50EF               	movf	indf0,w
 12689  00568E  0109               	movlb	9	; () banked
 12690  005690  0109               	movlb	9	; () banked
 12691  005692  6F42               	movwf	(0+(?_eeprom_write+02h))&0ffh
 12692  005694  0109               	movlb	9	; () banked
 12693  005696  C930  F93E         	movff	(SaveMaze@i),??_SaveMaze+14+0
 12694  00569A  0109               	movlb	9	; () banked
 12695  00569C  C931  F93F         	movff	(SaveMaze@i+1),??_SaveMaze+14+0+1
 12696  0056A0  0109               	movlb	9	; () banked
 12697  0056A2  3B3E               	swapf	(??_SaveMaze+14+0)&0ffh
 12698  0056A4  3B3F               	swapf	(??_SaveMaze+14+1)&0ffh
 12699  0056A6  0EF0               	movlw	0f0h
 12700  0056A8  173F               	andwf	(??_SaveMaze+14+1)&0ffh
 12701  0056AA  513E               	movf	(??_SaveMaze+14+0)&0ffh,w
 12702  0056AC  0B0F               	andlw	0fh
 12703  0056AE  133F               	iorwf	(??_SaveMaze+14+1)&0ffh
 12704  0056B0  0EF0               	movlw	0f0h
 12705  0056B2  173E               	andwf	(??_SaveMaze+14+0)&0ffh
 12706  0056B4  0109               	movlb	9	; () banked
 12707  0056B6  0109               	movlb	9	; () banked
 12708  0056B8  5134               	movf	((SaveMaze@j))&0ffh,w
 12709  0056BA  0109               	movlb	9	; () banked
 12710  0056BC  253E               	addwf	(??_SaveMaze+14+0)&0ffh,w
 12711  0056BE  0109               	movlb	9	; () banked
 12712                           	
 12713  0056C0  0109               	movlb	9	; () banked
 12714  0056C2  6F40               	movwf	((?_eeprom_write))&0ffh
 12715  0056C4  0109               	movlb	9	; () banked
 12716  0056C6  0109               	movlb	9	; () banked
 12717  0056C8  5135               	movf	((SaveMaze@j+1))&0ffh,w
 12718  0056CA  0109               	movlb	9	; () banked
 12719  0056CC  213F               	addwfc	(??_SaveMaze+14+1)&0ffh,w
 12720  0056CE  0109               	movlb	9	; () banked
 12721  0056D0  6F41               	movwf	1+((?_eeprom_write))&0ffh
 12722  0056D2  EC86  F02F         	call	_eeprom_write	;wreg free
 12723                           	line	784
 12724  0056D6  0109               	movlb	9	; () banked
 12725  0056D8  0109               	movlb	9	; () banked
 12726  0056DA  4B34               	infsnz	((SaveMaze@j))&0ffh
 12727  0056DC  2B35               	incf	((SaveMaze@j+1))&0ffh
 12728  0056DE  0109               	movlb	9	; () banked
 12729  0056E0  0109               	movlb	9	; () banked
 12730  0056E2  5135               	movf	((SaveMaze@j+1))&0ffh,w
 12731  0056E4  0A80               	xorlw	80h
 12732  0056E6  0F80               	addlw	-((0)^80h)
 12733  0056E8  0E10               	movlw	010h
 12734  0056EA  B4D8               	btfsc	status,2
 12735  0056EC  5D34               	subwf	((SaveMaze@j))&0ffh,w
 12736  0056EE  A0D8               	btfss	status,0
 12737  0056F0  EF7C  F02B         	goto	u7871
 12738  0056F4  EF7E  F02B         	goto	u7870
 12739  0056F8                     u7871:
 12740  0056F8  EF19  F02B         	goto	l621
 12741  0056FC                     u7870:
 12742                           	
 12743  0056FC                     l622:		; BSR set to: ?
 12744                           
 12745                           	line	783
 12746  0056FC  0109               	movlb	9	; () banked
 12747  0056FE  0109               	movlb	9	; () banked
 12748  005700  4B30               	infsnz	((SaveMaze@i))&0ffh
 12749  005702  2B31               	incf	((SaveMaze@i+1))&0ffh
 12750  005704  0109               	movlb	9	; () banked
 12751  005706  0109               	movlb	9	; () banked
 12752  005708  5131               	movf	((SaveMaze@i+1))&0ffh,w
 12753  00570A  0A80               	xorlw	80h
 12754  00570C  0F80               	addlw	-((0)^80h)
 12755  00570E  0E10               	movlw	010h
 12756  005710  B4D8               	btfsc	status,2
 12757  005712  5D30               	subwf	((SaveMaze@i))&0ffh,w
 12758  005714  A0D8               	btfss	status,0
 12759  005716  EF8F  F02B         	goto	u7881
 12760  00571A  EF91  F02B         	goto	u7880
 12761  00571E                     u7881:
 12762  00571E  EF01  F02B         	goto	l618
 12763  005722                     u7880:
 12764                           	
 12765  005722                     l619:		; BSR set to: ?
 12766                           
 12767                           	line	788
 12768                           ;main.c: 788: for(int i = 0; i < 16; i++)
 12769  005722  0E00               	movlw	low(0)
 12770  005724  0109               	movlb	9	; () banked
 12771  005726  0109               	movlb	9	; () banked
 12772  005728  6F32               	movwf	((SaveMaze@i_165))&0ffh
 12773  00572A  0E00               	movlw	high(0)
 12774  00572C  0109               	movlb	9	; () banked
 12775  00572E  6F33               	movwf	((SaveMaze@i_165+1))&0ffh
 12776  005730  0109               	movlb	9	; () banked
 12777  005732  0109               	movlb	9	; () banked
 12778  005734  5133               	movf	((SaveMaze@i_165+1))&0ffh,w
 12779  005736  0A80               	xorlw	80h
 12780  005738  0F80               	addlw	-((0)^80h)
 12781  00573A  0E10               	movlw	010h
 12782  00573C  B4D8               	btfsc	status,2
 12783  00573E  5D32               	subwf	((SaveMaze@i_165))&0ffh,w
 12784  005740  A0D8               	btfss	status,0
 12785  005742  EFA5  F02B         	goto	u7891
 12786  005746  EFA7  F02B         	goto	u7890
 12787  00574A                     u7891:
 12788  00574A  EFA9  F02B         	goto	l624
 12789  00574E                     u7890:
 12790  00574E  EF35  F02C         	goto	l625
 12791                           	line	789
 12792                           	
 12793  005752                     l624:		; BSR set to: ?
 12794                           
 12795                           ;main.c: 789: for(int j = 0; j < 16; j++)
 12796  005752  0E00               	movlw	low(0)
 12797  005754  0109               	movlb	9	; () banked
 12798  005756  0109               	movlb	9	; () banked
 12799  005758  6F36               	movwf	((SaveMaze@j_166))&0ffh
 12800  00575A  0E00               	movlw	high(0)
 12801  00575C  0109               	movlb	9	; () banked
 12802  00575E  6F37               	movwf	((SaveMaze@j_166+1))&0ffh
 12803  005760  0109               	movlb	9	; () banked
 12804  005762  0109               	movlb	9	; () banked
 12805  005764  5137               	movf	((SaveMaze@j_166+1))&0ffh,w
 12806  005766  0A80               	xorlw	80h
 12807  005768  0F80               	addlw	-((0)^80h)
 12808  00576A  0E10               	movlw	010h
 12809  00576C  B4D8               	btfsc	status,2
 12810  00576E  5D36               	subwf	((SaveMaze@j_166))&0ffh,w
 12811  005770  A0D8               	btfss	status,0
 12812  005772  EFBD  F02B         	goto	u7901
 12813  005776  EFBF  F02B         	goto	u7900
 12814  00577A                     u7901:
 12815  00577A  EFC1  F02B         	goto	l627
 12816  00577E                     u7900:
 12817  00577E  EF22  F02C         	goto	l628
 12818                           	line	790
 12819                           	
 12820  005782                     l627:		; BSR set to: ?
 12821                           
 12822                           ;main.c: 790: eeprom_write(i+j+256, wallMap[i][j
                                 ]);
 12823  005782  90D8               	bcf	status,0
 12824  005784  0109               	movlb	9	; () banked
 12825  005786  0109               	movlb	9	; () banked
 12826  005788  3536               	rlcf	((SaveMaze@j_166))&0ffh,w
 12827  00578A  0109               	movlb	9	; () banked
 12828  00578C  6F38               	movwf	(??_SaveMaze+8+0)&0ffh
 12829  00578E  0109               	movlb	9	; () banked
 12830  005790  0109               	movlb	9	; () banked
 12831  005792  3537               	rlcf	((SaveMaze@j_166+1))&0ffh,w
 12832  005794  0109               	movlb	9	; () banked
 12833  005796  6F39               	movwf	1+(??_SaveMaze+8+0)&0ffh
 12834  005798  0109               	movlb	9	; () banked
 12835  00579A  C932  F93A         	movff	(SaveMaze@i_165),??_SaveMaze+10+0
 12836  00579E  0109               	movlb	9	; () banked
 12837  0057A0  C933  F93B         	movff	(SaveMaze@i_165+1),??_SaveMaze+10+0+1
 12838  0057A4  0E05               	movlw	05h
 12839  0057A6                     u7915:
 12840  0057A6  90D8               	bcf	status,0
 12841  0057A8  0109               	movlb	9	; () banked
 12842  0057AA  373A               	rlcf	(??_SaveMaze+10+0)&0ffh
 12843  0057AC  373B               	rlcf	(??_SaveMaze+10+1)&0ffh
 12844  0057AE  2EE8               	decfsz	wreg
 12845  0057B0  EFD3  F02B         	goto	u7915
 12846  0057B4  0E00               	movlw	low(0)
 12847  0057B6  0109               	movlb	9	; () banked
 12848  0057B8  253A               	addwf	(??_SaveMaze+10+0)&0ffh,w
 12849  0057BA  0109               	movlb	9	; () banked
 12850  0057BC  6F3C               	movwf	(??_SaveMaze+12+0)&0ffh
 12851  0057BE  0E00               	movlw	high(0)
 12852  0057C0  0109               	movlb	9	; () banked
 12853  0057C2  213B               	addwfc	(??_SaveMaze+10+1)&0ffh,w
 12854  0057C4  0109               	movlb	9	; () banked
 12855  0057C6  6F3D               	movwf	1+(??_SaveMaze+12+0)&0ffh
 12856  0057C8  0109               	movlb	9	; () banked
 12857  0057CA  5138               	movf	(??_SaveMaze+8+0)&0ffh,w
 12858  0057CC  0109               	movlb	9	; () banked
 12859  0057CE  253C               	addwf	(??_SaveMaze+12+0)&0ffh,w
 12860  0057D0  6EE9               	movwf	c:fsr0l
 12861  0057D2  0109               	movlb	9	; () banked
 12862  0057D4  5139               	movf	(??_SaveMaze+8+1)&0ffh,w
 12863  0057D6  0109               	movlb	9	; () banked
 12864  0057D8  213D               	addwfc	(??_SaveMaze+12+1)&0ffh,w
 12865  0057DA  6EEA               	movwf	1+c:fsr0l
 12866  0057DC  50EF               	movf	indf0,w
 12867  0057DE  0109               	movlb	9	; () banked
 12868  0057E0  0109               	movlb	9	; () banked
 12869  0057E2  6F42               	movwf	(0+(?_eeprom_write+02h))&0ffh
 12870  0057E4  0109               	movlb	9	; () banked
 12871  0057E6  C932  F93E         	movff	(SaveMaze@i_165),??_SaveMaze+14+0
 12872  0057EA  0109               	movlb	9	; () banked
 12873  0057EC  C933  F93F         	movff	(SaveMaze@i_165+1),??_SaveMaze+14+0+1
 12874  0057F0  0109               	movlb	9	; () banked
 12875  0057F2  0109               	movlb	9	; () banked
 12876  0057F4  5136               	movf	((SaveMaze@j_166))&0ffh,w
 12877  0057F6  0109               	movlb	9	; () banked
 12878  0057F8  273E               	addwf	(??_SaveMaze+14+0)&0ffh
 12879  0057FA  0109               	movlb	9	; () banked
 12880  0057FC  0109               	movlb	9	; () banked
 12881  0057FE  5137               	movf	((SaveMaze@j_166+1))&0ffh,w
 12882  005800  0109               	movlb	9	; () banked
 12883  005802  233F               	addwfc	(??_SaveMaze+14+1)&0ffh
 12884  005804  0E00               	movlw	low(0100h)
 12885  005806  0109               	movlb	9	; () banked
 12886  005808  253E               	addwf	(??_SaveMaze+14+0)&0ffh,w
 12887  00580A  0109               	movlb	9	; () banked
 12888                           	
 12889  00580C  0109               	movlb	9	; () banked
 12890  00580E  6F40               	movwf	((?_eeprom_write))&0ffh
 12891  005810  0E01               	movlw	high(0100h)
 12892  005812  0109               	movlb	9	; () banked
 12893  005814  213F               	addwfc	(??_SaveMaze+14+1)&0ffh,w
 12894  005816  0109               	movlb	9	; () banked
 12895  005818  6F41               	movwf	1+((?_eeprom_write))&0ffh
 12896  00581A  EC86  F02F         	call	_eeprom_write	;wreg free
 12897                           	line	789
 12898  00581E  0109               	movlb	9	; () banked
 12899  005820  0109               	movlb	9	; () banked
 12900  005822  4B36               	infsnz	((SaveMaze@j_166))&0ffh
 12901  005824  2B37               	incf	((SaveMaze@j_166+1))&0ffh
 12902  005826  0109               	movlb	9	; () banked
 12903  005828  0109               	movlb	9	; () banked
 12904  00582A  5137               	movf	((SaveMaze@j_166+1))&0ffh,w
 12905  00582C  0A80               	xorlw	80h
 12906  00582E  0F80               	addlw	-((0)^80h)
 12907  005830  0E10               	movlw	010h
 12908  005832  B4D8               	btfsc	status,2
 12909  005834  5D36               	subwf	((SaveMaze@j_166))&0ffh,w
 12910  005836  A0D8               	btfss	status,0
 12911  005838  EF20  F02C         	goto	u7921
 12912  00583C  EF22  F02C         	goto	u7920
 12913  005840                     u7921:
 12914  005840  EFC1  F02B         	goto	l627
 12915  005844                     u7920:
 12916                           	
 12917  005844                     l628:		; BSR set to: ?
 12918                           
 12919                           	line	788
 12920  005844  0109               	movlb	9	; () banked
 12921  005846  0109               	movlb	9	; () banked
 12922  005848  4B32               	infsnz	((SaveMaze@i_165))&0ffh
 12923  00584A  2B33               	incf	((SaveMaze@i_165+1))&0ffh
 12924  00584C  0109               	movlb	9	; () banked
 12925  00584E  0109               	movlb	9	; () banked
 12926  005850  5133               	movf	((SaveMaze@i_165+1))&0ffh,w
 12927  005852  0A80               	xorlw	80h
 12928  005854  0F80               	addlw	-((0)^80h)
 12929  005856  0E10               	movlw	010h
 12930  005858  B4D8               	btfsc	status,2
 12931  00585A  5D32               	subwf	((SaveMaze@i_165))&0ffh,w
 12932  00585C  A0D8               	btfss	status,0
 12933  00585E  EF33  F02C         	goto	u7931
 12934  005862  EF35  F02C         	goto	u7930
 12935  005866                     u7931:
 12936  005866  EFA9  F02B         	goto	l624
 12937  00586A                     u7930:
 12938                           	
 12939  00586A                     l625:		; BSR set to: ?
 12940                           
 12941                           	line	793
 12942                           ;main.c: 793: eeprom_write(513, mazeStart);
 12943  00586A  C817 F942          	movff	(2071),0+(?_eeprom_write+02h)
 12944  00586E  0E01               	movlw	low(0201h)
 12945  005870  0109               	movlb	9	; () banked
 12946  005872  0109               	movlb	9	; () banked
 12947  005874  6F40               	movwf	((?_eeprom_write))&0ffh
 12948  005876  0E02               	movlw	high(0201h)
 12949  005878  0109               	movlb	9	; () banked
 12950  00587A  6F41               	movwf	((?_eeprom_write+1))&0ffh
 12951  00587C  EC86  F02F         	call	_eeprom_write	;wreg free
 12952                           	line	794
 12953                           ;main.c: 794: }
 12954  005880                     l617:
 12955                           			; BSR set to: ?
 12956                           
 12957  005880  0012               	return
 12958                           	opt stack 0
 12959                           GLOBAL __end_of_SaveMaze
 12960  005882                     	__end_of_SaveMaze:
 12961                           	FNSIZE	_SaveMaze,16,0
 12962                           ; =============== function _SaveMaze ends ======
                                 ======
 12963                           
 12964                           	signat	_SaveMaze,88
 12965                           	global	_MOVE
 12966                           	global	??_MOVE
 12967                           	global	?_MOVE
 12968                           
 12969                           ; *************** function _MOVE ***************
                                 **
 12970                           ; Defined at:
 12971                           ;		line 874 in file "C:\Users\tab\Desktop\electr
                                 onics\micro_mouse\WORKING_SAC\main.c"
 12972                           ; Parameters:
 12973                           ;		None
 12974                           ; Auto variables:
 12975                           ;		j           	       	type: int 
 12976                           ; Return value:
 12977                           ;		type: void 
 12978                           ;		size: 0
 12979                           ; Registers used:
 12980                           ;		wreg, fsr0l, fsr0h, status,2, status,0, cstac
                                 k
 12981                           ; Tracked objects:
 12982                           ;		On entry : 0/0
 12983                           ;		On exit  : 0/0
 12984                           ;		Unchanged: 0/0
 12985                           ; Data sizes:
 12986                           ;		Autos:    2
 12987                           ;		Params:   0
 12988                           ;		Temp:     2
 12989                           ;		Total:    4
 12990                           ; This function calls:
 12991                           ;		_DelayMs
 12992                           ;		_SteerLeft
 12993                           ;		_SteerRight
 12994                           ; This function is called by:
 12995                           ;		_SolveMaze
 12996                           ;		_EndMaze
 12997                           ; This function uses a non-reentrant model
 12998                           ; 
 12999                                   psect   text13,class=CODE,space=0,reloc=
                                 2
 13000                           
 13001                           	opt lm
 13002                           	file	"C:\Users\tab\Desktop\electronics\micro_mo
                                 use\WORKING_SAC\main.c"
 13003                           	line	874
 13004  000000                     	__size_of_MOVE	equ	__end_of_MOVE-_MOVE
 13005                           ;main.c: 874: void MOVE(){
 13006                           	
 13007  004878                     _MOVE:		; BSR set to: ?
 13008                           
 13009                           	opt stack 27
 13010                           	line	875
 13011  004878  0108               	movlb	8	; () banked
 13012  00487A  0108               	movlb	8	; () banked
 13013  00487C  4B15               	infsnz	((2069))&0ffh
 13014  00487E  2B16               	incf	((2069+1))&0ffh
 13015                           	line	876
 13016                           ;main.c: 876: backMove[backMoveCount] = 1;
 13017  004880  90D8               	bcf	status,0
 13018  004882  0108               	movlb	8	; () banked
 13019  004884  0108               	movlb	8	; () banked
 13020  004886  3515               	rlcf	((2069))&0ffh,w
 13021  004888  0109               	movlb	9	; () banked
 13022  00488A  6F32               	movwf	(??_MOVE+2+0)&0ffh
 13023  00488C  0108               	movlb	8	; () banked
 13024  00488E  0108               	movlb	8	; () banked
 13025  004890  3516               	rlcf	((2069+1))&0ffh,w
 13026  004892  0109               	movlb	9	; () banked
 13027  004894  6F33               	movwf	1+(??_MOVE+2+0)&0ffh
 13028  004896  0E00               	movlw	low(1024)
 13029  004898  0109               	movlb	9	; () banked
 13030  00489A  2532               	addwf	(??_MOVE+2+0)&0ffh,w
 13031  00489C  6EE9               	movwf	c:fsr0l
 13032  00489E  0E04               	movlw	high(1024)
 13033  0048A0  0109               	movlb	9	; () banked
 13034  0048A2  2133               	addwfc	(??_MOVE+2+1)&0ffh,w
 13035  0048A4  6EEA               	movwf	1+c:fsr0l
 13036  0048A6  0E01               	movlw	low(01h)
 13037  0048A8  6EEE               	movwf	postinc0
 13038  0048AA  0E00               	movlw	high(01h)
 13039  0048AC  6EED               	movwf	postdec0
 13040                           	line	877
 13041                           ;main.c: 877: DelayMs(100);
 13042  0048AE  0109               	movlb	9	; () banked
 13043  0048B0  6F32               	movwf	(??_MOVE+2+0)&0ffh
 13044  0048B2  0E64               	movlw	low(064h)
 13045  0048B4  0109               	movlb	9	; () banked
 13046  0048B6  0109               	movlb	9	; () banked
 13047  0048B8  6F35               	movwf	((?_DelayMs))&0ffh
 13048  0048BA  0109               	movlb	9	; () banked
 13049  0048BC  5132               	movf	(??_MOVE+2+0)&0ffh,w
 13050  0048BE  ECD9  F02F         	call	_DelayMs	;wreg free
 13051                           	line	879
 13052                           ;main.c: 878: int j;
 13053                           ;main.c: 879: LATD = 0b00001010;
 13054  0048C2  0E0A               	movlw	low(0Ah)
 13055  0048C4  6E8C               	movwf	((c:3980)),c	;volatile
 13056                           	line	881
 13057                           ;main.c: 881: for(j = 0; j <11100; j++);
 13058  0048C6  0E00               	movlw	low(0)
 13059  0048C8  0109               	movlb	9	; () banked
 13060  0048CA  0109               	movlb	9	; () banked
 13061  0048CC  6F30               	movwf	((MOVE@j))&0ffh
 13062  0048CE  0E00               	movlw	high(0)
 13063  0048D0  0109               	movlb	9	; () banked
 13064  0048D2  6F31               	movwf	((MOVE@j+1))&0ffh
 13065  0048D4  0109               	movlb	9	; () banked
 13066  0048D6  0109               	movlb	9	; () banked
 13067  0048D8  5131               	movf	((MOVE@j+1))&0ffh,w
 13068  0048DA  0A80               	xorlw	80h
 13069  0048DC  0F55               	addlw	-((02Bh)^80h)
 13070  0048DE  0E5C               	movlw	05Ch
 13071  0048E0  B4D8               	btfsc	status,2
 13072  0048E2  5D30               	subwf	((MOVE@j))&0ffh,w
 13073  0048E4  A0D8               	btfss	status,0
 13074  0048E6  EF77  F024         	goto	u10281
 13075  0048EA  EF79  F024         	goto	u10280
 13076  0048EE                     u10281:
 13077  0048EE  EF7B  F024         	goto	l670
 13078  0048F2                     u10280:
 13079  0048F2  EF8E  F024         	goto	l671
 13080                           	
 13081  0048F6                     l670:		; BSR set to: ?
 13082                           
 13083  0048F6  0109               	movlb	9	; () banked
 13084  0048F8  0109               	movlb	9	; () banked
 13085  0048FA  4B30               	infsnz	((MOVE@j))&0ffh
 13086  0048FC  2B31               	incf	((MOVE@j+1))&0ffh
 13087  0048FE  0109               	movlb	9	; () banked
 13088  004900  0109               	movlb	9	; () banked
 13089  004902  5131               	movf	((MOVE@j+1))&0ffh,w
 13090  004904  0A80               	xorlw	80h
 13091  004906  0F55               	addlw	-((02Bh)^80h)
 13092  004908  0E5C               	movlw	05Ch
 13093  00490A  B4D8               	btfsc	status,2
 13094  00490C  5D30               	subwf	((MOVE@j))&0ffh,w
 13095  00490E  A0D8               	btfss	status,0
 13096  004910  EF8C  F024         	goto	u10291
 13097  004914  EF8E  F024         	goto	u10290
 13098  004918                     u10291:
 13099  004918  EF7B  F024         	goto	l670
 13100  00491C                     u10290:
 13101                           	
 13102  00491C                     l671:		; BSR set to: ?
 13103                           
 13104                           	line	883
 13105                           ;main.c: 883: for(j = 0; j < 10000; j++){
 13106  00491C  0E00               	movlw	low(0)
 13107  00491E  0109               	movlb	9	; () banked
 13108  004920  0109               	movlb	9	; () banked
 13109  004922  6F30               	movwf	((MOVE@j))&0ffh
 13110  004924  0E00               	movlw	high(0)
 13111  004926  0109               	movlb	9	; () banked
 13112  004928  6F31               	movwf	((MOVE@j+1))&0ffh
 13113  00492A  0109               	movlb	9	; () banked
 13114  00492C  0109               	movlb	9	; () banked
 13115  00492E  5131               	movf	((MOVE@j+1))&0ffh,w
 13116  004930  0A80               	xorlw	80h
 13117  004932  0F59               	addlw	-((027h)^80h)
 13118  004934  0E10               	movlw	010h
 13119  004936  B4D8               	btfsc	status,2
 13120  004938  5D30               	subwf	((MOVE@j))&0ffh,w
 13121  00493A  A0D8               	btfss	status,0
 13122  00493C  EFA2  F024         	goto	u10301
 13123  004940  EFA4  F024         	goto	u10300
 13124  004944                     u10301:
 13125  004944  EFA6  F024         	goto	l673
 13126  004948                     u10300:
 13127  004948  EFE8  F024         	goto	l674
 13128                           	
 13129  00494C                     l673:		; BSR set to: ?
 13130                           
 13131                           	line	884
 13132                           ;main.c: 884: if(intFlag == 1){
 13133  00494C  0108               	movlb	8	; () banked
 13134  00494E  0108               	movlb	8	; () banked
 13135  004950  0504               	decf	((2052))&0ffh,w
 13136  004952  1105               	iorwf ((2052+1))&0ffh,w
 13137                           
 13138  004954  A4D8               	btfss	status,2
 13139  004956  EFAF  F024         	goto	u10311
 13140  00495A  EFB1  F024         	goto	u10310
 13141  00495E                     u10311:
 13142  00495E  EFBE  F024         	goto	l676
 13143  004962                     u10310:
 13144                           	line	885
 13145                           ;main.c: 885: SteerLeft();
 13146  004962  ECFD  F02F         	call	_SteerLeft	;wreg free
 13147                           	line	886
 13148                           ;main.c: 886: intFlag = 0;
 13149  004966  0E00               	movlw	low(0)
 13150  004968  0108               	movlb	8	; () banked
 13151  00496A  0108               	movlb	8	; () banked
 13152  00496C  6F04               	movwf	((2052))&0ffh
 13153  00496E  0E00               	movlw	high(0)
 13154  004970  0108               	movlb	8	; () banked
 13155  004972  6F05               	movwf	((2052+1))&0ffh
 13156                           	line	887
 13157                           ;main.c: 887: LATD = 0b00001010;
 13158  004974  0E0A               	movlw	low(0Ah)
 13159  004976  6E8C               	movwf	((c:3980)),c	;volatile
 13160                           	line	888
 13161                           ;main.c: 888: }
 13162  004978  EFD5  F024         	goto	l677
 13163                           	line	889
 13164                           	
 13165  00497C                     l676:		; BSR set to: ?
 13166                           
 13167                           ;main.c: 889: else if(intFlag == 2){
 13168  00497C  0108               	movlb	8	; () banked
 13169  00497E  0108               	movlb	8	; () banked
 13170  004980  5104               	movf	((2052))&0ffh,w
 13171  004982  0A02               	xorlw	2
 13172  004984  1105               	iorwf ((2052+1))&0ffh,w
 13173                           
 13174  004986  A4D8               	btfss	status,2
 13175  004988  EFC8  F024         	goto	u10321
 13176  00498C  EFCA  F024         	goto	u10320
 13177  004990                     u10321:
 13178  004990  EFD5  F024         	goto	l677
 13179  004994                     u10320:
 13180                           	line	890
 13181                           ;main.c: 890: SteerRight();
 13182  004994  EC20  F030         	call	_SteerRight	;wreg free
 13183                           	line	891
 13184                           ;main.c: 891: intFlag = 0;
 13185  004998  0E00               	movlw	low(0)
 13186  00499A  0108               	movlb	8	; () banked
 13187  00499C  0108               	movlb	8	; () banked
 13188  00499E  6F04               	movwf	((2052))&0ffh
 13189  0049A0  0E00               	movlw	high(0)
 13190  0049A2  0108               	movlb	8	; () banked
 13191  0049A4  6F05               	movwf	((2052+1))&0ffh
 13192                           	line	892
 13193                           ;main.c: 892: LATD = 0b00001010;
 13194  0049A6  0E0A               	movlw	low(0Ah)
 13195  0049A8  6E8C               	movwf	((c:3980)),c	;volatile
 13196                           	line	893
 13197                           	
 13198  0049AA                     l678:		; BSR set to: ?
 13199                           
 13200                           	line	895
 13201                           	
 13202  0049AA                     l677:		; BSR set to: ?
 13203                           
 13204                           	line	883
 13205  0049AA  0109               	movlb	9	; () banked
 13206  0049AC  0109               	movlb	9	; () banked
 13207  0049AE  4B30               	infsnz	((MOVE@j))&0ffh
 13208  0049B0  2B31               	incf	((MOVE@j+1))&0ffh
 13209  0049B2  0109               	movlb	9	; () banked
 13210  0049B4  0109               	movlb	9	; () banked
 13211  0049B6  5131               	movf	((MOVE@j+1))&0ffh,w
 13212  0049B8  0A80               	xorlw	80h
 13213  0049BA  0F59               	addlw	-((027h)^80h)
 13214  0049BC  0E10               	movlw	010h
 13215  0049BE  B4D8               	btfsc	status,2
 13216  0049C0  5D30               	subwf	((MOVE@j))&0ffh,w
 13217  0049C2  A0D8               	btfss	status,0
 13218  0049C4  EFE6  F024         	goto	u10331
 13219  0049C8  EFE8  F024         	goto	u10330
 13220  0049CC                     u10331:
 13221  0049CC  EFA6  F024         	goto	l673
 13222  0049D0                     u10330:
 13223                           	
 13224  0049D0                     l674:		; BSR set to: ?
 13225                           
 13226                           	line	896
 13227                           ;main.c: 893: }
 13228                           ;main.c: 895: }
 13229                           ;main.c: 896: for(j = 0; j < 16000; j++){
 13230  0049D0  0E00               	movlw	low(0)
 13231  0049D2  0109               	movlb	9	; () banked
 13232  0049D4  0109               	movlb	9	; () banked
 13233  0049D6  6F30               	movwf	((MOVE@j))&0ffh
 13234  0049D8  0E00               	movlw	high(0)
 13235  0049DA  0109               	movlb	9	; () banked
 13236  0049DC  6F31               	movwf	((MOVE@j+1))&0ffh
 13237  0049DE  0109               	movlb	9	; () banked
 13238  0049E0  0109               	movlb	9	; () banked
 13239  0049E2  5131               	movf	((MOVE@j+1))&0ffh,w
 13240  0049E4  0A80               	xorlw	80h
 13241  0049E6  0F42               	addlw	-((03Eh)^80h)
 13242  0049E8  0E80               	movlw	080h
 13243  0049EA  B4D8               	btfsc	status,2
 13244  0049EC  5D30               	subwf	((MOVE@j))&0ffh,w
 13245  0049EE  A0D8               	btfss	status,0
 13246  0049F0  EFFC  F024         	goto	u10341
 13247  0049F4  EFFE  F024         	goto	u10340
 13248  0049F8                     u10341:
 13249  0049F8  EF00  F025         	goto	l679
 13250  0049FC                     u10340:
 13251  0049FC  EF42  F025         	goto	l680
 13252                           	
 13253  004A00                     l679:		; BSR set to: ?
 13254                           
 13255                           	line	897
 13256                           ;main.c: 897: if(intFlag == 1){
 13257  004A00  0108               	movlb	8	; () banked
 13258  004A02  0108               	movlb	8	; () banked
 13259  004A04  0504               	decf	((2052))&0ffh,w
 13260  004A06  1105               	iorwf ((2052+1))&0ffh,w
 13261                           
 13262  004A08  A4D8               	btfss	status,2
 13263  004A0A  EF09  F025         	goto	u10351
 13264  004A0E  EF0B  F025         	goto	u10350
 13265  004A12                     u10351:
 13266  004A12  EF18  F025         	goto	l682
 13267  004A16                     u10350:
 13268                           	line	898
 13269                           ;main.c: 898: SteerLeft();
 13270  004A16  ECFD  F02F         	call	_SteerLeft	;wreg free
 13271                           	line	899
 13272                           ;main.c: 899: intFlag = 0;
 13273  004A1A  0E00               	movlw	low(0)
 13274  004A1C  0108               	movlb	8	; () banked
 13275  004A1E  0108               	movlb	8	; () banked
 13276  004A20  6F04               	movwf	((2052))&0ffh
 13277  004A22  0E00               	movlw	high(0)
 13278  004A24  0108               	movlb	8	; () banked
 13279  004A26  6F05               	movwf	((2052+1))&0ffh
 13280                           	line	900
 13281                           ;main.c: 900: LATD = 0b00001010;
 13282  004A28  0E0A               	movlw	low(0Ah)
 13283  004A2A  6E8C               	movwf	((c:3980)),c	;volatile
 13284                           	line	901
 13285                           ;main.c: 901: }
 13286  004A2C  EF2F  F025         	goto	l683
 13287                           	line	902
 13288                           	
 13289  004A30                     l682:		; BSR set to: ?
 13290                           
 13291                           ;main.c: 902: else if(intFlag == 2){
 13292  004A30  0108               	movlb	8	; () banked
 13293  004A32  0108               	movlb	8	; () banked
 13294  004A34  5104               	movf	((2052))&0ffh,w
 13295  004A36  0A02               	xorlw	2
 13296  004A38  1105               	iorwf ((2052+1))&0ffh,w
 13297                           
 13298  004A3A  A4D8               	btfss	status,2
 13299  004A3C  EF22  F025         	goto	u10361
 13300  004A40  EF24  F025         	goto	u10360
 13301  004A44                     u10361:
 13302  004A44  EF2F  F025         	goto	l683
 13303  004A48                     u10360:
 13304                           	line	903
 13305                           ;main.c: 903: SteerRight();
 13306  004A48  EC20  F030         	call	_SteerRight	;wreg free
 13307                           	line	904
 13308                           ;main.c: 904: intFlag = 0;
 13309  004A4C  0E00               	movlw	low(0)
 13310  004A4E  0108               	movlb	8	; () banked
 13311  004A50  0108               	movlb	8	; () banked
 13312  004A52  6F04               	movwf	((2052))&0ffh
 13313  004A54  0E00               	movlw	high(0)
 13314  004A56  0108               	movlb	8	; () banked
 13315  004A58  6F05               	movwf	((2052+1))&0ffh
 13316                           	line	905
 13317                           ;main.c: 905: LATD = 0b00001010;
 13318  004A5A  0E0A               	movlw	low(0Ah)
 13319  004A5C  6E8C               	movwf	((c:3980)),c	;volatile
 13320                           	line	906
 13321                           	
 13322  004A5E                     l684:		; BSR set to: ?
 13323                           
 13324                           	line	907
 13325                           	
 13326  004A5E                     l683:		; BSR set to: ?
 13327                           
 13328                           	line	896
 13329  004A5E  0109               	movlb	9	; () banked
 13330  004A60  0109               	movlb	9	; () banked
 13331  004A62  4B30               	infsnz	((MOVE@j))&0ffh
 13332  004A64  2B31               	incf	((MOVE@j+1))&0ffh
 13333  004A66  0109               	movlb	9	; () banked
 13334  004A68  0109               	movlb	9	; () banked
 13335  004A6A  5131               	movf	((MOVE@j+1))&0ffh,w
 13336  004A6C  0A80               	xorlw	80h
 13337  004A6E  0F42               	addlw	-((03Eh)^80h)
 13338  004A70  0E80               	movlw	080h
 13339  004A72  B4D8               	btfsc	status,2
 13340  004A74  5D30               	subwf	((MOVE@j))&0ffh,w
 13341  004A76  A0D8               	btfss	status,0
 13342  004A78  EF40  F025         	goto	u10371
 13343  004A7C  EF42  F025         	goto	u10370
 13344  004A80                     u10371:
 13345  004A80  EF00  F025         	goto	l679
 13346  004A84                     u10370:
 13347                           	
 13348  004A84                     l680:		; BSR set to: ?
 13349                           
 13350                           	line	908
 13351                           ;main.c: 906: }
 13352                           ;main.c: 907: }
 13353                           ;main.c: 908: for(j = 0; j < 11000; j++){
 13354  004A84  0E00               	movlw	low(0)
 13355  004A86  0109               	movlb	9	; () banked
 13356  004A88  0109               	movlb	9	; () banked
 13357  004A8A  6F30               	movwf	((MOVE@j))&0ffh
 13358  004A8C  0E00               	movlw	high(0)
 13359  004A8E  0109               	movlb	9	; () banked
 13360  004A90  6F31               	movwf	((MOVE@j+1))&0ffh
 13361  004A92  0109               	movlb	9	; () banked
 13362  004A94  0109               	movlb	9	; () banked
 13363  004A96  5131               	movf	((MOVE@j+1))&0ffh,w
 13364  004A98  0A80               	xorlw	80h
 13365  004A9A  0F56               	addlw	-((02Ah)^80h)
 13366  004A9C  0EF8               	movlw	0F8h
 13367  004A9E  B4D8               	btfsc	status,2
 13368  004AA0  5D30               	subwf	((MOVE@j))&0ffh,w
 13369  004AA2  A0D8               	btfss	status,0
 13370  004AA4  EF56  F025         	goto	u10381
 13371  004AA8  EF58  F025         	goto	u10380
 13372  004AAC                     u10381:
 13373  004AAC  EF5A  F025         	goto	l685
 13374  004AB0                     u10380:
 13375  004AB0  EF9C  F025         	goto	l686
 13376                           	
 13377  004AB4                     l685:		; BSR set to: ?
 13378                           
 13379                           	line	909
 13380                           ;main.c: 909: if(intFlag == 1){
 13381  004AB4  0108               	movlb	8	; () banked
 13382  004AB6  0108               	movlb	8	; () banked
 13383  004AB8  0504               	decf	((2052))&0ffh,w
 13384  004ABA  1105               	iorwf ((2052+1))&0ffh,w
 13385                           
 13386  004ABC  A4D8               	btfss	status,2
 13387  004ABE  EF63  F025         	goto	u10391
 13388  004AC2  EF65  F025         	goto	u10390
 13389  004AC6                     u10391:
 13390  004AC6  EF72  F025         	goto	l688
 13391  004ACA                     u10390:
 13392                           	line	910
 13393                           ;main.c: 910: SteerLeft();
 13394  004ACA  ECFD  F02F         	call	_SteerLeft	;wreg free
 13395                           	line	911
 13396                           ;main.c: 911: intFlag = 0;
 13397  004ACE  0E00               	movlw	low(0)
 13398  004AD0  0108               	movlb	8	; () banked
 13399  004AD2  0108               	movlb	8	; () banked
 13400  004AD4  6F04               	movwf	((2052))&0ffh
 13401  004AD6  0E00               	movlw	high(0)
 13402  004AD8  0108               	movlb	8	; () banked
 13403  004ADA  6F05               	movwf	((2052+1))&0ffh
 13404                           	line	912
 13405                           ;main.c: 912: LATD = 0b00001010;
 13406  004ADC  0E0A               	movlw	low(0Ah)
 13407  004ADE  6E8C               	movwf	((c:3980)),c	;volatile
 13408                           	line	913
 13409                           ;main.c: 913: }
 13410  004AE0  EF89  F025         	goto	l689
 13411                           	line	914
 13412                           	
 13413  004AE4                     l688:		; BSR set to: ?
 13414                           
 13415                           ;main.c: 914: else if(intFlag == 2){
 13416  004AE4  0108               	movlb	8	; () banked
 13417  004AE6  0108               	movlb	8	; () banked
 13418  004AE8  5104               	movf	((2052))&0ffh,w
 13419  004AEA  0A02               	xorlw	2
 13420  004AEC  1105               	iorwf ((2052+1))&0ffh,w
 13421                           
 13422  004AEE  A4D8               	btfss	status,2
 13423  004AF0  EF7C  F025         	goto	u10401
 13424  004AF4  EF7E  F025         	goto	u10400
 13425  004AF8                     u10401:
 13426  004AF8  EF89  F025         	goto	l689
 13427  004AFC                     u10400:
 13428                           	line	915
 13429                           ;main.c: 915: SteerRight();
 13430  004AFC  EC20  F030         	call	_SteerRight	;wreg free
 13431                           	line	916
 13432                           ;main.c: 916: intFlag = 0;
 13433  004B00  0E00               	movlw	low(0)
 13434  004B02  0108               	movlb	8	; () banked
 13435  004B04  0108               	movlb	8	; () banked
 13436  004B06  6F04               	movwf	((2052))&0ffh
 13437  004B08  0E00               	movlw	high(0)
 13438  004B0A  0108               	movlb	8	; () banked
 13439  004B0C  6F05               	movwf	((2052+1))&0ffh
 13440                           	line	917
 13441                           ;main.c: 917: LATD = 0b00001010;
 13442  004B0E  0E0A               	movlw	low(0Ah)
 13443  004B10  6E8C               	movwf	((c:3980)),c	;volatile
 13444                           	line	918
 13445                           	
 13446  004B12                     l690:		; BSR set to: ?
 13447                           
 13448                           	line	919
 13449                           	
 13450  004B12                     l689:		; BSR set to: ?
 13451                           
 13452                           	line	908
 13453  004B12  0109               	movlb	9	; () banked
 13454  004B14  0109               	movlb	9	; () banked
 13455  004B16  4B30               	infsnz	((MOVE@j))&0ffh
 13456  004B18  2B31               	incf	((MOVE@j+1))&0ffh
 13457  004B1A  0109               	movlb	9	; () banked
 13458  004B1C  0109               	movlb	9	; () banked
 13459  004B1E  5131               	movf	((MOVE@j+1))&0ffh,w
 13460  004B20  0A80               	xorlw	80h
 13461  004B22  0F56               	addlw	-((02Ah)^80h)
 13462  004B24  0EF8               	movlw	0F8h
 13463  004B26  B4D8               	btfsc	status,2
 13464  004B28  5D30               	subwf	((MOVE@j))&0ffh,w
 13465  004B2A  A0D8               	btfss	status,0
 13466  004B2C  EF9A  F025         	goto	u10411
 13467  004B30  EF9C  F025         	goto	u10410
 13468  004B34                     u10411:
 13469  004B34  EF5A  F025         	goto	l685
 13470  004B38                     u10410:
 13471                           	
 13472  004B38                     l686:		; BSR set to: ?
 13473                           
 13474                           	line	920
 13475                           ;main.c: 918: }
 13476                           ;main.c: 919: }
 13477                           ;main.c: 920: for(j = 0; j < 1800; j++){
 13478  004B38  0E00               	movlw	low(0)
 13479  004B3A  0109               	movlb	9	; () banked
 13480  004B3C  0109               	movlb	9	; () banked
 13481  004B3E  6F30               	movwf	((MOVE@j))&0ffh
 13482  004B40  0E00               	movlw	high(0)
 13483  004B42  0109               	movlb	9	; () banked
 13484  004B44  6F31               	movwf	((MOVE@j+1))&0ffh
 13485+ 004B46  0109               	movlb	9	; () banked
 13486+ 004B48  0109               	movlb	9	; () banked
 13487+ 004B4A  5131               	movf	((MOVE@j+1))&0ffh,w
 13488+ 004B4C  0A80               	xorlw	80h
 13489+ 004B4E  0F79               	addlw	-((07h)^80h)
 13490+ 004B50  0E08               	movlw	08h
 13491+ 004B52  B4D8               	btfsc	status,2
 13492+ 004B54  5D30               	subwf	((MOVE@j))&0ffh,w
 13493+ 004B56  A0D8               	btfss	status,0
 13494+ 004B58  EFB0  F025         	goto	u10421
 13495+ 004B5C  EFB2  F025         	goto	u10420
 13496+ 004B60                     u10421:
 13497+ 004B60  EFB4  F025         	goto	l691
 13498+ 004B64                     u10420:
 13499+ 004B64  EFF6  F025         	goto	l692
 13500+                          	
 13501+ 004B68                     l691:		; BSR set to: ?
 13502+                          
 13503+                          	line	921
 13504+                          ;main.c: 921: if(intFlag == 1){
 13505+ 004B68  0108               	movlb	8	; () banked
 13506+ 004B6A  0108               	movlb	8	; () banked
 13507+ 004B6C  0504               	decf	((2052))&0ffh,w
 13508+ 004B6E  1105               	iorwf ((2052+1))&0ffh,w
 13509+                          
 13510+ 004B70  A4D8               	btfss	status,2
 13511+ 004B72  EFBD  F025         	goto	u10431
 13512+ 004B76  EFBF  F025         	goto	u10430
 13513+ 004B7A                     u10431:
 13514+ 004B7A  EFCC  F025         	goto	l694
 13515+ 004B7E                     u10430:
 13516+                          	line	922
 13517+                          ;main.c: 922: SteerLeft();
 13518+ 004B7E  ECFD  F02F         	call	_SteerLeft	;wreg free
 13519+                          	line	923
 13520+                          ;main.c: 923: intFlag = 0;
 13521+ 004B82  0E00               	movlw	low(0)
 13522+ 004B84  0108               	movlb	8	; () banked
 13523+ 004B86  0108               	movlb	8	; () banked
 13524+ 004B88  6F04               	movwf	((2052))&0ffh
 13525+ 004B8A  0E00               	movlw	high(0)
 13526+ 004B8C  0108               	movlb	8	; () banked
 13527+ 004B8E  6F05               	movwf	((2052+1))&0ffh
 13528+                          	line	924
 13529+                          ;main.c: 924: LATD = 0b00001010;
 13530+ 004B90  0E0A               	movlw	low(0Ah)
 13531+ 004B92  6E8C               	movwf	((c:3980)),c	;volatile
 13532+                          	line	925
 13533+                          ;main.c: 925: }
 13534+ 004B94  EFE3  F025         	goto	l695
 13535+                          	line	926
 13536+                          	
 13537+ 004B98                     l694:		; BSR set to: ?
 13538+                          
 13539+                          ;main.c: 926: else if(intFlag == 2){
 13540+ 004B98  0108               	movlb	8	; () banked
 13541+ 004B9A  0108               	movlb	8	; () banked
 13542+ 004B9C  5104               	movf	((2052))&0ffh,w
 13543+ 004B9E  0A02               	xorlw	2
 13544+ 004BA0  1105               	iorwf ((2052+1))&0ffh,w
 13545+                          
 13546+ 004BA2  A4D8               	btfss	status,2
 13547+ 004BA4  EFD6  F025         	goto	u10441
 13548+ 004BA8  EFD8  F025         	goto	u10440
 13549+ 004BAC                     u10441:
 13550+ 004BAC  EFE3  F025         	goto	l695
 13551+ 004BB0                     u10440:
 13552+                          	line	927
 13553+                          ;main.c: 927: SteerRight();
 13554+ 004BB0  EC20  F030         	call	_SteerRight	;wreg free
 13555+                          	line	928
 13556+                          ;main.c: 928: intFlag = 0;
 13557+ 004BB4  0E00               	movlw	low(0)
 13558+ 004BB6  0108               	movlb	8	; () banked
 13559+ 004BB8  0108               	movlb	8	; () banked
 13560+ 004BBA  6F04               	movwf	((2052))&0ffh
 13561+ 004BBC  0E00               	movlw	high(0)
 13562+ 004BBE  0108               	movlb	8	; () banked
 13563+ 004BC0  6F05               	movwf	((2052+1))&0ffh
 13564+                          	line	929
 13565+                          ;main.c: 929: LATD = 0b00001010;
 13566+ 004BC2  0E0A               	movlw	low(0Ah)
 13567+ 004BC4  6E8C               	movwf	((c:3980)),c	;volatile
 13568+                          	line	930
 13569+                          	
 13570+ 004BC6                     l696:		; BSR set to: ?
 13571+                          
 13572+                          	line	931
 13573+                          	
 13574+ 004BC6                     l695:		; BSR set to: ?
 13575+                          
 13576+                          	line	920
 13577+ 004BC6  0109               	movlb	9	; () banked
 13578+ 004BC8  0109               	movlb	9	; () banked
 13579+ 004BCA  4B30               	infsnz	((MOVE@j))&0ffh
 13580+ 004BCC  2B31               	incf	((MOVE@j+1))&0ffh
 13581+ 004BCE  0109               	movlb	9	; () banked
 13582+ 004BD0  0109               	movlb	9	; () banked
 13583+ 004BD2  5131               	movf	((MOVE@j+1))&0ffh,w
 13584+ 004BD4  0A80               	xorlw	80h
 13585+ 004BD6  0F79               	addlw	-((07h)^80h)
 13586+ 004BD8  0E08               	movlw	08h
 13587+ 004BDA  B4D8               	btfsc	status,2
 13588+ 004BDC  5D30               	subwf	((MOVE@j))&0ffh,w
 13589+ 004BDE  A0D8               	btfss	status,0
 13590+ 004BE0  EFF4  F025         	goto	u10451
 13591+ 004BE4  EFF6  F025         	goto	u10450
 13592+ 004BE8                     u10451:
 13593+ 004BE8  EFB4  F025         	goto	l691
 13594+ 004BEC                     u10450:
 13595+                          	
 13596+ 004BEC                     l692:		; BSR set to: ?
 13597+                          
 13598+                          	line	932
 13599+                          ;main.c: 930: }
 13600+                          ;main.c: 931: }
 13601+                          ;main.c: 932: LATD = 0;
 13602+ 004BEC  0E00               	movlw	low(0)
 13603+ 004BEE  6E8C               	movwf	((c:3980)),c	;volatile
 13604+                          	line	935
 13605+                          ;main.c: 935: switch(mouseDirection){
 13606+ 004BF0  EF14  F026         	goto	l698
 13607+                          	line	936
 13608+                          ;main.c: 936: case 3:
 13609+                          	
 13610+ 004BF4                     l699:		; BSR set to: ?
 13611+                          
 13612+                          	line	937
 13613+                          ;main.c: 937: mouseY -= 1;
 13614+ 004BF4  0108               	movlb	8	; () banked
 13615+ 004BF6  0108               	movlb	8	; () banked
 13616+ 004BF8  0700               	decf	((2048))&0ffh
 13617+ 004BFA  A0D8               	btfss	status,0
 13618+ 004BFC  0701               	decf	((2048+1))&0ffh
 13619+                          	line	938
 13620+                          ;main.c: 938: break;
 13621+ 004BFE  EF2F  F026         	goto	l697
 13622+                          	line	939
 13623+                          ;main.c: 939: case 5:
 13624+                          	
 13625+ 004C02                     l700:		; BSR set to: ?
 13626+                          
 13627+                          	line	940
 13628+                          ;main.c: 940: mouseX += 1;
 13629+ 004C02  0108               	movlb	8	; () banked
 13630+ 004C04  0108               	movlb	8	; () banked
 13631+ 004C06  4B02               	infsnz	((2050))&0ffh
 13632+ 004C08  2B03               	incf	((2050+1))&0ffh
 13633+                          	line	941
 13634+                          ;main.c: 941: break;
 13635+ 004C0A  EF2F  F026         	goto	l697
 13636+                          	line	942
 13637+                          ;main.c: 942: case 7:
 13638+                          	
 13639+ 004C0E                     l701:		; BSR set to: ?
 13640+                          
 13641+                          	line	943
 13642+                          ;main.c: 943: mouseY +=1;
 13643+ 004C0E  0108               	movlb	8	; () banked
 13644+ 004C10  0108               	movlb	8	; () banked
 13645+ 004C12  4B00               	infsnz	((2048))&0ffh
 13646+ 004C14  2B01               	incf	((2048+1))&0ffh
 13647+                          	line	944
 13648+                          ;main.c: 944: break;
 13649+ 004C16  EF2F  F026         	goto	l697
 13650+                          	line	945
 13651+                          ;main.c: 945: case 13:
 13652+                          	
 13653+ 004C1A                     l702:		; BSR set to: ?
 13654+                          
 13655+                          	line	946
 13656+                          ;main.c: 946: mouseX -= 1;
 13657+ 004C1A  0108               	movlb	8	; () banked
 13658+ 004C1C  0108               	movlb	8	; () banked
 13659+ 004C1E  0702               	decf	((2050))&0ffh
 13660+ 004C20  A0D8               	btfss	status,0
 13661+ 004C22  0703               	decf	((2050+1))&0ffh
 13662+                          	line	947
 13663+                          ;main.c: 947: break;
 13664+ 004C24  EF2F  F026         	goto	l697
 13665+                          	line	935
 13666+                          	
 13667+ 004C28                     l698:		; BSR set to: ?
 13668+                          
 13669+ 004C28  0108               	movlb	8	; () banked
 13670+ 004C2A  C806 F932          	movff	(2054),??_MOVE+2+0
 13671+ 004C2E  0108               	movlb	8	; () banked
 13672+ 004C30  C807 F933          	movff	(2054+1),??_MOVE+2+0+1
 13673+ 004C34  0109               	movlb	9	; () banked
 13674+ 004C36  EF29  F026         	goto	l30047
 13675+ 004C3A                     l30048:
 13676+ 004C3A  0109               	movlb	9	; () banked
 13677+ 004C3C  5132               	movf	(??_MOVE+2+0)&0ffh,w
 13678+ 004C3E  0A03               	xorlw	3 ^ 0
 13679+ 004C40  E0D9               	bz	l699
 13680+ 004C42  0A06               	xorlw	5 ^ 3
 13681+ 004C44  E0DE               	bz	l700
 13682+ 004C46  0A02               	xorlw	7 ^ 5
 13683+ 004C48  E0E2               	bz	l701
 13684+ 004C4A  0A0A               	xorlw	13 ^ 7
 13685+ 004C4C  E0E6               	bz	l702
 13686+ 004C4E  EF2F  F026         	goto	l697
 13687+                          
 13688+ 004C52                     l30047:
 13689+ 004C52  0109               	movlb	9	; () banked
 13690+ 004C54  5133               	movf	(??_MOVE+2+1)&0ffh,w
 13691+ 004C56  0A00               	xorlw	0 ^ 0
 13692+ 004C58  E0F0               	bz	l30048
 13693+ 004C5A  EF2F  F026         	goto	l697
 13694+                          
 13695+                          	line	948
 13696+                          	
 13697+ 004C5E                     l697:		; BSR set to: ?
 13698+                          
 13699+                          	line	949
 13700+                          ;main.c: 949: }
 13701+ 004C5E                     l669:
 13702+                          			; BSR set to: ?
 13703+                          
 13704+ 004C5E  0012               	return
 13705+                          	opt stack 0
 13706+                          GLOBAL __end_of_MOVE
 13707+ 004C60                     	__end_of_MOVE:
 13708+                          	FNSIZE	_MOVE,4,0
 13709+                          ; =============== function _MOVE ends ==========
      +                          ==
 13710+                          
 13711+                          	signat	_MOVE,88
 13712+                          	global	___awmod
 13713+                          	global	??___awmod
 13714+                          	global	?___awmod
 13715+                          
 13716+                          ; *************** function ___awmod ************
      +                          *****
 13717+                          ; Defined at:
 13718+                          ;		line 5 in file "C:\Program Files (x86)\HI-TEC
      +                          H Software\PICC-18\PRO\9.66\sources\awmod.c"
 13719+                          ; Parameters:
 13720+                          ;		dividend       size:   2offs:   0	type: int 
 13721+                          ;		divisor        size:   2offs:   2	type: int 
 13722+                          ; Auto variables:
 13723+                          ;		sign        	       	type: unsigned char 
 13724+                          ;		counter     	       	type: unsigned char 
 13725+                          ; Return value:
 13726+                          ;		type: int 
 13727+                          ;		size: 2
 13728+                          ; Registers used:
 13729+                          ;		wreg, status,2, status,0
 13730+                          ; Tracked objects:
 13731+                          ;		On entry : 0/0
 13732+                          ;		On exit  : 0/0
 13733+                          ;		Unchanged: 0/0
 13734+                          ; Data sizes:
 13735+                          ;		Autos:    2
 13736+                          ;		Params:   4
 13737+                          ;		Temp:     1
 13738+                          ;		Total:    7
 13739+                          ; This function calls:
 13740+                          ;		Nothing
 13741+                          ; This function is called by:
 13742+                          ;		_CheckAdjacentCells
 13743+                          ;		_CheckWalls
 13744+                          ; This function uses a non-reentrant model
 13745+                          ; 
 13746+                                  psect   text14,class=CODE,space=0,reloc=
      +                          2
 13747+                          
 13748+                          	opt lm
 13749+                          	file	"C:\Program Files (x86)\HI-TECH Software\P
      +                          ICC-18\PRO\9.66\sources\awmod.c"
 13750+                          	line	5
 13751+ 000000                     	__size_of___awmod	equ	__end_of___awmod-___awmod
 13752+                          	
 13753+ 005B28                     ___awmod:		; BSR set to: ?
 13754+                          
 13755+                          	opt stack 27
 13756+                          	line	8
 13757+ 005B28  0109               	movlb	9	; () banked
 13758+ 005B2A  6F58               	movwf	(??___awmod+2+0)&0ffh
 13759+ 005B2C  0E00               	movlw	low(0)
 13760+ 005B2E  0109               	movlb	9	; () banked
 13761+ 005B30  0109               	movlb	9	; () banked
 13762+ 005B32  6F56               	movwf	((___awmod@sign))&0ffh
 13763+ 005B34  0109               	movlb	9	; () banked
 13764+ 005B36  5158               	movf	(??___awmod+2+0)&0ffh,w
 13765+                          	line	9
 13766+ 005B38  0109               	movlb	9	; () banked
 13767+ 005B3A  0109               	movlb	9	; () banked
 13768+ 005B3C  AF53               	btfss	((___awmod@dividend+1))&0ffh,7
 13769+ 005B3E  EFA3  F02D         	goto	u10221
 13770+ 005B42  EFA5  F02D         	goto	u10220
 13771+ 005B46                     u10221:
 13772+ 005B46  EFB4  F02D         	goto	l1144
 13773+ 005B4A                     u10220:
 13774+                          	line	10
 13775+ 005B4A  0109               	movlb	9	; () banked
 13776+ 005B4C  0109               	movlb	9	; () banked
 13777+ 005B4E  6D52               	negf	((___awmod@dividend))&0ffh
 13778+ 005B50  0109               	movlb	9	; () banked
 13779+ 005B52  1F53               	comf	((___awmod@dividend+1))&0ffh
 13780+ 005B54  B0D8               	btfsc	status,0
 13781+ 005B56  2B53               	incf	((___awmod@dividend+1))&0ffh
 13782+                          	line	11
 13783+ 005B58  0109               	movlb	9	; () banked
 13784+ 005B5A  6F58               	movwf	(??___awmod+2+0)&0ffh
 13785+ 005B5C  0E01               	movlw	low(01h)
 13786+ 005B5E  0109               	movlb	9	; () banked
 13787+ 005B60  0109               	movlb	9	; () banked
 13788+ 005B62  6F56               	movwf	((___awmod@sign))&0ffh
 13789+ 005B64  0109               	movlb	9	; () banked
 13790+ 005B66  5158               	movf	(??___awmod+2+0)&0ffh,w
 13791+                          	line	12
 13792+                          	
 13793+ 005B68                     l1144:		; BSR set to: ?
 13794+                          
 13795+                          	line	13
 13796+ 005B68  0109               	movlb	9	; () banked
 13797+ 005B6A  0109               	movlb	9	; () banked
 13798+ 005B6C  AF55               	btfss	((___awmod@divisor+1))&0ffh,7
 13799+ 005B6E  EFBB  F02D         	goto	u10231
 13800+ 005B72  EFBD  F02D         	goto	u10230
 13801+ 005B76                     u10231:
 13802+ 005B76  EFC4  F02D         	goto	l1145
 13803+ 005B7A                     u10230:
 13804+                          	line	14
 13805+ 005B7A  0109               	movlb	9	; () banked
 13806+ 005B7C  0109               	movlb	9	; () banked
 13807+ 005B7E  6D54               	negf	((___awmod@divisor))&0ffh
 13808+ 005B80  0109               	movlb	9	; () banked
 13809+ 005B82  1F55               	comf	((___awmod@divisor+1))&0ffh
 13810+ 005B84  B0D8               	btfsc	status,0
 13811+ 005B86  2B55               	incf	((___awmod@divisor+1))&0ffh
 13812+                          	
 13813+ 005B88                     l1145:		; BSR set to: ?
 13814+                          
 13815+                          	line	15
 13816+ 005B88  0109               	movlb	9	; () banked
 13817+ 005B8A  0109               	movlb	9	; () banked
 13818+ 005B8C  5155               	movf	((___awmod@divisor+1))&0ffh,w
 13819+ 005B8E  1154               	iorwf ((___awmod@divisor))&0ffh,w
 13820+                          
 13821+ 005B90  B4D8               	btfsc	status,2
 13822+ 005B92  EFCD  F02D         	goto	u10241
 13823+ 005B96  EFCF  F02D         	goto	u10240
 13824+ 005B9A                     u10241:
 13825+ 005B9A  EF15  F02E         	goto	l1146
 13826+ 005B9E                     u10240:
 13827+                          	line	16
 13828+ 005B9E  0109               	movlb	9	; () banked
 13829+ 005BA0  6F58               	movwf	(??___awmod+2+0)&0ffh
 13830+ 005BA2  0E01               	movlw	low(01h)
 13831+ 005BA4  0109               	movlb	9	; () banked
 13832+ 005BA6  0109               	movlb	9	; () banked
 13833+ 005BA8  6F57               	movwf	((___awmod@counter))&0ffh
 13834+ 005BAA  0109               	movlb	9	; () banked
 13835+ 005BAC  5158               	movf	(??___awmod+2+0)&0ffh,w
 13836+                          	line	17
 13837+ 005BAE  EFE2  F02D         	goto	l1147
 13838+                          	
 13839+ 005BB2                     l1148:		; BSR set to: ?
 13840+                          
 13841+                          	line	18
 13842+ 005BB2  0109               	movlb	9	; () banked
 13843+ 005BB4  90D8               	bcf	status,0
 13844+ 005BB6  0109               	movlb	9	; () banked
 13845+ 005BB8  3754               	rlcf	((___awmod@divisor))&0ffh
 13846+ 005BBA  0109               	movlb	9	; () banked
 13847+ 005BBC  3755               	rlcf	((___awmod@divisor+1))&0ffh
 13848+                          	line	19
 13849+ 005BBE  0109               	movlb	9	; () banked
 13850+ 005BC0  0109               	movlb	9	; () banked
 13851+ 005BC2  2B57               	incf	((___awmod@counter))&0ffh
 13852+                          	line	20
 13853+                          	
 13854+ 005BC4                     l1147:		; BSR set to: ?
 13855+                          
 13856+                          	line	17
 13857+ 005BC4  0109               	movlb	9	; () banked
 13858+                          	
 13859+ 005BC6  0109               	movlb	9	; () banked
 13860+ 005BC8  AF55               	btfss	((___awmod@divisor+1))&0ffh,(15)&7
 13861+ 005BCA  EFE9  F02D         	goto	u10251
 13862+ 005BCE  EFEB  F02D         	goto	u10250
 13863+ 005BD2                     u10251:
 13864+ 005BD2  EFD9  F02D         	goto	l1148
 13865+ 005BD6                     u10250:
 13866+                          	
 13867+ 005BD6                     l1149:		; BSR set to: ?
 13868+                          
 13869+                          	line	21
 13870+                          	
 13871+ 005BD6                     l1152:		; BSR set to: ?
 13872+                          
 13873+                          	line	22
 13874+ 005BD6  0109               	movlb	9	; () banked
 13875+ 005BD8  0109               	movlb	9	; () banked
 13876+ 005BDA  5154               	movf	((___awmod@divisor))&0ffh,w
 13877+ 005BDC  0109               	movlb	9	; () banked
 13878+ 005BDE  0109               	movlb	9	; () banked
 13879+ 005BE0  5D52               	subwf	((___awmod@dividend))&0ffh,w
 13880+ 005BE2  0109               	movlb	9	; () banked
 13881+ 005BE4  0109               	movlb	9	; () banked
 13882+ 005BE6  5155               	movf	((___awmod@divisor+1))&0ffh,w
 13883+ 005BE8  0109               	movlb	9	; () banked
 13884+ 005BEA  0109               	movlb	9	; () banked
 13885+ 005BEC  5953               	subwfb	((___awmod@dividend+1))&0ffh,w
 13886+ 005BEE  A0D8               	btfss	status,0
 13887+ 005BF0  EFFC  F02D         	goto	u10261
 13888+ 005BF4  EFFE  F02D         	goto	u10260
 13889+ 005BF8                     u10261:
 13890+ 005BF8  EF0A  F02E         	goto	l1153
 13891+ 005BFC                     u10260:
 13892+                          	line	23
 13893+ 005BFC  0109               	movlb	9	; () banked
 13894+ 005BFE  0109               	movlb	9	; () banked
 13895+ 005C00  5154               	movf	((___awmod@divisor))&0ffh,w
 13896+ 005C02  0109               	movlb	9	; () banked
 13897+ 005C04  0109               	movlb	9	; () banked
 13898+ 005C06  5F52               	subwf	((___awmod@dividend))&0ffh
 13899+ 005C08  0109               	movlb	9	; () banked
 13900+ 005C0A  0109               	movlb	9	; () banked
 13901+ 005C0C  5155               	movf	((___awmod@divisor+1))&0ffh,w
 13902+ 005C0E  0109               	movlb	9	; () banked
 13903+ 005C10  0109               	movlb	9	; () banked
 13904+ 005C12  5B53               	subwfb	((___awmod@dividend+1))&0ffh
 13905+                          
 13906+                          	
 13907+ 005C14                     l1153:		; BSR set to: ?
 13908+                          
 13909+                          	line	24
 13910+ 005C14  0109               	movlb	9	; () banked
 13911+ 005C16  90D8               	bcf	status,0
 13912+ 005C18  0109               	movlb	9	; () banked
 13913+ 005C1A  3355               	rrcf	((___awmod@divisor+1))&0ffh
 13914+ 005C1C  0109               	movlb	9	; () banked
 13915+ 005C1E  3354               	rrcf	((___awmod@divisor))&0ffh
 13916+                          	line	25
 13917+ 005C20  0109               	movlb	9	; () banked
 13918+ 005C22  0109               	movlb	9	; () banked
 13919+ 005C24  2F57               	decfsz	((___awmod@counter))&0ffh
 13920+                          	
 13921+ 005C26  EFEB  F02D         	goto	l1152
 13922+                          	
 13923+ 005C2A                     l1151:		; BSR set to: ?
 13924+                          
 13925+                          	line	26
 13926+                          	
 13927+ 005C2A                     l1146:		; BSR set to: ?
 13928+                          
 13929+                          	line	27
 13930+ 005C2A  0109               	movlb	9	; () banked
 13931+ 005C2C  0109               	movlb	9	; () banked
 13932+ 005C2E  5156               	movf	((___awmod@sign))&0ffh,w
 13933+ 005C30  B4D8               	btfsc	status,2
 13934+ 005C32  EF1D  F02E         	goto	u10271
 13935+ 005C36  EF1F  F02E         	goto	u10270
 13936+ 005C3A                     u10271:
 13937+ 005C3A  EF26  F02E         	goto	l1154
 13938+ 005C3E                     u10270:
 13939+                          	line	28
 13940+ 005C3E  0109               	movlb	9	; () banked
 13941+ 005C40  0109               	movlb	9	; () banked
 13942+ 005C42  6D52               	negf	((___awmod@dividend))&0ffh
 13943+ 005C44  0109               	movlb	9	; () banked
 13944+ 005C46  1F53               	comf	((___awmod@dividend+1))&0ffh
 13945+ 005C48  B0D8               	btfsc	status,0
 13946+ 005C4A  2B53               	incf	((___awmod@dividend+1))&0ffh
 13947+                          	
 13948+ 005C4C                     l1154:		; BSR set to: ?
 13949+                          
 13950+                          	line	29
 13951+ 005C4C  C952  F952         	movff	(___awmod@dividend),(?___awmod)
 13952+ 005C50  C953  F953         	movff	(___awmod@dividend+1),(?___awmod+1)
 13953+ 005C54  EF2C  F02E         	goto	l1143
 13954+                          	line	30
 13955+ 005C58                     l1143:
 13956+                          			; BSR set to: ?
 13957+                          
 13958+ 005C58  0012               	return
 13959+                          	opt stack 0
 13960+                          GLOBAL __end_of___awmod
 13961+ 005C5A                     	__end_of___awmod:
 13962+                          	FNSIZE	___awmod,3,4
 13963+                          ; =============== function ___awmod ends =======
      +                          =====
 13964+                          
 13965+                          	signat	___awmod,8314
 13966+                          	global	___wmul
 13967+                          	global	??___wmul
 13968+                          	global	?___wmul
 13969+                          
 13970+                          ; *************** function ___wmul *************
      +                          ****
 13971+                          ; Defined at:
 13972+                          ;		line 3 in file "C:\Program Files (x86)\HI-TEC
      +                          H Software\PICC-18\PRO\9.66\sources\wmul.c"
 13973+                          ; Parameters:
 13974+                          ;		multiplier     size:   2offs:   0	type: unsig
      +                          ned int 
 13975+                          ;		multiplicand   size:   2offs:   2	type: unsig
      +                          ned int 
 13976+                          ; Auto variables:
 13977+                          ;		product     	       	type: unsigned int 
 13978+                          ; Return value:
 13979+                          ;		type: unsigned int 
 13980+                          ;		size: 2
 13981+                          ; Registers used:
 13982+                          ;		wreg, status,2, status,0
 13983+                          ; Tracked objects:
 13984+                          ;		On entry : 0/0
 13985+                          ;		On exit  : 0/0
 13986+                          ;		Unchanged: 0/0
 13987+                          ; Data sizes:
 13988+                          ;		Autos:    2
 13989+                          ;		Params:   4
 13990+                          ;		Temp:     0
 13991+                          ;		Total:    6
 13992+                          ; This function calls:
 13993+                          ;		Nothing
 13994+                          ; This function is called by:
 13995+                          ;		_SolveMaze
 13996+                          ;		_CheckWalls
 13997+                          ; This function uses a non-reentrant model
 13998+                          ; 
 13999+                                  psect   text15,class=CODE,space=0,reloc=
      +                          2
 14000+                          
 14001+                          	opt lm
 14002+                          	file	"C:\Program Files (x86)\HI-TECH Software\P
      +                          ICC-18\PRO\9.66\sources\wmul.c"
 14003+                          	line	3
 14004+ 000000                     	__size_of___wmul	equ	__end_of___wmul-___wmul
 14005+                          	
 14006+ 005DB4                     ___wmul:		; BSR set to: ?
 14007+                          
 14008+                          	opt stack 27
 14009+                          	line	4
 14010+ 005DB4  0E00               	movlw	low(0)
 14011+ 005DB6  0109               	movlb	9	; () banked
 14012+ 005DB8  0109               	movlb	9	; () banked
 14013+ 005DBA  6F3E               	movwf	((___wmul@product))&0ffh
 14014+ 005DBC  0E00               	movlw	high(0)
 14015+ 005DBE  0109               	movlb	9	; () banked
 14016+ 005DC0  6F3F               	movwf	((___wmul@product+1))&0ffh
 14017+                          	line	6
 14018+                          	
 14019+ 005DC2                     l1407:		; BSR set to: ?
 14020+                          
 14021+                          	line	7
 14022+ 005DC2  0109               	movlb	9	; () banked
 14023+                          	
 14024+ 005DC4  0109               	movlb	9	; () banked
 14025+ 005DC6  A13A               	btfss	((___wmul@multiplier))&0ffh,(0)&7
 14026+ 005DC8  EFE8  F02E         	goto	u10461
 14027+ 005DCC  EFEA  F02E         	goto	u10460
 14028+ 005DD0                     u10461:
 14029+ 005DD0  EFF6  F02E         	goto	l1408
 14030+ 005DD4                     u10460:
 14031+                          	line	8
 14032+ 005DD4  0109               	movlb	9	; () banked
 14033+ 005DD6  0109               	movlb	9	; () banked
 14034+ 005DD8  513C               	movf	((___wmul@multiplicand))&0ffh,w
 14035+ 005DDA  0109               	movlb	9	; () banked
 14036+ 005DDC  0109               	movlb	9	; () banked
 14037+ 005DDE  273E               	addwf	((___wmul@product))&0ffh
 14038+ 005DE0  0109               	movlb	9	; () banked
 14039+ 005DE2  0109               	movlb	9	; () banked
 14040+ 005DE4  513D               	movf	((___wmul@multiplicand+1))&0ffh,w
 14041+ 005DE6  0109               	movlb	9	; () banked
 14042+ 005DE8  0109               	movlb	9	; () banked
 14043+ 005DEA  233F               	addwfc	((___wmul@product+1))&0ffh
 14044+                          
 14045+                          	
 14046+ 005DEC                     l1408:		; BSR set to: ?
 14047+                          
 14048+                          	line	9
 14049+ 005DEC  0109               	movlb	9	; () banked
 14050+ 005DEE  90D8               	bcf	status,0
 14051+ 005DF0  0109               	movlb	9	; () banked
 14052+ 005DF2  373C               	rlcf	((___wmul@multiplicand))&0ffh
 14053+ 005DF4  0109               	movlb	9	; () banked
 14054+ 005DF6  373D               	rlcf	((___wmul@multiplicand+1))&0ffh
 14055+                          	line	10
 14056+ 005DF8  0109               	movlb	9	; () banked
 14057+ 005DFA  90D8               	bcf	status,0
 14058+ 005DFC  0109               	movlb	9	; () banked
 14059+ 005DFE  333B               	rrcf	((___wmul@multiplier+1))&0ffh
 14060+ 005E00  0109               	movlb	9	; () banked
 14061+ 005E02  333A               	rrcf	((___wmul@multiplier))&0ffh
 14062+                          	line	11
 14063+ 005E04  0109               	movlb	9	; () banked
 14064+ 005E06  0109               	movlb	9	; () banked
 14065+ 005E08  513B               	movf	((___wmul@multiplier+1))&0ffh,w
 14066+ 005E0A  113A               	iorwf ((___wmul@multiplier))&0ffh,w
 14067+                          
 14068+ 005E0C  A4D8               	btfss	status,2
 14069+ 005E0E  EF0B  F02F         	goto	u10471
 14070+ 005E12  EF0D  F02F         	goto	u10470
 14071+ 005E16                     u10471:
 14072+ 005E16  EFE1  F02E         	goto	l1407
 14073+ 005E1A                     u10470:
 14074+                          	
 14075+ 005E1A                     l1406:		; BSR set to: ?
 14076+                          
 14077+                          	line	12
 14078+ 005E1A  C93E  F93A         	movff	(___wmul@product),(?___wmul)
 14079+ 005E1E  C93F  F93B         	movff	(___wmul@product+1),(?___wmul+1)
 14080+ 005E22  EF13  F02F         	goto	l1404
 14081+                          	line	13
 14082+ 005E26                     l1404:
 14083+                          			; BSR set to: ?
 14084+                          
 14085+ 005E26  0012               	return
 14086+                          	opt stack 0
 14087+                          GLOBAL __end_of___wmul
 14088+ 005E28                     	__end_of___wmul:
 14089+                          	FNSIZE	___wmul,2,4
 14090+                          ; =============== function ___wmul ends ========
      +                          ====
 14091+                          
 14092+                          	signat	___wmul,8314
 14093+                          	global	_TurnRight
 14094+                          	global	??_TurnRight
 14095+                          	global	?_TurnRight
 14096+                          
 14097+                          ; *************** function _TurnRight **********
      +                          *******
 14098+                          ; Defined at:
 14099+                          ;		line 29 in file "C:\Users\tab\Desktop\electro
      +                          nics\micro_mouse\WORKING_SAC\movement.c"
 14100+                          ; Parameters:
 14101+                          ;		None
 14102+                          ; Auto variables:
 14103+                          ;		None
 14104+                          ; Return value:
 14105+                          ;		type: void 
 14106+                          ;		size: 0
 14107+                          ; Registers used:
 14108+                          ;		wreg, status,2, cstack
 14109+                          ; Tracked objects:
 14110+                          ;		On entry : 0/0
 14111+                          ;		On exit  : 0/0
 14112+                          ;		Unchanged: 0/0
 14113+                          ; Data sizes:
 14114+                          ;		Autos:    0
 14115+                          ;		Params:   0
 14116+                          ;		Temp:     1
 14117+                          ;		Total:    1
 14118+                          ; This function calls:
 14119+                          ;		_DelayMs
 14120+                          ; This function is called by:
 14121+                          ;		_EndMaze
 14122+                          ;		_TurnToDirection
 14123+                          ; This function uses a non-reentrant model
 14124+                          ; 
 14125+                                  psect   text16,class=CODE,space=0,reloc=
      +                          2
 14126+                          
 14127+                          	opt lm
 14128+                          	file	"C:\Users\tab\Desktop\electronics\micro_mo
      +                          use\WORKING_SAC\movement.c"
 14129+                          	line	29
 14130+ 000000                     	__size_of_TurnRight	equ	__end_of_TurnRight-_Tur
      +                          nRight
 14131+                          ;movement.c: 29: void TurnRight(){
 14132+                          	
 14133+ 005E9A                     _TurnRight:		; BSR set to: ?
 14134+                          
 14135+                          	opt stack 27
 14136+                          	line	30
 14137+                          ;movement.c: 30: DelayMs(250);
 14138+ 005E9A  0109               	movlb	9	; () banked
 14139+ 005E9C  6F32               	movwf	(??_TurnRight+0+0)&0ffh
 14140+ 005E9E  0EFA               	movlw	low(0FAh)
 14141+ 005EA0  0109               	movlb	9	; () banked
 14142+ 005EA2  0109               	movlb	9	; () banked
 14143+ 005EA4  6F35               	movwf	((?_DelayMs))&0ffh
 14144+ 005EA6  0109               	movlb	9	; () banked
 14145+ 005EA8  5132               	movf	(??_TurnRight+0+0)&0ffh,w
 14146+ 005EAA  ECD9  F02F         	call	_DelayMs	;wreg free
 14147+                          	line	31
 14148+                          ;movement.c: 31: LATD = 0b00001001;
 14149+ 005EAE  0E09               	movlw	low(09h)
 14150+ 005EB0  6E8C               	movwf	((c:3980)),c	;volatile
 14151+                          	line	32
 14152+                          ;movement.c: 32: DelayMs(500);
 14153+ 005EB2  0109               	movlb	9	; () banked
 14154+ 005EB4  6F32               	movwf	(??_TurnRight+0+0)&0ffh
 14155+ 005EB6  0EF4               	movlw	low(0F4h)
 14156+ 005EB8  0109               	movlb	9	; () banked
 14157+ 005EBA  0109               	movlb	9	; () banked
 14158+ 005EBC  6F35               	movwf	((?_DelayMs))&0ffh
 14159+ 005EBE  0109               	movlb	9	; () banked
 14160+ 005EC0  5132               	movf	(??_TurnRight+0+0)&0ffh,w
 14161+ 005EC2  ECD9  F02F         	call	_DelayMs	;wreg free
 14162+                          	line	33
 14163+                          ;movement.c: 33: DelayMs(38);
 14164+ 005EC6  0109               	movlb	9	; () banked
 14165+ 005EC8  6F32               	movwf	(??_TurnRight+0+0)&0ffh
 14166+ 005ECA  0E26               	movlw	low(026h)
 14167+ 005ECC  0109               	movlb	9	; () banked
 14168+ 005ECE  0109               	movlb	9	; () banked
 14169+ 005ED0  6F35               	movwf	((?_DelayMs))&0ffh
 14170+ 005ED2  0109               	movlb	9	; () banked
 14171+ 005ED4  5132               	movf	(??_TurnRight+0+0)&0ffh,w
 14172+ 005ED6  ECD9  F02F         	call	_DelayMs	;wreg free
 14173+                          	line	34
 14174+                          ;movement.c: 34: LATD = 0b00000110;
 14175+ 005EDA  0E06               	movlw	low(06h)
 14176+ 005EDC  6E8C               	movwf	((c:3980)),c	;volatile
 14177+                          	line	35
 14178+                          ;movement.c: 35: DelayMs(10);
 14179+ 005EDE  0109               	movlb	9	; () banked
 14180+ 005EE0  6F32               	movwf	(??_TurnRight+0+0)&0ffh
 14181+ 005EE2  0E0A               	movlw	low(0Ah)
 14182+ 005EE4  0109               	movlb	9	; () banked
 14183+ 005EE6  0109               	movlb	9	; () banked
 14184+ 005EE8  6F35               	movwf	((?_DelayMs))&0ffh
 14185+ 005EEA  0109               	movlb	9	; () banked
 14186+ 005EEC  5132               	movf	(??_TurnRight+0+0)&0ffh,w
 14187+ 005EEE  ECD9  F02F         	call	_DelayMs	;wreg free
 14188+                          	line	36
 14189+                          ;movement.c: 36: LATD = 0x00;
 14190+ 005EF2  0E00               	movlw	low(0)
 14191+ 005EF4  6E8C               	movwf	((c:3980)),c	;volatile
 14192+                          	line	37
 14193+                          ;movement.c: 37: DelayMs(250);
 14194+ 005EF6  0109               	movlb	9	; () banked
 14195+ 005EF8  6F32               	movwf	(??_TurnRight+0+0)&0ffh
 14196+ 005EFA  0EFA               	movlw	low(0FAh)
 14197+ 005EFC  0109               	movlb	9	; () banked
 14198+ 005EFE  0109               	movlb	9	; () banked
 14199+ 005F00  6F35               	movwf	((?_DelayMs))&0ffh
 14200+ 005F02  0109               	movlb	9	; () banked
 14201+ 005F04  5132               	movf	(??_TurnRight+0+0)&0ffh,w
 14202+ 005F06  ECD9  F02F         	call	_DelayMs	;wreg free
 14203+                          	line	38
 14204+                          ;movement.c: 38: }
 14205+ 005F0A                     l206:
 14206+                          			; BSR set to: ?
 14207+                          
 14208+ 005F0A  0012               	return
 14209+                          	opt stack 0
 14210+                          GLOBAL __end_of_TurnRight
 14211+ 005F0C                     	__end_of_TurnRight:
 14212+                          	FNSIZE	_TurnRight,1,0
 14213+                          ; =============== function _TurnRight ends =====
      +                          =======
 14214+                          
 14215+                          	signat	_TurnRight,88
 14216+                          	global	_eeprom_read
 14217+                          	global	??_eeprom_read
 14218+                          	global	?_eeprom_read
 14219+                          
 14220+                          ; *************** function _eeprom_read ********
      +                          *********
 14221+                          ; Defined at:
 14222+                          ;		line 6 in file "C:\Program Files (x86)\HI-TEC
      +                          H Software\PICC-18\PRO\9.66\sources\eeread.c"
 14223+                          ; Parameters:
 14224+                          ;		addr           size:   2offs:   0	type: unsig
      +                          ned int 
 14225+                          ; Auto variables:
 14226+                          ;		None
 14227+                          ; Return value:
 14228+                          ;		type: unsigned char 
 14229+                          ;		size: 1
 14230+                          ; Registers used:
 14231+                          ;		wreg, status,2, status,0
 14232+                          ; Tracked objects:
 14233+                          ;		On entry : 0/0
 14234+                          ;		On exit  : 0/0
 14235+                          ;		Unchanged: 0/0
 14236+                          ; Data sizes:
 14237+                          ;		Autos:    0
 14238+                          ;		Params:   2
 14239+                          ;		Temp:     0
 14240+                          ;		Total:    2
 14241+                          ; This function calls:
 14242+                          ;		Nothing
 14243+                          ; This function is called by:
 14244+                          ;		_RestoreMaze
 14245+                          ; This function uses a non-reentrant model
 14246+                          ; 
 14247+                                  psect   text17,class=CODE,space=0,reloc=
      +                          2
 14248+                          
 14249+                          	opt lm
 14250+                          	file	"C:\Program Files (x86)\HI-TECH Software\P
      +                          ICC-18\PRO\9.66\sources\eeread.c"
 14251+                          	line	6
 14252+ 000000                     	__size_of_eeprom_read	equ	__end_of_eeprom_read-
      +                          _eeprom_read
 14253+                          	
 14254+ 006086                     _eeprom_read:		; BSR set to: ?
 14255+                          
 14256+                          	opt stack 27
 14257+                          	line	7
 14258+ 006086  EF47  F030         	goto	l882
 14259+                          	
 14260+ 00608A                     l883:		; BSR set to: ?
 14261+                          
 14262+ 00608A  EF47  F030         	goto	l882
 14263+                          	
 14264+ 00608E                     l882:		; BSR set to: ?
 14265+                          
 14266+                          	
 14267+ 00608E  B2A6               	btfsc	((c:4006)),c,1	;volatile
 14268+ 006090  EF4C  F030         	goto	u8551
 14269+ 006094  EF4E  F030         	goto	u8550
 14270+ 006098                     u8551:
 14271+ 006098  EF45  F030         	goto	l883
 14272+ 00609C                     u8550:
 14273+                          	
 14274+ 00609C                     l884:		; BSR set to: ?
 14275+                          
 14276+                          	line	8
 14277+ 00609C  0109               	movlb	9	; () banked
 14278+ 00609E  0109               	movlb	9	; () banked
 14279+ 0060A0  512E               	movf	((eeprom_read@addr+1))&0ffh,w
 14280+ 0060A2  6EAA               	movwf	((c:4010)),c	;volatile
 14281+ 0060A4  C92D  FFA9         	movff	(eeprom_read@addr),(c:4009)	;volatile
 14282+ 0060A8  0E3F               	movlw	(03Fh)&0ffh
 14283+ 0060AA  16A6               	andwf	((c:4006)),c	;volatile
 14284+ 0060AC  80A6               	bsf	((c:4006)),c,0	;volatile
 14285+ 0060AE  50A8               	movf	((c:4008)),c,w	;volatile
 14286+ 0060B0  EF5A  F030         	goto	l881
 14287+                          	line	9
 14288+ 0060B4                     l881:
 14289+                          			; BSR set to: ?
 14290+                          
 14291+ 0060B4  0012               	return
 14292+                          	opt stack 0
 14293+                          GLOBAL __end_of_eeprom_read
 14294+ 0060B6                     	__end_of_eeprom_read:
 14295+                          	FNSIZE	_eeprom_read,0,2
 14296+                          ; =============== function _eeprom_read ends ===
      +                          =========
 14297+                          
 14298+                          	signat	_eeprom_read,4217
 14299+                          	global	_LED
 14300+                          	global	??_LED
 14301+                          	global	?_LED
 14302+                          
 14303+                          ; *************** function _LED ****************
      +                          *
 14304+                          ; Defined at:
 14305+                          ;		line 281 in file "C:\Users\tab\Desktop\electr
      +                          onics\micro_mouse\WORKING_SAC\main.c"
 14306+                          ; Parameters:
 14307+                          ;		led            size:   2offs:   0	type: short
      +                           
 14308+                          ; Auto variables:
 14309+                          ;		None
 14310+                          ; Return value:
 14311+                          ;		type: void 
 14312+                          ;		size: 0
 14313+                          ; Registers used:
 14314+                          ;		wreg, status,2, status,0
 14315+                          ; Tracked objects:
 14316+                          ;		On entry : 0/0
 14317+                          ;		On exit  : 0/0
 14318+                          ;		Unchanged: 0/0
 14319+                          ; Data sizes:
 14320+                          ;		Autos:    0
 14321+                          ;		Params:   2
 14322+                          ;		Temp:     0
 14323+                          ;		Total:    2
 14324+                          ; This function calls:
 14325+                          ;		Nothing
 14326+                          ; This function is called by:
 14327+                          ;		_main
 14328+                          ;		_CheckOrientation
 14329+                          ;		_EndMaze
 14330+                          ; This function uses a non-reentrant model
 14331+                          ; 
 14332+                                  psect   text18,class=CODE,space=0,reloc=
      +                          2
 14333+                          
 14334+                          	opt lm
 14335+                          	file	"C:\Users\tab\Desktop\electronics\micro_mo
      +                          use\WORKING_SAC\main.c"
 14336+                          	line	281
 14337+ 000000                     	__size_of_LED	equ	__end_of_LED-_LED
 14338+                          ;main.c: 281: void LED(short led){
 14339+                          	
 14340+ 0060B6                     _LED:		; BSR set to: ?
 14341+                          
 14342+                          	opt stack 27
 14343+                          	line	282
 14344+ 0060B6  8A8C               	bsf	c:(31845/8),(31845)&7	;volatile
 14345+                          	line	283
 14346+                          ;main.c: 283: LATD6 = 1;
 14347+ 0060B8  8C8C               	bsf	c:(31846/8),(31846)&7	;volatile
 14348+                          	line	284
 14349+                          ;main.c: 284: LATD7 = 1;
 14350+ 0060BA  8E8C               	bsf	c:(31847/8),(31847)&7	;volatile
 14351+                          	line	286
 14352+                          ;main.c: 286: LATD &= ~(led << 5);
 14353+ 0060BC  0109               	movlb	9	; () banked
 14354+ 0060BE  0109               	movlb	9	; () banked
 14355+ 0060C0  3930               	swapf	((LED@led))&0ffh,w
 14356+ 0060C2  46E8               	rlncf	wreg
 14357+ 0060C4  0BE0               	andlw	(0ffh shl 5) & 0ffh
 14358+ 0060C6  0AFF               	xorlw	0ffh
 14359+ 0060C8  168C               	andwf	((c:3980)),c	;volatile
 14360+                          	line	287
 14361+                          ;main.c: 287: }
 14362+ 0060CA                     l453:
 14363+                          			; BSR set to: ?
 14364+                          
 14365+ 0060CA  0012               	return
 14366+                          	opt stack 0
 14367+                          GLOBAL __end_of_LED
 14368+ 0060CC                     	__end_of_LED:
 14369+                          	FNSIZE	_LED,0,2
 14370+                          ; =============== function _LED ends ===========
      +                          =
 14371+                          
 14372+                          	signat	_LED,4216
 14373+                          	global	_TurnAround
 14374+                          	global	??_TurnAround
 14375+                          	global	?_TurnAround
 14376+                          
 14377+                          ; *************** function _TurnAround *********
      +                          ********
 14378+                          ; Defined at:
 14379+                          ;		line 73 in file "C:\Users\tab\Desktop\electro
      +                          nics\micro_mouse\WORKING_SAC\movement.c"
 14380+                          ; Parameters:
 14381+                          ;		None
 14382+                          ; Auto variables:
 14383+                          ;		None
 14384+                          ; Return value:
 14385+                          ;		type: void 
 14386+                          ;		size: 0
 14387+                          ; Registers used:
 14388+                          ;		wreg, status,2, cstack
 14389+                          ; Tracked objects:
 14390+                          ;		On entry : 0/0
 14391+                          ;		On exit  : 0/0
 14392+                          ;		Unchanged: 0/0
 14393+                          ; Data sizes:
 14394+                          ;		Autos:    0
 14395+                          ;		Params:   0
 14396+                          ;		Temp:     1
 14397+                          ;		Total:    1
 14398+                          ; This function calls:
 14399+                          ;		_DelayMs
 14400+                          ; This function is called by:
 14401+                          ;		_EndMaze
 14402+                          ;		_TurnToDirection
 14403+                          ; This function uses a non-reentrant model
 14404+                          ; 
 14405+                                  psect   text19,class=CODE,space=0,reloc=
      +                          2
 14406+                          
 14407+                          	opt lm
 14408+                          	file	"C:\Users\tab\Desktop\electronics\micro_mo
      +                          use\WORKING_SAC\movement.c"
 14409+                          	line	73
 14410+ 000000                     	__size_of_TurnAround	equ	__end_of_TurnAround-_T
      +                          urnAround
 14411+                          ;movement.c: 73: void TurnAround(){
 14412+                          	
 14413+ 005D2E                     _TurnAround:		; BSR set to: ?
 14414+                          
 14415+                          	opt stack 27
 14416+                          	line	74
 14417+                          ;movement.c: 74: DelayMs(250);
 14418+ 005D2E  0109               	movlb	9	; () banked
 14419+ 005D30  6F32               	movwf	(??_TurnAround+0+0)&0ffh
 14420+ 005D32  0EFA               	movlw	low(0FAh)
 14421+ 005D34  0109               	movlb	9	; () banked
 14422+ 005D36  0109               	movlb	9	; () banked
 14423+ 005D38  6F35               	movwf	((?_DelayMs))&0ffh
 14424+ 005D3A  0109               	movlb	9	; () banked
 14425+ 005D3C  5132               	movf	(??_TurnAround+0+0)&0ffh,w
 14426+ 005D3E  ECD9  F02F         	call	_DelayMs	;wreg free
 14427+                          	line	75
 14428+                          ;movement.c: 75: LATD = 0b00001001;
 14429+ 005D42  0E09               	movlw	low(09h)
 14430+ 005D44  6E8C               	movwf	((c:3980)),c	;volatile
 14431+                          	line	76
 14432+                          ;movement.c: 76: DelayMs(500);
 14433+ 005D46  0109               	movlb	9	; () banked
 14434+ 005D48  6F32               	movwf	(??_TurnAround+0+0)&0ffh
 14435+ 005D4A  0EF4               	movlw	low(0F4h)
 14436+ 005D4C  0109               	movlb	9	; () banked
 14437+ 005D4E  0109               	movlb	9	; () banked
 14438+ 005D50  6F35               	movwf	((?_DelayMs))&0ffh
 14439+ 005D52  0109               	movlb	9	; () banked
 14440+ 005D54  5132               	movf	(??_TurnAround+0+0)&0ffh,w
 14441+ 005D56  ECD9  F02F         	call	_DelayMs	;wreg free
 14442+                          	line	77
 14443+                          ;movement.c: 77: DelayMs(500);
 14444+ 005D5A  0109               	movlb	9	; () banked
 14445+ 005D5C  6F32               	movwf	(??_TurnAround+0+0)&0ffh
 14446+ 005D5E  0EF4               	movlw	low(0F4h)
 14447+ 005D60  0109               	movlb	9	; () banked
 14448+ 005D62  0109               	movlb	9	; () banked
 14449+ 005D64  6F35               	movwf	((?_DelayMs))&0ffh
 14450+ 005D66  0109               	movlb	9	; () banked
 14451+ 005D68  5132               	movf	(??_TurnAround+0+0)&0ffh,w
 14452+ 005D6A  ECD9  F02F         	call	_DelayMs	;wreg free
 14453+                          	line	78
 14454+                          ;movement.c: 78: DelayMs(67);
 14455+ 005D6E  0109               	movlb	9	; () banked
 14456+ 005D70  6F32               	movwf	(??_TurnAround+0+0)&0ffh
 14457+ 005D72  0E43               	movlw	low(043h)
 14458+ 005D74  0109               	movlb	9	; () banked
 14459+ 005D76  0109               	movlb	9	; () banked
 14460+ 005D78  6F35               	movwf	((?_DelayMs))&0ffh
 14461+ 005D7A  0109               	movlb	9	; () banked
 14462+ 005D7C  5132               	movf	(??_TurnAround+0+0)&0ffh,w
 14463+ 005D7E  ECD9  F02F         	call	_DelayMs	;wreg free
 14464+                          	line	79
 14465+                          ;movement.c: 79: LATD = 0b00000110;
 14466+ 005D82  0E06               	movlw	low(06h)
 14467+ 005D84  6E8C               	movwf	((c:3980)),c	;volatile
 14468+                          	line	80
 14469+                          ;movement.c: 80: DelayMs(10);
 14470+ 005D86  0109               	movlb	9	; () banked
 14471+ 005D88  6F32               	movwf	(??_TurnAround+0+0)&0ffh
 14472+ 005D8A  0E0A               	movlw	low(0Ah)
 14473+ 005D8C  0109               	movlb	9	; () banked
 14474+ 005D8E  0109               	movlb	9	; () banked
 14475+ 005D90  6F35               	movwf	((?_DelayMs))&0ffh
 14476+ 005D92  0109               	movlb	9	; () banked
 14477+ 005D94  5132               	movf	(??_TurnAround+0+0)&0ffh,w
 14478+ 005D96  ECD9  F02F         	call	_DelayMs	;wreg free
 14479+                          	line	81
 14480+                          ;movement.c: 81: LATD = 0x00;
 14481+ 005D9A  0E00               	movlw	low(0)
 14482+ 005D9C  6E8C               	movwf	((c:3980)),c	;volatile
 14483+                          	line	82
 14484+                          ;movement.c: 82: DelayMs(250);
 14485+ 005D9E  0109               	movlb	9	; () banked
 14486+ 005DA0  6F32               	movwf	(??_TurnAround+0+0)&0ffh
 14487+ 005DA2  0EFA               	movlw	low(0FAh)
 14488+ 005DA4  0109               	movlb	9	; () banked
 14489+ 005DA6  0109               	movlb	9	; () banked
 14490+ 005DA8  6F35               	movwf	((?_DelayMs))&0ffh
 14491+ 005DAA  0109               	movlb	9	; () banked
 14492+ 005DAC  5132               	movf	(??_TurnAround+0+0)&0ffh,w
 14493+ 005DAE  ECD9  F02F         	call	_DelayMs	;wreg free
 14494+                          	line	83
 14495+                          ;movement.c: 83: }
 14496+ 005DB2                     l209:
 14497+                          			; BSR set to: ?
 14498+                          
 14499+ 005DB2  0012               	return
 14500+                          	opt stack 0
 14501+                          GLOBAL __end_of_TurnAround
 14502+ 005DB4                     	__end_of_TurnAround:
 14503+                          	FNSIZE	_TurnAround,1,0
 14504+                          ; =============== function _TurnAround ends ====
      +                          ========
 14505+                          
 14506+                          	signat	_TurnAround,88
 14507+                          	global	_TurnLeft
 14508+                          	global	??_TurnLeft
 14509+                          	global	?_TurnLeft
 14510+                          
 14511+                          ; *************** function _TurnLeft ***********
      +                          ******
 14512+                          ; Defined at:
 14513+                          ;		line 18 in file "C:\Users\tab\Desktop\electro
      +                          nics\micro_mouse\WORKING_SAC\movement.c"
 14514+                          ; Parameters:
 14515+                          ;		None
 14516+                          ; Auto variables:
 14517+                          ;		None
 14518+                          ; Return value:
 14519+                          ;		type: void 
 14520+                          ;		size: 0
 14521+                          ; Registers used:
 14522+                          ;		wreg, status,2, cstack
 14523+                          ; Tracked objects:
 14524+                          ;		On entry : 0/0
 14525+                          ;		On exit  : 0/0
 14526+                          ;		Unchanged: 0/0
 14527+                          ; Data sizes:
 14528+                          ;		Autos:    0
 14529+                          ;		Params:   0
 14530+                          ;		Temp:     1
 14531+                          ;		Total:    1
 14532+                          ; This function calls:
 14533+                          ;		_DelayMs
 14534+                          ; This function is called by:
 14535+                          ;		_EndMaze
 14536+                          ;		_TurnToDirection
 14537+                          ; This function uses a non-reentrant model
 14538+                          ; 
 14539+                                  psect   text20,class=CODE,space=0,reloc=
      +                          2
 14540+                          
 14541+                          	opt lm
 14542+                          	file	"C:\Users\tab\Desktop\electronics\micro_mo
      +                          use\WORKING_SAC\movement.c"
 14543+                          	line	18
 14544+ 000000                     	__size_of_TurnLeft	equ	__end_of_TurnLeft-_TurnL
      +                          eft
 14545+                          ;movement.c: 18: void TurnLeft(){
 14546+                          	
 14547+ 005E28                     _TurnLeft:		; BSR set to: ?
 14548+                          
 14549+                          	opt stack 27
 14550+                          	line	19
 14551+                          ;movement.c: 19: DelayMs(250);
 14552+ 005E28  0109               	movlb	9	; () banked
 14553+ 005E2A  6F32               	movwf	(??_TurnLeft+0+0)&0ffh
 14554+ 005E2C  0EFA               	movlw	low(0FAh)
 14555+ 005E2E  0109               	movlb	9	; () banked
 14556+ 005E30  0109               	movlb	9	; () banked
 14557+ 005E32  6F35               	movwf	((?_DelayMs))&0ffh
 14558+ 005E34  0109               	movlb	9	; () banked
 14559+ 005E36  5132               	movf	(??_TurnLeft+0+0)&0ffh,w
 14560+ 005E38  ECD9  F02F         	call	_DelayMs	;wreg free
 14561+                          	line	20
 14562+                          ;movement.c: 20: LATD = 0b00000110;
 14563+ 005E3C  0E06               	movlw	low(06h)
 14564+ 005E3E  6E8C               	movwf	((c:3980)),c	;volatile
 14565+                          	line	21
 14566+                          ;movement.c: 21: DelayMs(500);
 14567+ 005E40  0109               	movlb	9	; () banked
 14568+ 005E42  6F32               	movwf	(??_TurnLeft+0+0)&0ffh
 14569+ 005E44  0EF4               	movlw	low(0F4h)
 14570+ 005E46  0109               	movlb	9	; () banked
 14571+ 005E48  0109               	movlb	9	; () banked
 14572+ 005E4A  6F35               	movwf	((?_DelayMs))&0ffh
 14573+ 005E4C  0109               	movlb	9	; () banked
 14574+ 005E4E  5132               	movf	(??_TurnLeft+0+0)&0ffh,w
 14575+ 005E50  ECD9  F02F         	call	_DelayMs	;wreg free
 14576+                          	line	22
 14577+                          ;movement.c: 22: DelayMs(41);
 14578+ 005E54  0109               	movlb	9	; () banked
 14579+ 005E56  6F32               	movwf	(??_TurnLeft+0+0)&0ffh
 14580+ 005E58  0E29               	movlw	low(029h)
 14581+ 005E5A  0109               	movlb	9	; () banked
 14582+ 005E5C  0109               	movlb	9	; () banked
 14583+ 005E5E  6F35               	movwf	((?_DelayMs))&0ffh
 14584+ 005E60  0109               	movlb	9	; () banked
 14585+ 005E62  5132               	movf	(??_TurnLeft+0+0)&0ffh,w
 14586+ 005E64  ECD9  F02F         	call	_DelayMs	;wreg free
 14587+                          	line	23
 14588+                          ;movement.c: 23: LATD = 0b00001001;
 14589+ 005E68  0E09               	movlw	low(09h)
 14590+ 005E6A  6E8C               	movwf	((c:3980)),c	;volatile
 14591+                          	line	24
 14592+                          ;movement.c: 24: DelayMs(10);
 14593+ 005E6C  0109               	movlb	9	; () banked
 14594+ 005E6E  6F32               	movwf	(??_TurnLeft+0+0)&0ffh
 14595+ 005E70  0E0A               	movlw	low(0Ah)
 14596+ 005E72  0109               	movlb	9	; () banked
 14597+ 005E74  0109               	movlb	9	; () banked
 14598+ 005E76  6F35               	movwf	((?_DelayMs))&0ffh
 14599+ 005E78  0109               	movlb	9	; () banked
 14600+ 005E7A  5132               	movf	(??_TurnLeft+0+0)&0ffh,w
 14601+ 005E7C  ECD9  F02F         	call	_DelayMs	;wreg free
 14602+                          	line	25
 14603+                          ;movement.c: 25: LATD = 0x00;
 14604+ 005E80  0E00               	movlw	low(0)
 14605+ 005E82  6E8C               	movwf	((c:3980)),c	;volatile
 14606+                          	line	26
 14607+                          ;movement.c: 26: DelayMs(250);
 14608+ 005E84  0109               	movlb	9	; () banked
 14609+ 005E86  6F32               	movwf	(??_TurnLeft+0+0)&0ffh
 14610+ 005E88  0EFA               	movlw	low(0FAh)
 14611+ 005E8A  0109               	movlb	9	; () banked
 14612+ 005E8C  0109               	movlb	9	; () banked
 14613+ 005E8E  6F35               	movwf	((?_DelayMs))&0ffh
 14614+ 005E90  0109               	movlb	9	; () banked
 14615+ 005E92  5132               	movf	(??_TurnLeft+0+0)&0ffh,w
 14616+ 005E94  ECD9  F02F         	call	_DelayMs	;wreg free
 14617+                          	line	27
 14618+                          ;movement.c: 27: }
 14619+ 005E98                     l205:
 14620+                          			; BSR set to: ?
 14621+                          
 14622+ 005E98  0012               	return
 14623+                          	opt stack 0
 14624+                          GLOBAL __end_of_TurnLeft
 14625+ 005E9A                     	__end_of_TurnLeft:
 14626+                          	FNSIZE	_TurnLeft,1,0
 14627+                          ; =============== function _TurnLeft ends ======
      +                          ======
 14628+                          
 14629+                          	signat	_TurnLeft,88
 14630+                          	global	_SteerLeft
 14631+                          	global	??_SteerLeft
 14632+                          	global	?_SteerLeft
 14633+                          
 14634+                          ; *************** function _SteerLeft **********
      +                          *******
 14635+                          ; Defined at:
 14636+                          ;		line 64 in file "C:\Users\tab\Desktop\electro
      +                          nics\micro_mouse\WORKING_SAC\movement.c"
 14637+                          ; Parameters:
 14638+                          ;		None
 14639+                          ; Auto variables:
 14640+                          ;		None
 14641+                          ; Return value:
 14642+                          ;		type: void 
 14643+                          ;		size: 0
 14644+                          ; Registers used:
 14645+                          ;		wreg, status,2, cstack
 14646+                          ; Tracked objects:
 14647+                          ;		On entry : 0/0
 14648+                          ;		On exit  : 0/0
 14649+                          ;		Unchanged: 0/0
 14650+                          ; Data sizes:
 14651+                          ;		Autos:    0
 14652+                          ;		Params:   0
 14653+                          ;		Temp:     1
 14654+                          ;		Total:    1
 14655+                          ; This function calls:
 14656+                          ;		_DelayMs
 14657+                          ; This function is called by:
 14658+                          ;		_CheckOrientation
 14659+                          ;		_MOVE
 14660+                          ; This function uses a non-reentrant model
 14661+                          ; 
 14662+                                  psect   text21,class=CODE,space=0,reloc=
      +                          2
 14663+                          
 14664+                          	opt lm
 14665+                          	file	"C:\Users\tab\Desktop\electronics\micro_mo
      +                          use\WORKING_SAC\movement.c"
 14666+                          	line	64
 14667+ 000000                     	__size_of_SteerLeft	equ	__end_of_SteerLeft-_Ste
      +                          erLeft
 14668+                          ;movement.c: 64: void SteerLeft(){
 14669+                          	
 14670+ 005FFA                     _SteerLeft:		; BSR set to: ?
 14671+                          
 14672+                          	opt stack 26
 14673+                          	line	66
 14674+ 005FFA  0109               	movlb	9	; () banked
 14675+ 005FFC  6F34               	movwf	(??_SteerLeft+0+0)&0ffh
 14676+ 005FFE  0E1E               	movlw	low(01Eh)
 14677+ 006000  0109               	movlb	9	; () banked
 14678+ 006002  0109               	movlb	9	; () banked
 14679+ 006004  6F35               	movwf	((?_DelayMs))&0ffh
 14680+ 006006  0109               	movlb	9	; () banked
 14681+ 006008  5134               	movf	(??_SteerLeft+0+0)&0ffh,w
 14682+ 00600A  ECD9  F02F         	call	_DelayMs	;wreg free
 14683+                          	line	67
 14684+                          ;movement.c: 67: LATD = 0b00001001;
 14685+ 00600E  0E09               	movlw	low(09h)
 14686+ 006010  6E8C               	movwf	((c:3980)),c	;volatile
 14687+                          	line	68
 14688+                          ;movement.c: 68: DelayMs(8);
 14689+ 006012  0109               	movlb	9	; () banked
 14690+ 006014  6F34               	movwf	(??_SteerLeft+0+0)&0ffh
 14691+ 006016  0E08               	movlw	low(08h)
 14692+ 006018  0109               	movlb	9	; () banked
 14693+ 00601A  0109               	movlb	9	; () banked
 14694+ 00601C  6F35               	movwf	((?_DelayMs))&0ffh
 14695+ 00601E  0109               	movlb	9	; () banked
 14696+ 006020  5134               	movf	(??_SteerLeft+0+0)&0ffh,w
 14697+ 006022  ECD9  F02F         	call	_DelayMs	;wreg free
 14698+                          	line	69
 14699+                          ;movement.c: 69: LATD = 0;
 14700+ 006026  0E00               	movlw	low(0)
 14701+ 006028  6E8C               	movwf	((c:3980)),c	;volatile
 14702+                          	line	70
 14703+                          ;movement.c: 70: DelayMs(80);
 14704+ 00602A  0109               	movlb	9	; () banked
 14705+ 00602C  6F34               	movwf	(??_SteerLeft+0+0)&0ffh
 14706+ 00602E  0E50               	movlw	low(050h)
 14707+ 006030  0109               	movlb	9	; () banked
 14708+ 006032  0109               	movlb	9	; () banked
 14709+ 006034  6F35               	movwf	((?_DelayMs))&0ffh
 14710+ 006036  0109               	movlb	9	; () banked
 14711+ 006038  5134               	movf	(??_SteerLeft+0+0)&0ffh,w
 14712+ 00603A  ECD9  F02F         	call	_DelayMs	;wreg free
 14713+                          	line	71
 14714+                          ;movement.c: 71: }
 14715+ 00603E                     l208:
 14716+                          			; BSR set to: ?
 14717+                          
 14718+ 00603E  0012               	return
 14719+                          	opt stack 0
 14720+                          GLOBAL __end_of_SteerLeft
 14721+ 006040                     	__end_of_SteerLeft:
 14722+                          	FNSIZE	_SteerLeft,1,0
 14723+                          ; =============== function _SteerLeft ends =====
      +                          =======
 14724+                          
 14725+                          	signat	_SteerLeft,88
 14726+                          	global	_SteerRight
 14727+                          	global	??_SteerRight
 14728+                          	global	?_SteerRight
 14729+                          
 14730+                          ; *************** function _SteerRight *********
      +                          ********
 14731+                          ; Defined at:
 14732+                          ;		line 55 in file "C:\Users\tab\Desktop\electro
      +                          nics\micro_mouse\WORKING_SAC\movement.c"
 14733+                          ; Parameters:
 14734+                          ;		None
 14735+                          ; Auto variables:
 14736+                          ;		None
 14737+                          ; Return value:
 14738+                          ;		type: void 
 14739+                          ;		size: 0
 14740+                          ; Registers used:
 14741+                          ;		wreg, status,2, cstack
 14742+                          ; Tracked objects:
 14743+                          ;		On entry : 0/0
 14744+                          ;		On exit  : 0/0
 14745+                          ;		Unchanged: 0/0
 14746+                          ; Data sizes:
 14747+                          ;		Autos:    0
 14748+                          ;		Params:   0
 14749+                          ;		Temp:     1
 14750+                          ;		Total:    1
 14751+                          ; This function calls:
 14752+                          ;		_DelayMs
 14753+                          ; This function is called by:
 14754+                          ;		_CheckOrientation
 14755+                          ;		_MOVE
 14756+                          ; This function uses a non-reentrant model
 14757+                          ; 
 14758+                                  psect   text22,class=CODE,space=0,reloc=
      +                          2
 14759+                          
 14760+                          	opt lm
 14761+                          	file	"C:\Users\tab\Desktop\electronics\micro_mo
      +                          use\WORKING_SAC\movement.c"
 14762+                          	line	55
 14763+ 000000                     	__size_of_SteerRight	equ	__end_of_SteerRight-_S
      +                          teerRight
 14764+                          ;movement.c: 55: void SteerRight(){
 14765+                          	
 14766+ 006040                     _SteerRight:		; BSR set to: ?
 14767+                          
 14768+                          	opt stack 26
 14769+                          	line	57
 14770+ 006040  0109               	movlb	9	; () banked
 14771+ 006042  6F34               	movwf	(??_SteerRight+0+0)&0ffh
 14772+ 006044  0E1E               	movlw	low(01Eh)
 14773+ 006046  0109               	movlb	9	; () banked
 14774+ 006048  0109               	movlb	9	; () banked
 14775+ 00604A  6F35               	movwf	((?_DelayMs))&0ffh
 14776+ 00604C  0109               	movlb	9	; () banked
 14777+ 00604E  5134               	movf	(??_SteerRight+0+0)&0ffh,w
 14778+ 006050  ECD9  F02F         	call	_DelayMs	;wreg free
 14779+                          	line	58
 14780+                          ;movement.c: 58: LATD = 0b00000110;
 14781+ 006054  0E06               	movlw	low(06h)
 14782+ 006056  6E8C               	movwf	((c:3980)),c	;volatile
 14783+                          	line	59
 14784+                          ;movement.c: 59: DelayMs(8);
 14785+ 006058  0109               	movlb	9	; () banked
 14786+ 00605A  6F34               	movwf	(??_SteerRight+0+0)&0ffh
 14787+ 00605C  0E08               	movlw	low(08h)
 14788+ 00605E  0109               	movlb	9	; () banked
 14789+ 006060  0109               	movlb	9	; () banked
 14790+ 006062  6F35               	movwf	((?_DelayMs))&0ffh
 14791+ 006064  0109               	movlb	9	; () banked
 14792+ 006066  5134               	movf	(??_SteerRight+0+0)&0ffh,w
 14793+ 006068  ECD9  F02F         	call	_DelayMs	;wreg free
 14794+                          	line	60
 14795+                          ;movement.c: 60: LATD = 0;
 14796+ 00606C  0E00               	movlw	low(0)
 14797+ 00606E  6E8C               	movwf	((c:3980)),c	;volatile
 14798+                          	line	61
 14799+                          ;movement.c: 61: DelayMs(80);
 14800+ 006070  0109               	movlb	9	; () banked
 14801+ 006072  6F34               	movwf	(??_SteerRight+0+0)&0ffh
 14802+ 006074  0E50               	movlw	low(050h)
 14803+ 006076  0109               	movlb	9	; () banked
 14804+ 006078  0109               	movlb	9	; () banked
 14805+ 00607A  6F35               	movwf	((?_DelayMs))&0ffh
 14806+ 00607C  0109               	movlb	9	; () banked
 14807+ 00607E  5134               	movf	(??_SteerRight+0+0)&0ffh,w
 14808+ 006080  ECD9  F02F         	call	_DelayMs	;wreg free
 14809+                          	line	62
 14810+                          ;movement.c: 62: }
 14811+ 006084                     l207:
 14812+                          			; BSR set to: ?
 14813+                          
 14814+ 006084  0012               	return
 14815+                          	opt stack 0
 14816+                          GLOBAL __end_of_SteerRight
 14817+ 006086                     	__end_of_SteerRight:
 14818+                          	FNSIZE	_SteerRight,1,0
 14819+                          ; =============== function _SteerRight ends ====
      +                          ========
 14820+                          
 14821+                          	signat	_SteerRight,88
 14822+                          	global	_eeprom_write
 14823+                          	global	??_eeprom_write
 14824+                          	global	?_eeprom_write
 14825+                          
 14826+                          ; *************** function _eeprom_write *******
      +                          **********
 14827+                          ; Defined at:
 14828+                          ;		line 7 in file "C:\Program Files (x86)\HI-TEC
      +                          H Software\PICC-18\PRO\9.66\sources\eewrite.c"
 14829+                          ; Parameters:
 14830+                          ;		addr           size:   2offs:   0	type: unsig
      +                          ned int 
 14831+                          ;		value          size:   1offs:   2	type: unsig
      +                          ned char 
 14832+                          ; Auto variables:
 14833+                          ;		None
 14834+                          ; Return value:
 14835+                          ;		type: void 
 14836+                          ;		size: 0
 14837+                          ; Registers used:
 14838+                          ;		wreg, status,2, status,0
 14839+                          ; Tracked objects:
 14840+                          ;		On entry : 0/0
 14841+                          ;		On exit  : 0/0
 14842+                          ;		Unchanged: 0/0
 14843+                          ; Data sizes:
 14844+                          ;		Autos:    0
 14845+                          ;		Params:   3
 14846+                          ;		Temp:     0
 14847+                          ;		Total:    3
 14848+                          ; This function calls:
 14849+                          ;		Nothing
 14850+                          ; This function is called by:
 14851+                          ;		_ClearMaze
 14852+                          ;		_SaveMaze
 14853+                          ; This function uses a non-reentrant model
 14854+                          ; 
 14855+                                  psect   text23,class=CODE,space=0,reloc=
      +                          2
 14856+                          
 14857+                          	opt lm
 14858+                          	file	"C:\Program Files (x86)\HI-TECH Software\P
      +                          ICC-18\PRO\9.66\sources\eewrite.c"
 14859+                          	line	7
 14860+ 000000                     	__size_of_eeprom_write	equ	__end_of_eeprom_writ
      +                          e-_eeprom_write
 14861+                          	
 14862+ 005F0C                     _eeprom_write:		; BSR set to: ?
 14863+                          
 14864+                          	opt stack 26
 14865+                          	line	8
 14866+                          	
 14867+ 005F0C                     l1066:		; BSR set to: ?
 14868+                          
 14869+ 005F0C  EF88  F02F         	goto	l1067
 14870+                          	
 14871+ 005F10                     l1067:		; BSR set to: ?
 14872+                          
 14873+                          	
 14874+ 005F10  B2A6               	btfsc	((c:4006)),c,1	;volatile
 14875+ 005F12  EF8D  F02F         	goto	u7811
 14876+ 005F16  EF8F  F02F         	goto	u7810
 14877+ 005F1A                     u7811:
 14878+ 005F1A  EF86  F02F         	goto	l1066
 14879+ 005F1E                     u7810:
 14880+                          	
 14881+ 005F1E                     l1069:		; BSR set to: ?
 14882+                          
 14883+ 005F1E  0109               	movlb	9	; () banked
 14884+ 005F20  0109               	movlb	9	; () banked
 14885+ 005F22  5141               	movf	((eeprom_write@addr+1))&0ffh,w
 14886+ 005F24  6EAA               	movwf	((c:4010)),c	;volatile
 14887+ 005F26  C940  FFA9         	movff	(eeprom_write@addr),(c:4009)	;volatile
 14888+ 005F2A  C942  FFA8         	movff	(eeprom_write@value),(c:4008)	;volatile
 14889+ 005F2E  0E3F               	movlw	(03Fh)&0ffh
 14890+ 005F30  16A6               	andwf	((c:4006)),c	;volatile
 14891+ 005F32  90D8               	bcf	c:(32448/8),(32448)&7	;volatile
 14892+ 005F34  AEF2               	btfss	c:(32663/8),(32663)&7	;volatile
 14893+ 005F36  EF9F  F02F         	goto	u7821
 14894+ 005F3A  EFA1  F02F         	goto	u7820
 14895+ 005F3E                     u7821:
 14896+ 005F3E  EFA2  F02F         	goto	l1070
 14897+ 005F42                     u7820:
 14898+ 005F42  80D8               	bsf	c:(32448/8),(32448)&7	;volatile
 14899+                          	
 14900+ 005F44                     l1070:		; BSR set to: ?
 14901+                          
 14902+ 005F44  9EF2               	bcf	c:(32663/8),(32663)&7	;volatile
 14903+ 005F46  84A6               	bsf	c:(32050/8),(32050)&7	;volatile
 14904+ 005F48  0E55               	movlw	low(055h)
 14905+ 005F4A  6EA7               	movwf	((c:4007)),c	;volatile
 14906+ 005F4C  0EAA               	movlw	low(0AAh)
 14907+ 005F4E  6EA7               	movwf	((c:4007)),c	;volatile
 14908+ 005F50  82A6               	bsf	((c:4006)),c,1	;volatile
 14909+ 005F52  98A1               	bcf	c:(32012/8),(32012)&7	;volatile
 14910+ 005F54  94A6               	bcf	c:(32050/8),(32050)&7	;volatile
 14911+ 005F56  A0D8               	btfss	c:(32448/8),(32448)&7	;volatile
 14912+ 005F58  EFB0  F02F         	goto	u7831
 14913+ 005F5C  EFB2  F02F         	goto	u7830
 14914+ 005F60                     u7831:
 14915+ 005F60  EFB3  F02F         	goto	l1065
 14916+ 005F64                     u7830:
 14917+ 005F64  8EF2               	bsf	c:(32663/8),(32663)&7	;volatile
 14918+                          	
 14919+ 005F66                     l1071:		; BSR set to: ?
 14920+                          
 14921+                          	
 14922+ 005F66                     l1065:		; BSR set to: ?
 14923+                          
 14924+                          	line	9
 14925+ 005F66                     l1063:
 14926+                          			; BSR set to: ?
 14927+                          
 14928+ 005F66  0012               	return
 14929+                          	opt stack 0
 14930+                          GLOBAL __end_of_eeprom_write
 14931+ 005F68                     	__end_of_eeprom_write:
 14932+                          	FNSIZE	_eeprom_write,0,3
 14933+                          ; =============== function _eeprom_write ends ==
      +                          ==========
 14934+                          
 14935+                          	signat	_eeprom_write,8312
 14936+                          	global	_DelayMs
 14937+                          	global	??_DelayMs
 14938+                          	global	?_DelayMs
 14939+                          
 14940+                          ; *************** function _DelayMs ************
      +                          *****
 14941+                          ; Defined at:
 14942+                          ;		line 12 in file "C:\Users\tab\Desktop\electro
      +                          nics\micro_mouse\WORKING_SAC\delay.c"
 14943+                          ; Parameters:
 14944+                          ;		cnt            size:   1offs:   0	type: unsig
      +                          ned char 
 14945+                          ; Auto variables:
 14946+                          ;		i           	       	type: unsigned char 
 14947+                          ;		_dcnt       	       	type: unsigned char 
 14948+                          ; Return value:
 14949+                          ;		type: void 
 14950+                          ;		size: 0
 14951+                          ; Registers used:
 14952+                          ;		status,2
 14953+                          ; Tracked objects:
 14954+                          ;		On entry : 0/0
 14955+                          ;		On exit  : 0/0
 14956+                          ;		Unchanged: 0/0
 14957+                          ; Data sizes:
 14958+                          ;		Autos:    2
 14959+                          ;		Params:   1
 14960+                          ;		Temp:     1
 14961+                          ;		Total:    4
 14962+                          ; This function calls:
 14963+                          ;		Nothing
 14964+                          ; This function is called by:
 14965+                          ;		_TurnLeft
 14966+                          ;		_TurnRight
 14967+                          ;		_SteerRight
 14968+                          ;		_SteerLeft
 14969+                          ;		_TurnAround
 14970+                          ;		_main
 14971+                          ;		_EndMaze
 14972+                          ;		_MOVE
 14973+                          ; This function uses a non-reentrant model
 14974+                          ; 
 14975+                                  psect   text24,class=CODE,space=0,reloc=
      +                          2
 14976+                          
 14977+                          	opt lm
 14978+                          	file	"C:\Users\tab\Desktop\electronics\micro_mo
      +                          use\WORKING_SAC\delay.c"
 14979+                          	line	12
 14980+ 000000                     	__size_of_DelayMs	equ	__end_of_DelayMs-_DelayMs
 14981+                          ;delay.c: 10: void
 14982+                          ;delay.c: 11: DelayMs(unsigned char cnt)
 14983+                          ;delay.c: 12: {
 14984+                          	
 14985+ 005FB2                     _DelayMs:		; BSR set to: ?
 14986+                          
 14987+                          	opt stack 25
 14988+                          	line	21
 14989+                          ;delay.c: 20: unsigned char i;
 14990+                          ;delay.c: 21: do {
 14991+                          	
 14992+ 005FB2                     l4:		; BSR set to: ?
 14993+                          
 14994+                          	line	22
 14995+                          ;delay.c: 22: i = 4;
 14996+ 005FB2  0109               	movlb	9	; () banked
 14997+ 005FB4  6F38               	movwf	(??_DelayMs+2+0)&0ffh
 14998+ 005FB6  0E04               	movlw	low(04h)
 14999+ 005FB8  0109               	movlb	9	; () banked
 15000+ 005FBA  0109               	movlb	9	; () banked
 15001+ 005FBC  6F36               	movwf	((DelayMs@i))&0ffh
 15002+ 005FBE  0109               	movlb	9	; () banked
 15003+ 005FC0  5138               	movf	(??_DelayMs+2+0)&0ffh,w
 15004+                          	line	23
 15005+                          ;delay.c: 23: do {
 15006+                          	
 15007+ 005FC2                     l7:		; BSR set to: ?
 15008+                          
 15009+                          	line	24
 15010+                          ;delay.c: 24: { unsigned char _dcnt; _dcnt = (25
      +                          0)/((12*1000L)/(4*1000L))|1; while(--_dcnt != 0)
      +                           continue; };
 15011+ 005FC2  0109               	movlb	9	; () banked
 15012+ 005FC4  6F38               	movwf	(??_DelayMs+2+0)&0ffh
 15013+ 005FC6  0E53               	movlw	low(053h)
 15014+ 005FC8  0109               	movlb	9	; () banked
 15015+ 005FCA  0109               	movlb	9	; () banked
 15016+ 005FCC  6F37               	movwf	((DelayMs@_dcnt))&0ffh
 15017+ 005FCE  0109               	movlb	9	; () banked
 15018+ 005FD0  5138               	movf	(??_DelayMs+2+0)&0ffh,w
 15019+ 005FD2  EFED  F02F         	goto	l8
 15020+                          	
 15021+ 005FD6                     l9:		; BSR set to: ?
 15022+                          
 15023+ 005FD6  EFED  F02F         	goto	l8
 15024+                          	
 15025+ 005FDA                     l8:		; BSR set to: ?
 15026+                          
 15027+ 005FDA  0109               	movlb	9	; () banked
 15028+ 005FDC  0109               	movlb	9	; () banked
 15029+ 005FDE  2F37               	decfsz	((DelayMs@_dcnt))&0ffh
 15030+                          	
 15031+ 005FE0  EFEB  F02F         	goto	l9
 15032+                          	
 15033+ 005FE4                     l10:		; BSR set to: ?
 15034+                          
 15035+                          	line	25
 15036+                          ;delay.c: 25: } while(--i);
 15037+ 005FE4  0109               	movlb	9	; () banked
 15038+ 005FE6  0109               	movlb	9	; () banked
 15039+ 005FE8  2F36               	decfsz	((DelayMs@i))&0ffh
 15040+                          	
 15041+ 005FEA  EFE1  F02F         	goto	l7
 15042+                          	
 15043+ 005FEE                     l6:		; BSR set to: ?
 15044+                          
 15045+                          	line	26
 15046+                          ;delay.c: 26: } while(--cnt);
 15047+ 005FEE  0109               	movlb	9	; () banked
 15048+ 005FF0  0109               	movlb	9	; () banked
 15049+ 005FF2  2F35               	decfsz	((DelayMs@cnt))&0ffh
 15050+                          	
 15051+ 005FF4  EFD9  F02F         	goto	l4
 15052+                          	
 15053+ 005FF8                     l3:		; BSR set to: ?
 15054+                          
 15055+                          	line	28
 15056+                          ;delay.c: 28: }
 15057+ 005FF8                     l1:
 15058+                          			; BSR set to: ?
 15059+                          
 15060+ 005FF8  0012               	return
 15061+                          	opt stack 0
 15062+                          GLOBAL __end_of_DelayMs
 15063+ 005FFA                     	__end_of_DelayMs:
 15064+                          	FNSIZE	_DelayMs,3,1
 15065+                          ; =============== function _DelayMs ends =======
      +                          =====
 15066+                          
 15067+                          	signat	_DelayMs,4216
 15068+                          	global	_SensorTriggered
 15069+                          	global	??_SensorTriggered
 15070+                          	global	?_SensorTriggered
 15071+                          
 15072+                          ; *************** function _SensorTriggered ****
      +                          *************
 15073+                          ; Defined at:
 15074+                          ;		line 230 in file "C:\Users\tab\Desktop\electr
      +                          onics\micro_mouse\WORKING_SAC\main.c"
 15075+                          ; Parameters:
 15076+                          ;		None
 15077+                          ; Auto variables:
 15078+                          ;		change      	       	type: unsigned char 
 15079+                          ; Return value:
 15080+                          ;		type: void 
 15081+                          ;		size: 0
 15082+                          ; Registers used:
 15083+                          ;		wreg, status,2
 15084+                          ; Tracked objects:
 15085+                          ;		On entry : 0/0
 15086+                          ;		On exit  : 0/0
 15087+                          ;		Unchanged: 0/0
 15088+                          ; Data sizes:
 15089+                          ;		Autos:    0
 15090+                          ;		Params:   0
 15091+                          ;		Temp:    14
 15092+                          ;		Total:   14
 15093+                          ; This function calls:
 15094+                          ;		Nothing
 15095+                          ; This function is called by:
 15096+                          ;		Interrupt level 2
 15097+                          ; This function uses a non-reentrant model
 15098+                          ; 
 15099+                                  psect   text25,class=CODE,space=0,reloc=
      +                          2
 15100+                          
 15101+                          	opt lm
 15102+                          	file	"C:\Users\tab\Desktop\electronics\micro_mo
      +                          use\WORKING_SAC\main.c"
 15103+                          	line	230
 15104+ 000000                     	__size_of_SensorTriggered	equ	__end_of_SensorTr
      +                          iggered-_SensorTriggered
 15105+                          ;main.c: 230: void interrupt SensorTriggered(voi
      +                          d){
 15106+                          	
 15107+ 005C5A                     _SensorTriggered:		; BSR set to: ?
 15108+                          
 15109+ 005C5A  0006               	pop	; remove dummy address from shadow register
      +                           refresh
 15110+                          
 15111+                          	opt stack 31
 15112+                                  psect   intcode,class=CODE,space=0,reloc
      +                          =2
 15113+                          	global	int_func
 15114+ 000008                     int_func:
 15115+                                  psect   intcode
 15116+ 000008  CFFA F959          	movff	pclat+0,??_SensorTriggered+0
 15117+ 00000C  CFFB F95A          	movff	pclat+1,??_SensorTriggered+1
 15118+ 000010  CFE9 F95B          	movff	fsr0l+0,??_SensorTriggered+2
 15119+ 000014  ED2D  F02E         	call	_SensorTriggered,f	;refresh shadow registe
      +                          rs
 15120+                                  psect   text25
 15121+ 005C5C  CFEA F95C          	movff	fsr0h+0,??_SensorTriggered+3
 15122+ 005C60  CFE1 F95D          	movff	fsr1l+0,??_SensorTriggered+4
 15123+ 005C64  CFE2 F95E          	movff	fsr1h+0,??_SensorTriggered+5
 15124+ 005C68  CFD9 F95F          	movff	fsr2l+0,??_SensorTriggered+6
 15125+ 005C6C  CFDA F960          	movff	fsr2h+0,??_SensorTriggered+7
 15126+ 005C70  CFF3 F961          	movff	prodl+0,??_SensorTriggered+8
 15127+ 005C74  CFF4 F962          	movff	prodh+0,??_SensorTriggered+9
 15128+ 005C78  CFF6 F963          	movff	tblptrl+0,??_SensorTriggered+10
 15129+ 005C7C  CFF7 F964          	movff	tblptrh+0,??_SensorTriggered+11
 15130+ 005C80  CFF8 F965          	movff	tblptru+0,??_SensorTriggered+12
 15131+ 005C84  CFF5 F966          	movff	tablat+0,??_SensorTriggered+13
 15132+                          	line	235
 15133+                          ;main.c: 231: static unsigned char last_portb;
 15134+                          ;main.c: 232: unsigned char change;
 15135+                          ;main.c: 235: PORTB = PORTB;
 15136+ 005C88  CF81 FF81          	movff	(c:3969),(c:3969)	;volatile
 15137+                          	line	237
 15138+                          ;main.c: 237: if ((INT0IE) && (INT0IF)){
 15139+ 005C8C  A8F2               	btfss	c:(32660/8),(32660)&7	;volatile
 15140+ 005C8E  EF4B  F02E         	goto	i2u3491
 15141+ 005C92  EF4D  F02E         	goto	i2u3490
 15142+ 005C96                     i2u3491:
 15143+ 005C96  EF5C  F02E         	goto	i2l447
 15144+ 005C9A                     i2u3490:
 15145+ 005C9A  A2F2               	btfss	c:(32657/8),(32657)&7	;volatile
 15146+ 005C9C  EF52  F02E         	goto	i2u3501
 15147+ 005CA0  EF54  F02E         	goto	i2u3500
 15148+ 005CA4                     i2u3501:
 15149+ 005CA4  EF5C  F02E         	goto	i2l447
 15150+ 005CA8                     i2u3500:
 15151+                          	line	239
 15152+                          ;main.c: 239: intFlag = 1;
 15153+ 005CA8  0E01               	movlw	low(01h)
 15154+ 005CAA  0108               	movlb	8	; () banked
 15155+ 005CAC  0108               	movlb	8	; () banked
 15156+ 005CAE  6F04               	movwf	((2052))&0ffh
 15157+ 005CB0  0E00               	movlw	high(01h)
 15158+ 005CB2  0108               	movlb	8	; () banked
 15159+ 005CB4  6F05               	movwf	((2052+1))&0ffh
 15160+                          	line	241
 15161+                          ;main.c: 241: INT0IF = 0;
 15162+ 005CB6  92F2               	bcf	c:(32657/8),(32657)&7	;volatile
 15163+                          	line	242
 15164+                          	
 15165+ 005CB8                     i2l447:		; BSR set to: ?
 15166+                          
 15167+                          	line	243
 15168+                          ;main.c: 242: }
 15169+                          ;main.c: 243: if ((INT1IE) && (INT1IF)){
 15170+ 005CB8  A6F0               	btfss	c:(32643/8),(32643)&7	;volatile
 15171+ 005CBA  EF61  F02E         	goto	i2u3511
 15172+ 005CBE  EF63  F02E         	goto	i2u3510
 15173+ 005CC2                     i2u3511:
 15174+ 005CC2  EF72  F02E         	goto	i2l448
 15175+ 005CC6                     i2u3510:
 15176+ 005CC6  A0F0               	btfss	c:(32640/8),(32640)&7	;volatile
 15177+ 005CC8  EF68  F02E         	goto	i2u3521
 15178+ 005CCC  EF6A  F02E         	goto	i2u3520
 15179+ 005CD0                     i2u3521:
 15180+ 005CD0  EF72  F02E         	goto	i2l448
 15181+ 005CD4                     i2u3520:
 15182+                          	line	245
 15183+                          ;main.c: 245: intFlag = 2;
 15184+ 005CD4  0E02               	movlw	low(02h)
 15185+ 005CD6  0108               	movlb	8	; () banked
 15186+ 005CD8  0108               	movlb	8	; () banked
 15187+ 005CDA  6F04               	movwf	((2052))&0ffh
 15188+ 005CDC  0E00               	movlw	high(02h)
 15189+ 005CDE  0108               	movlb	8	; () banked
 15190+ 005CE0  6F05               	movwf	((2052+1))&0ffh
 15191+                          	line	247
 15192+                          ;main.c: 247: INT1F=0;
 15193+ 005CE2  90F0               	bcf	c:(32640/8),(32640)&7	;volatile
 15194+                          	line	248
 15195+                          	
 15196+ 005CE4                     i2l448:		; BSR set to: ?
 15197+                          
 15198+                          	line	249
 15199+                          ;main.c: 248: }
 15200+                          ;main.c: 249: if ((INT2IF)){
 15201+ 005CE4  A2F0               	btfss	c:(32641/8),(32641)&7	;volatile
 15202+ 005CE6  EF77  F02E         	goto	i2u3531
 15203+ 005CEA  EF79  F02E         	goto	i2u3530
 15204+ 005CEE                     i2u3531:
 15205+ 005CEE  EF7A  F02E         	goto	i2l449
 15206+ 005CF2                     i2u3530:
 15207+                          	line	252
 15208+                          ;main.c: 252: INT2IF = 0;
 15209+ 005CF2  92F0               	bcf	c:(32641/8),(32641)&7	;volatile
 15210+                          	line	253
 15211+                          	
 15212+ 005CF4                     i2l449:		; BSR set to: ?
 15213+                          
 15214+                          	line	254
 15215+                          ;main.c: 253: }
 15216+                          ;main.c: 254: }
 15217+ 005CF4                     i2l446:
 15218+                          			; BSR set to: ?
 15219+                          
 15220+ 005CF4  C966  FFF5         	movff	??_SensorTriggered+13,tablat+0
 15221+ 005CF8  C965  FFF8         	movff	??_SensorTriggered+12,tblptru+0
 15222+ 005CFC  C964  FFF7         	movff	??_SensorTriggered+11,tblptrh+0
 15223+ 005D00  C963  FFF6         	movff	??_SensorTriggered+10,tblptrl+0
 15224+ 005D04  C962  FFF4         	movff	??_SensorTriggered+9,prodh+0
 15225+ 005D08  C961  FFF3         	movff	??_SensorTriggered+8,prodl+0
 15226+ 005D0C  C960  FFDA         	movff	??_SensorTriggered+7,fsr2h+0
 15227+ 005D10  C95F  FFD9         	movff	??_SensorTriggered+6,fsr2l+0
 15228+ 005D14  C95E  FFE2         	movff	??_SensorTriggered+5,fsr1h+0
 15229+ 005D18  C95D  FFE1         	movff	??_SensorTriggered+4,fsr1l+0
 15230+ 005D1C  C95C  FFEA         	movff	??_SensorTriggered+3,fsr0h+0
 15231+ 005D20  C95B  FFE9         	movff	??_SensorTriggered+2,fsr0l+0
 15232+ 005D24  C95A  FFFB         	movff	??_SensorTriggered+1,pclat+1
 15233+ 005D28  C959  FFFA         	movff	??_SensorTriggered+0,pclat+0
 15234+ 005D2C  0011               	retfie f
 15235+                          	opt stack 0
 15236+                          GLOBAL __end_of_SensorTriggered
 15237+ 005D2E                     	__end_of_SensorTriggered:
 15238+                          	FNSIZE	_SensorTriggered,14,0
 15239+                          ; =============== function _SensorTriggered ends
      +                           ============
 15240+                          
 15241+                          	signat	_SensorTriggered,88
 15242+                          	FNCALL	_main,_LED
 15243+                          	FNCALL	_main,_DelayMs
 15244+                          	FNCALL	_main,_MazeSetup
 15245+                          	FNCALL	_main,_ClearMaze
 15246+                          	FNCALL	_main,_ConfigureInterrupts
 15247+                          	FNCALL	_main,_DisableInterrupts
 15248+                          	FNCALL	_main,_SolveMaze
 15249+                          	FNCALL	_MazeSetup,_RestoreMaze
 15250+                          	FNCALL	_MazeSetup,_ClearMaze
 15251+                          	FNCALL	_SolveMaze,_TurnToDirection
 15252+                          	FNCALL	_SolveMaze,___wmul
 15253+                          	FNCALL	_SolveMaze,_CheckOrientation
 15254+                          	FNCALL	_SolveMaze,_CheckWalls
 15255+                          	FNCALL	_SolveMaze,_CheckAdjacentCells
 15256+                          	FNCALL	_SolveMaze,_DisableInterrupts
 15257+                          	FNCALL	_SolveMaze,_ConfigureInterrupts
 15258+                          	FNCALL	_SolveMaze,_MOVE
 15259+                          	FNCALL	_SolveMaze,_EndMaze
 15260+                          	FNCALL	_CheckOrientation,_SteerLeft
 15261+                          	FNCALL	_CheckOrientation,_LED
 15262+                          	FNCALL	_CheckOrientation,_SteerRight
 15263+                          	FNCALL	_CheckWalls,___awmod
 15264+                          	FNCALL	_CheckWalls,___wmul
 15265+                          	FNCALL	_TurnToDirection,_TurnRight
 15266+                          	FNCALL	_TurnToDirection,_TurnAround
 15267+                          	FNCALL	_TurnToDirection,_TurnLeft
 15268+                          	FNCALL	_RestoreMaze,_eeprom_read
 15269+                          	FNCALL	_EndMaze,_SaveMaze
 15270+                          	FNCALL	_EndMaze,_LED
 15271+                          	FNCALL	_EndMaze,_DelayMs
 15272+                          	FNCALL	_EndMaze,_TurnAround
 15273+                          	FNCALL	_EndMaze,_MOVE
 15274+                          	FNCALL	_EndMaze,_TurnLeft
 15275+                          	FNCALL	_EndMaze,_TurnRight
 15276+                          	FNCALL	_CheckAdjacentCells,___awmod
 15277+                          	FNCALL	_ClearMaze,_eeprom_write
 15278+                          	FNCALL	_SaveMaze,_eeprom_write
 15279+                          	FNCALL	_MOVE,_DelayMs
 15280+                          	FNCALL	_MOVE,_SteerLeft
 15281+                          	FNCALL	_MOVE,_SteerRight
 15282+                          	FNCALL	_TurnRight,_DelayMs
 15283+                          	FNCALL	_TurnAround,_DelayMs
 15284+                          	FNCALL	_TurnLeft,_DelayMs
 15285+                          	FNCALL	_SteerLeft,_DelayMs
 15286+                          	FNCALL	_SteerRight,_DelayMs
 15287+                          	FNROOT	_main
 15288+                          	FNCALL	intlevel2,_SensorTriggered
 15289+                          	global	intlevel2
 15290+                          	FNROOT	intlevel2
 15291+                          	global	F2616
 15292+                                  psect   text26,class=CODE,space=0,reloc=
      +                          2
 15293+ 000000                     F2616  equ     2061
 15294+                          
 15295+                          	opt lm
 15296+                          
 15297+                          	DABS	1,2061,8	;F2616
 15298+                          	global	_backMoveCount
 15299+                          	global	_backMoveCount
 15300+ 000000                     _backMoveCount  equ     2069
 15301+                          
 15302+                          	DABS	1,2069,2	;_backMoveCount
 15303+                          	global	_mazeStart
 15304+                          	global	_mazeStart
 15305+ 000000                     _mazeStart  equ     2071
 15306+                          
 15307+                          	DABS	1,2071,2	;_mazeStart
 15308+                          	global	_runTimeMode
 15309+                          	global	_runTimeMode
 15310+ 000000                     _runTimeMode  equ     2073
 15311+                          
 15312+                          	DABS	1,2073,2	;_runTimeMode
 15313+                          	global	_switchPosition
 15314+                          	global	_switchPosition
 15315+ 000000                     _switchPosition  equ     2075
 15316+                          
 15317+                          	DABS	1,2075,2	;_switchPosition
 15318+                                  psect   idata,class=CODE,space=0
 15319+                          	line	554
 15320+                          
 15321+                          ;initializer for F2616
 15322+ 00005C  012C               	dw	(012Ch)&0ffffh
 15323+ 00005E  012C               	dw	(012Ch)&0ffffh
 15324+ 000060  012C               	dw	(012Ch)&0ffffh
 15325+ 000062  012C               	dw	(012Ch)&0ffffh
 15326+                          	line	95
 15327+                          
 15328+                          ;initializer for _backMoveCount
 15329+ 000064  FFFF               	dw	(-1)&0ffffh
 15330+                          	line	88
 15331+                          
 15332+                          ;initializer for _mazeStart
 15333+ 000066  0001               	dw	(01h)&0ffffh
 15334+                          	line	75
 15335+                          
 15336+                          ;initializer for _runTimeMode
 15337+ 000068  0001               	dw	(01h)&0ffffh
 15338+                          	line	77
 15339+                          
 15340+                          ;initializer for _switchPosition
 15341+ 00006A  0001               	dw	(01h)&0ffffh
 15342+                                  psect   const,class=CODE,space=0,reloc=2
 15343+                          	global	_backMove
 15344+                          	global	_backMove
 15345+ 000000                     _backMove  equ     1024
 15346+                          
 15347+                          	DABS	1,1024,1024	;_backMove
 15348+                          	global	_mazeMap
 15349+                          	global	_mazeMap
 15350+ 000000                     _mazeMap  equ     512
 15351+                          
 15352+                          	DABS	1,512,512	;_mazeMap
 15353+                          	global	_wallMap
 15354+                          	global	_wallMap
 15355+ 000000                     _wallMap  equ     0
 15356+                          
 15357+                          	DABS	1,0,512	;_wallMap
 15358+                          	global	_directionFlag
 15359+                          	global	_directionFlag
 15360+ 000000                     _directionFlag  equ     2058
 15361+                          
 15362+                          	DABS	1,2058,2	;_directionFlag
 15363+                          	global	_intFlag
 15364+                          	global	_intFlag
 15365+ 000000                     _intFlag  equ     2052
 15366+                          
 15367+                          	DABS	1,2052,2	;_intFlag
 15368+                          	global	_mouseCellValue
 15369+                          	global	_mouseCellValue
 15370+ 000000                     _mouseCellValue  equ     2056
 15371+                          
 15372+                          	DABS	1,2056,2	;_mouseCellValue
 15373+                          	global	_mouseDirection
 15374+                          	global	_mouseDirection
 15375+ 000000                     _mouseDirection  equ     2054
 15376+                          
 15377+                          	DABS	1,2054,2	;_mouseDirection
 15378+                          	global	_mouseX
 15379+                          	global	_mouseX
 15380+ 000000                     _mouseX  equ     2050
 15381+                          
 15382+                          	DABS	1,2050,2	;_mouseX
 15383+                          	global	_mouseY
 15384+                          	global	_mouseY
 15385+ 000000                     _mouseY  equ     2048
 15386+                          
 15387+                          	DABS	1,2048,2	;_mouseY
 15388+                          	global	F2595
 15389+ 000000                     F2595  equ     2060
 15390+                          
 15391+                          	DABS	1,2060,1	;F2595
 15392+                          	global	_EEADR
 15393+ 000000                     _EEADR	equ	0xFA9
 15394+                          	global	_EEADRH
 15395+ 000000                     _EEADRH	equ	0xFAA
 15396+                          	global	_EECON1
 15397+ 000000                     _EECON1	equ	0xFA6
 15398+                          	global	_EECON1bits
 15399+ 000000                     _EECON1bits	equ	0xFA6
 15400+                          	global	_EECON2
 15401+ 000000                     _EECON2	equ	0xFA7
 15402+                          	global	_EEDATA
 15403+ 000000                     _EEDATA	equ	0xFA8
 15404+                          	global	_LATD
 15405+ 000000                     _LATD	equ	0xF8C
 15406+                          	global	_PORTB
 15407+ 000000                     _PORTB	equ	0xF81
 15408+                          	global	_TRISB
 15409+ 000000                     _TRISB	equ	0xF93
 15410+                          	global	_TRISD
 15411+ 000000                     _TRISD	equ	0xF95
 15412+                          	global	_CARRY
 15413+ 000000                     _CARRY	equ	0x7EC0
 15414+                          	global	_EEIF
 15415+ 000000                     _EEIF	equ	0x7D0C
 15416+                          	global	_GIE
 15417+ 000000                     _GIE	equ	0x7F97
 15418+                          	global	_INT0IE
 15419+ 000000                     _INT0IE	equ	0x7F94
 15420+                          	global	_INT0IF
 15421+ 000000                     _INT0IF	equ	0x7F91
 15422+                          	global	_INT1F
 15423+ 000000                     _INT1F	equ	0x7F80
 15424+                          	global	_INT1IE
 15425+ 000000                     _INT1IE	equ	0x7F83
 15426+                          	global	_INT1IF
 15427+ 000000                     _INT1IF	equ	0x7F80
 15428+                          	global	_INT1IP
 15429+ 000000                     _INT1IP	equ	0x7F86
 15430+                          	global	_INT2IE
 15431+ 000000                     _INT2IE	equ	0x7F84
 15432+                          	global	_INT2IF
 15433+ 000000                     _INT2IF	equ	0x7F81
 15434+                          	global	_INT2IP
 15435+ 000000                     _INT2IP	equ	0x7F87
 15436+                          	global	_INTEDG0
 15437+ 000000                     _INTEDG0	equ	0x7F8E
 15438+                          	global	_INTEDG1
 15439+ 000000                     _INTEDG1	equ	0x7F8D
 15440+                          	global	_INTEDG2
 15441+ 000000                     _INTEDG2	equ	0x7F8C
 15442+                          	global	_IPEN
 15443+ 000000                     _IPEN	equ	0x7E87
 15444+                          	global	_LATD5
 15445+ 000000                     _LATD5	equ	0x7C65
 15446+                          	global	_LATD6
 15447+ 000000                     _LATD6	equ	0x7C66
 15448+                          	global	_LATD7
 15449+ 000000                     _LATD7	equ	0x7C67
 15450+                          	global	_RB0
 15451+ 000000                     _RB0	equ	0x7C08
 15452+                          	global	_RB1
 15453+ 000000                     _RB1	equ	0x7C09
 15454+                          	global	_RB2
 15455+ 000000                     _RB2	equ	0x7C0A
 15456+                          	global	_RB3
 15457+ 000000                     _RB3	equ	0x7C0B
 15458+                          	global	_RB4
 15459+ 000000                     _RB4	equ	0x7C0C
 15460+                          	global	_RB5
 15461+ 000000                     _RB5	equ	0x7C0D
 15462+                          	global	_RBPU
 15463+ 000000                     _RBPU	equ	0x7F8F
 15464+                          	global	_RD4
 15465+ 000000                     _RD4	equ	0x7C1C
 15466+                          	global	_WREN
 15467+ 000000                     _WREN	equ	0x7D32
 15468+                          	psect	intsave_regs,class=BIGRAM,space=1
 15469+                          	PSECT	param9,class=BANK9,space=1
 15470+                          	GLOBAL	__Lparam9
 15471+                          	FNCONF	param9,??,?
 15472+                          	GLOBAL	__Labsbss0
 15473+ 000000                     __Labsbss0	EQU	0
 15474+                          	GLOBAL	__Habsbss0
 15475+ 000000                     __Habsbss0	EQU	2061
 15476+                          	GLOBAL	__Ldata0
 15477+ 000000                     __Ldata0	EQU	2061
 15478+                          	GLOBAL	__Hdata0
 15479+ 000000                     __Hdata0	EQU	2077
 15480+                          GLOBAL	__Lparam, __Hparam
 15481+                          GLOBAL	__Lparam9, __Hparam9
 15482+ 000000                     __Lparam	EQU	__Lparam9
 15483+ 000000                     __Hparam	EQU	__Hparam9


HI-TECH Software PICC-18 Macro Assembler V9.66 build 8870 
Symbol Table                                           Sat Apr 20 08:14:09 2013

CheckAdjacentCells@adjacentSquares 093C  
                                l1 5FF8  
                                l3 5FF8  
                                l4 5FB2  
                                l6 5FEE  
                                l7 5FC2  
                                l8 5FDA  
                                l9 5FD6  
                               l10 5FE4  
              ___wmul@multiplicand 093C  
                    SaveMaze@i_165 0932  
                    SaveMaze@j_166 0936  
                              l205 5E98  
                              l206 5F0A  
                              l207 6084  
                              l208 603E  
                              l209 5DB2  
                              l410 3F6C  
                              l411 417A  
                              l500 2FF0  
                              l420 4082  
                              l421 4142  
                              l413 3F9C  
                              l502 2F5C  
                              l430 41B4  
                              l422 40D6  
                              l414 4038  
                              l511 30B2  
                              l503 2FCA  
                              l431 430E  
                              l423 4142  
                              l600 539E  
                              l520 58EA  
                              l512 3202  
                              l504 2FA4  
                              l440 42CA  
                              l416 3FCA  
                              l601 535C  
                              l521 597E  
                              l513 334E  
                              l505 2F90  
                              l409 447C  
                              l441 430A  
                              l433 41E4  
                              l425 4176  
                              l417 3FD8  
                              l602 539E  
                              l522 5A92  
                              l450 5FB0  
                              l514 3498  
                              l506 3602  
                              l442 4312  
                              l434 4280  
                              l426 440E  
                              l418 401A  
                              l611 54F2  
                              l531 5AD6  
                              l451 5F8C  
                              l507 3602  
                              l515 35E2  
                              l443 4362  
                              l427 43D8  
                              l419 4056  
                              l700 4C02  
                              l612 55D0  
                              l604 55D0  
                              l532 3F34  
                              l540 3938  
                              l516 5B26  
                              l524 59BC  
                              l452 5FB0  
                              l508 302A  
                              l460 4506  
                              l444 43D4  
                              l436 4212  
                              l428 418C  
                              l453 60CA  
                              l701 4C0E  
                              l621 5632  
                              l605 53E4  
                              l541 3A58  
                              l533 36E0  
                              l525 59FA  
                              l517 58B6  
                              l509 35FE  
                              l461 4876  
                              l437 4220  
                              l429 4194  
                              l702 4C1A  
                              l622 56FC  
                              l614 5522  
                              l606 54C2  
                              l550 3CAC  
                              l534 3780  
                              l526 5A38  
                              l518 595C  
                              l630 5314  
                              l454 60F6  
                              l470 4732  
                              l438 4262  
                              l615 55AA  
                              l543 3A32  
                              l535 3820  
                              l527 5A76  
                              l631 5070  
                              l455 60E0  
                              l471 47C8  
                              l463 4536  
                              l439 429E  
                              l624 5752  
                              l608 5414  
                              l552 3DA0  
                              l544 3AAE  
                              l536 38CC  
                              l528 5AA2  
                              l640 51FC  
                              l632 519C  
                              l560 03AC  
                              l472 3602  
                              l480 2BD4  
                              l456 4876  
                              l464 4850  
                              l617 5880  
                              l625 586A  
                              l609 549C  
                              l545 3EBA  
                              l537 38FC  
                              l529 5B26  
                              l641 52CA  
                              l561 01E8  
                              l481 300C  
                              l473 2BBC  
                              l457 449E  
                              l618 5602  
                              l546 3E94  
                              l538 3A7E  
                              l634 50A0  
                              l650 4D0C  
                              l570 0D4A  
                              l562 03AC  
                              l474 2B7E  
                              l466 468E  
                              l458 4876  
                              l627 5782  
                              l619 5722  
                              l635 5176  
                              l643 503E  
                              l651 4D36  
                              l571 0B8E  
                              l563 06D6  
                              l491 2DC6  
                              l483 2C58  
                              l475 2762  
                              l459 4876  
                              l467 4608  
                              l628 5844  
                              l548 3BB8  
                              l660 4E8A  
                              l652 4DB0  
                              l644 4C92  
                              l556 275C  
                              l580 16F2  
                              l572 0D4A  
                              l564 0524  
                              l492 2E2A  
                              l484 2D0E  
                              l476 2872  
                              l468 468A  
                              l637 51CC  
                              l661 5036  
                              l653 4D60  
                              l645 4D0C  
                              l581 1536  
                              l573 107E  
                              l557 275C  
                              l565 06D6  
                              l493 2E0E  
                              l485 2D72  
                              l477 2982  
                              l469 47C8  
                              l670 48F6  
                              l638 52F0  
                              l662 4EF8  
                              l654 4DB0  
                              l646 4CBC  
                              l590 20A2  
                              l582 16F2  
                              l574 0DE4  
                              l566 0A12  
                              l558 2716  
                              l494 2DFA  
                              l486 2D56  
                              l478 2A80  
                              l671 491C  
                              l663 5036  
                              l655 4D8A  
                              l647 4D0C  
                              l591 1EDE  
                              l583 1A2E  
                              l575 107E  
                              l567 084E  
                              l559 0070  
                              l495 2E82  
                              l487 2D42  
                              l479 3014  
                              l680 4A84  
                              l664 4F62  
                              l656 4DB0  
                              l648 4CE6  
                              l592 20A2  
                              l584 186A  
                              l576 13BA  
                              l568 0A12  
                              l496 2EF0  
                              l488 2DA2  
                              l673 494C  
                              l665 5036  
                              l657 4DB0  
                              l649 4D0C  
                              l593 23DE  
                              l585 1A2E  
                              l577 11F6  
                              l569 0A16  
                              l497 2ECA  
                              l489 2E46  
                              l690 4B12  
                              l682 4A30  
                              l674 49D0  
                              l666 4FCE  
                              l658 4E1C  
                              l594 221A  
                              l586 1D62  
                              l578 13BA  
                              l498 2EB6  
                              l691 4B68  
                              l683 4A5E  
                              l667 5036  
                              l659 5036  
                              l595 23DE  
                              l587 1BA6  
                              l579 13BE  
                              l499 2F2C  
                              l692 4BEC  
                              l684 4A5E  
                              l676 497C  
                              l668 5036  
                              l596 2712  
                              l588 1D62  
                              l669 4C5E  
                              l685 4AB4  
                              l677 49AA  
                              l597 2478  
                              l589 1D66  
                              l694 4B98  
                              l686 4B38  
                              l678 49AA  
                              l598 2712  
                              l695 4BC6  
                              l679 4A00  
                              l599 55D0  
                              l696 4BC6  
                              l688 4AE4  
                              l881 60B4  
                              l697 4C5E  
                              l689 4B12  
                              l882 608E  
                              l698 4C28  
                              l883 608A  
                              l699 4BF4  
                              l884 609C  
                              _GIE 007F97  
                              _RB0 007C08  
                              _RB1 007C09  
                              _RB2 007C0A  
                              _LED 60B6  
                              _RB3 007C0B  
                              _RB4 007C0C  
                              _RB5 007C0D  
                              _RD4 007C1C  
                     ___awmod@sign 0956  
                              wreg 000FE8  
                             F2616 00080D  
                             F2595 00080C  
                   SolveMaze@a_130 0916  
                   SolveMaze@a_131 0918  
                   SolveMaze@a_128 0914  
                   SolveMaze@b_132 091C  
                             ?_LED 0930  
                       _CheckWalls 006C  
                             l1070 5F44  
                             l1063 5F66  
                             l1071 5F66  
                             l1143 5C58  
                             l1151 5C2A  
                             l1152 5BD6  
                             l1144 5B68  
                             l1065 5F66  
                             l1153 5C14  
                             l1145 5B88  
                             l1066 5F0C  
                             l1154 5C4C  
                             l1146 5C2A  
                             l1067 5F10  
                             l1147 5BC4  
                             l1404 5E26  
                             l1148 5BB2  
                             l1069 5F1E  
                             l1149 5BD6  
                             l1406 5E1A  
                             l1407 5DC2  
                             l1408 5DEC  
                             _EEIF 007D0C  
                             _LATD 000F8C  
                             _IPEN 007E87  
                             u8000 5A34  
                             u8001 5A30  
                             u8010 5A72  
                             u8011 5A6E  
                             u8020 5A92  
                             u8021 5A8E  
                             u8030 5AD2  
                             u8031 5ACE  
                             u9000 0DE4  
                             u8200 2D9E  
                             u8120 2BD4  
                             u7320 46AC  
                             u7240 4496  
                             u7400 4008  
                             u9001 0DE0  
                             u8201 2D9A  
                             u8121 2BD0  
                             u8105 2ACE  
                             u7321 46A8  
                             u7305 45C6  
                             u7241 4492  
                             u7401 4004  
                             u8210 2DC2  
                             u7250 44B6  
                             u7410 4038  
                             u8035 5AC4  
                             u8211 2DBE  
                             u8115 2B38  
                             u7315 464C  
                             u7251 44B2  
                             u7411 4034  
                             u9100 1118  
                             u8300 2F28  
                             u8220 2DDE  
                             u8140 2C54  
                             u7260 4502  
                             u7500 4250  
                             u7420 404E  
                             u9101 1114  
                             u8301 2F24  
                             u8221 2DDA  
                             u8141 2C50  
                             u8045 27C2  
                             u7261 44FE  
                             u7501 424C  
                             u7421 404A  
                             u7405 3FFA  
                             u9030 0EF6  
                             u8310 2F58  
                             u8230 2DF6  
                             u7270 4532  
                             u7510 4280  
                             u7430 4074  
                             u9031 0EF2  
                             u9015 0E16  
                             u8311 2F54  
                             u8231 2DF2  
                             u8135 2BFC  
                             u8055 282C  
                             u7335 46F0  
                             u7271 452E  
                             u7511 427C  
                             u7431 4070  
                             u7600 53B4  
                             u9200 1458  
                             u8320 2F74  
                             u8240 2E2A  
                             u8160 2D0A  
                             u7360 4850  
                             u7280 4554  
                             u7520 4296  
                             u7440 40A6  
                             u7601 53B0  
                             u9201 1454  
                             u9025 0E80  
                             u8321 2F70  
                             u8241 2E26  
                             u8161 2D06  
                             u8065 28D2  
                             u7361 484C  
                             u7345 478A  
                             u7281 4550  
                             u7521 4292  
                             u7505 4242  
                             u7441 40A2  
                             u7610 53E0  
                             u9130 1214  
                             u9050 0F8C  
                             u8410 3184  
                             u8330 2F8C  
                             u8250 2E46  
                             u8170 2D26  
                             u7370 4876  
                             u7290 4572  
                             u7530 42BC  
                             u7450 40D2  
                             u7611 53DC  
                             u9131 1210  
                             u9115 114A  
                             u9051 0F88  
                             u8411 3180  
                             u8331 2F88  
                             u8251 2E42  
                             u8171 2D22  
                             u8155 2C9C  
                             u8075 293C  
                             u7371 4872  
                             u7355 47EC  
                             u7291 456E  
                             u7531 42B8  
                             u7451 40CE  
                             u7700 55D0  
                             u7620 5410  
                             u9300 178C  
                             u8340 2FCA  
                             u8260 2E7E  
                             u8180 2D3E  
                             u7540 4306  
                             u7460 4142  
                             u7380 3F98  
                             u7701 55CC  
                             u7621 540C  
                             u9301 1788  
                             u9125 11B4  
                             u9045 0F28  
                             u8405 30F8  
                             u8341 2FC6  
                             u8261 2E7A  
                             u8181 2D3A  
                             u8085 29D0  
                             u7541 4302  
                             u7461 413E  
                             u7381 3F94  
                             u7710 506C  
                             u9230 156A  
                             u9150 12B4  
                             u8510 34B6  
                             u8430 3236  
                             u8350 2FF0  
                             u8270 2E9A  
                             u8190 2D72  
                             u7550 435E  
                             u7470 4172  
                             u7390 3FBE  
                             u7711 5068  
                             u9231 1566  
                             u9215 148A  
                             u9151 12B0  
                             u8511 34B2  
                             u8431 3232  
                             u8351 2FEC  
                             u8271 2E96  
                             u8191 2D6E  
                             u8095 2A3A  
                             u7551 435A  
                             u7471 416E  
                             u7391 3FBA  
                             u7640 549C  
                             u7800 52F0  
                             u7720 509C  
                             u9400 1AC8  
                             u9080 108C  
                             u8600 010A  
                             u8360 302A  
                             u8280 2EB2  
                             u7560 43D4  
                             u7480 41E0  
                             u7641 5498  
                             u7801 52EC  
                             u7721 5098  
                             u9401 1AC4  
                             u9225 14F4  
                             u9145 1246  
                             u9081 1088  
                             u9065 0FBE  
                             u8601 0106  
                             u8505 341E  
                             u8425 3192  
                             u8361 3026  
                             u8281 2EAE  
                             u7561 43D0  
                             u7545 42F8  
                             u7481 41DC  
                             u7810 5F1E  
                             u7650 54C2  
                             u7570 532C  
                             u9330 1888  
                             u9250 1600  
                             u8530 355A  
                             u8450 32D0  
                             u8290 2EF0  
                             u7490 4206  
                             u7811 5F1A  
                             u7651 54BE  
                             u7635 5438  
                             u7571 5328  
                             u9331 1884  
                             u9315 17BE  
                             u9251 15FC  
                             u9075 1032  
                             u8531 3556  
                             u8451 32CC  
                             u8291 2EEC  
                             u7491 4202  
                             u7475 4164  
                             u7820 5F42  
                             u7900 577E  
                             u7660 54EE  
                             u7580 5358  
                             u7740 5176  
                             u9500 1E00  
                             u9180 13CC  
                             u8700 0446  
                             u8380 30AE  
                             _RBPU 007F8F  
                             u7821 5F3E  
                             u7901 577A  
                             u7661 54EA  
                             u7581 5354  
                             u7741 5172  
                             u9501 1DFC  
                             u9325 1828  
                             u9245 159C  
                             u9181 13C8  
                             u9165 12E6  
                             u8701 0442  
                             u8525 34DA  
                             u8445 325A  
                             u8381 30AA  
                             u7830 5F64  
                             u8550 609C  
                             u7670 551E  
                             u7590 539E  
                             u7750 519C  
                             u9430 1BDA  
                             u9350 1928  
                             u8630 0206  
                             u8470 336C  
                             u8390 30EA  
                             u7831 5F60  
                             u8551 6098  
                             u7671 551A  
                             u7591 539A  
                             u7751 5198  
                             u7735 5112  
                             u9431 1BD6  
                             u9415 1AFA  
                             u9351 1924  
                             u9175 1364  
                             u9095 10BE  
                             u8631 0202  
                             u8615 013C  
                             u8471 3368  
                             u8391 30E6  
                             u8375 304E  
                             u7920 5844  
                             u7840 55FE  
                             u7760 51C8  
                             u9600 213C  
                             u9280 1700  
                             u8800 0770  
                             u8560 5F76  
                             u7921 5840  
                             u7841 55FA  
                             u7761 51C4  
                             u9601 2138  
                             u9425 1B64  
                             u9345 18A4  
                             u9281 16FC  
                             u9265 1632  
                             u8801 076C  
                             u8625 01A6  
                             u8561 5F72  
                             u8545 357E  
                             u8465 32F4  
                             u7930 586A  
                             u7850 562E  
                             u7690 55AA  
                             u7770 51F8  
                             u9530 1EFC  
                             u9450 1C70  
                             u8730 0558  
                             u8650 02A6  
                             u8570 5F9A  
                             u8490 3410  
                             u7931 5866  
                             u7915 57A6  
                             u7851 562A  
                             u7691 55A6  
                             u7771 51F4  
                             u9531 1EF8  
                             u9515 1E32  
                             u9451 1C6C  
                             u9275 16A6  
                             u9195 13FE  
                             u8731 0554  
                             u8715 0478  
                             u8651 02A2  
                             u8571 5F96  
                             u8491 340C  
                             u7940 58B2  
                             u9700 2478  
                             u9380 1A3C  
                             u8900 0AB0  
                             u8580 007E  
                             u7685 5546  
                             u7941 58AE  
                             u9701 2474  
                             u9525 1E9C  
                             u9445 1BF6  
                             u9381 1A38  
                             u9365 1944  
                             u8901 0AAC  
                             u8725 04E2  
                             u8645 0238  
                             u8581 007A  
                             u8485 337A  
                             _MOVE 4878  
                             u7870 56FC  
                             u7950 58E6  
                             u7790 52CA  
                             u9630 2238  
                             u9550 1F9C  
                             u8830 086C  
                             u8750 05E4  
                             u7871 56F8  
                             u7951 58E2  
                             u7791 52C6  
                             u9631 2234  
                             u9615 216E  
                             u9551 1F98  
                             u9375 19C2  
                             u9295 1732  
                             u8831 0868  
                             u8815 07A2  
                             u8751 05E0  
                             u7880 5722  
                             u7960 595C  
                             u9480 1D74  
                             u8680 03BA  
                             u7881 571E  
                             u7865 5656  
                             u7961 5958  
                             u7785 5266  
                             u9625 21D8  
                             u9545 1F18  
                             u9481 1D70  
                             u9465 1C8C  
                             u8825 080C  
                             u8745 058A  
                             u8681 03B6  
                             u8665 02D8  
                             u7890 574E  
                             u9810 36FE  
                             u7970 597A  
                             u9730 258A  
                             u9650 22D8  
                             u8930 0BC2  
                             u8850 090C  
                             u7891 574A  
                             u9811 36FA  
                             u7971 5976  
                             u7955 58D8  
                             u9731 2586  
                             u9715 24AA  
                             u9651 22D4  
                             u9475 1D00  
                             u9395 1A6E  
                             u8931 0BBE  
                             u8915 0AE2  
                             u8851 0908  
                             u8675 0356  
                             u8595 00B0  
                             u9900 3A58  
                             u7980 59B8  
                             u9580 20B0  
                             u8780 06E4  
                             u9901 3A54  
                             u9805 3676  
                             u7981 59B4  
                             u9725 2514  
                             u9645 226A  
                             u9581 20AC  
                             u9565 1FB8  
                             u8925 0B4C  
                             u8845 0888  
                             u8781 06E0  
                             u8765 0600  
                             u9910 3A7E  
                             u9830 379E  
                             u7990 59F6  
                             u9750 2620  
                             u8950 0C58  
                             u9911 3A7A  
                             u9831 379A  
                             u7991 59F2  
                             u9751 261C  
                             u9575 2036  
                             u9495 1DA6  
                             u8951 0C54  
                             u8775 0674  
                             u8695 03EC  
                             u9920 3AAA  
                             u9680 23EC  
                             u8880 0A24  
                             u9921 3AA6  
                             u9825 370C  
                             u9745 25BC  
                             u9681 23E8  
                             u9665 230A  
                             u8945 0BDE  
                             u8881 0A20  
                             u8865 0928  
                             u9930 3AC4  
                             u9850 3854  
                             u9931 3AC0  
                             u9851 3850  
                             u9675 2388  
                             u9595 20E2  
                             u8875 09A6  
                             u8795 0716  
                             u9940 3B04  
                             u8980 0D58  
                             u9941 3B00  
                             u9845 37C2  
                             u9781 360E  
                             u9765 2652  
                             u8981 0D54  
                             u8965 0C74  
                             u9870 38F8  
                             u9790 3668  
                             u9871 38F4  
                             u9791 3664  
                             u9775 26C6  
                             u9695 241E  
                             u8975 0CE8  
                             u8895 0A56  
                             u9960 3B90  
                             u9880 3934  
                             u9961 3B8C  
                             u9881 3930  
                             u9865 3878  
                             u9970 3BF8  
                             u9890 399A  
                             u9971 3BF4  
                             u9955 3B36  
                             u9891 3996  
                             u8995 0D8A  
                             u9990 3C84  
                             u9991 3C80  
                             u9895 398C  
                             u9985 3C2A  
             SolveMaze@tempDir_134 090E  
                             _WREN 007D32  
                   ??_eeprom_write 0943  
                             _main 3F36  
                             fsr0h 000FEA  
                       MazeSetup@i 090C  
                             fsr1h 000FE2  
                       MazeSetup@j 090E  
                             indf0 000FEF  
                             fsr0l 000FE9  
                             fsr2h 000FDA  
                             indf1 000FE7  
                             fsr1l 000FE1  
                             fsr2l 000FD9  
                      main@runFlag 0900  
                             pclat 000FFA  
                             prodh 000FF4  
                             prodl 000FF3  
                             start 0018  
             SolveMaze@tempVar_133 0910  
                  __end_of_DelayMs 5FFA  
              _ConfigureInterrupts 60E2  
                  __end_of_EndMaze 5B28  
                            ??_LED 0932  
                            ?_MOVE 0930  
                ?_CheckOrientation 092A  
                            MOVE@j 0930  
                            l30041 4402  
                            l30042 43EA  
                            l30043 2BB0  
                            l30044 2B90  
                            l30045 2750  
                            l30046 2728  
                            l30047 4C52  
                            l30048 4C3A  
                            ?_main 0900  
                            _EEADR 000FA9  
                  __end_of___awmod 5C5A  
                            _CARRY 007EC0  
               ??_CheckOrientation 092A  
                            u10000 3CEC  
                            u10001 3CE8  
                            u10020 3D78  
                            u10100 4CD4  
                            u10021 3D74  
                            u10101 4CD0  
                            u10030 3DE0  
                            u10110 4CFE  
                            u10031 3DDC  
                            u10015 3D1E  
                            u10111 4CFA  
                            u10200 4F98  
                            u10120 4D24  
                            u10201 4F94  
                            u10121 4D20  
                            u10050 3E6C  
                            u10210 5004  
                            u10130 4D4E  
                            u10051 3E68  
                            u10211 5000  
                            u10131 4D4A  
                            u10220 5B4A  
                            u10300 4948  
                            u10060 3EBA  
                            u10140 4D78  
                            u10221 5B46  
                            u10301 4944  
                            u10061 3EB6  
                            u10045 3E12  
                            u10141 4D74  
                            u10230 5B7A  
                            u10310 4962  
                            u10150 4DA2  
                            u10231 5B76  
                            u10311 495E  
                            u10151 4D9E  
                            u10240 5B9E  
                            u10400 4AFC  
                            u10320 4994  
                            u10160 4DE6  
                            u10080 4C80  
                            u10241 5B9A  
                            u10401 4AF8  
                            u10321 4990  
                            u10161 4DE2  
                            u10081 4C7C  
                            u10250 5BD6  
                            u10410 4B38  
                            u10330 49D0  
                            u10170 4E54  
                            u10090 4CAA  
                            u10251 5BD2  
                            u10411 4B34  
                            u10331 49CC  
                            u10075 3EF6  
                            u10171 4E50  
                            u10091 4CA6  
                            u10260 5BFC  
                            u10420 4B64  
                            u10340 49FC  
                            u10180 4EC2  
                            u10261 5BF8  
                            u10421 4B60  
                            u10341 49F8  
                            u10181 4EBE  
                            u10270 5C3E  
                            u10430 4B7E  
                            u10350 4A16  
                            u10190 4F2C  
                            u10271 5C3A  
                            u10431 4B7A  
                            u10351 4A12  
                            u10191 4F28  
                            u10440 4BB0  
                            u10360 4A48  
                            u10280 48F2  
                            u10441 4BAC  
                            u10361 4A44  
                            u10281 48EE  
                            u10450 4BEC  
                            u10370 4A84  
                            u10290 491C  
                            u10451 4BE8  
                            u10371 4A80  
                            u10291 4918  
                            u10460 5DD4  
                            u10380 4AB0  
                            u10461 5DD0  
                            u10381 4AAC  
                            u10470 5E1A  
                            u10390 4ACA  
                            u10471 5E16  
                            u10391 4AC6  
                            _LATD5 007C65  
                            _LATD6 007C66  
                            _LATD7 007C67  
                            _INT1F 007F80  
                            i2l446 5CF4  
                            i2l447 5CB8  
                            i2l448 5CE4  
                            i2l449 5CF4  
                            _PORTB 000F81  
                            _TRISB 000F93  
                            _TRISD 000F95  
             ?_ConfigureInterrupts 092A  
                            main@i 0906  
              main@buttonCount_110 0908  
                            tablat 000FF5  
                            status 000FD8  
                     __end_of_MOVE 4C60  
          CheckAdjacentCells@i_152 0946  
                     __end_of_main 4480  
                           ??_MOVE 0930  
                    _backMoveCount 000815  
                           ??_main 0900  
                 __end_of_SaveMaze 5882  
                    __activetblptr 000000  
                           LED@led 0930  
            ??_ConfigureInterrupts 092A  
        CheckAdjacentCells@holdVar 0930  
                      ?_CheckWalls 092A  
                           _EEADRH 000FAA  
                           _EEDATA 000FA8  
                           _EECON1 000FA6  
                           _EECON2 000FA7  
                 __end_of_TurnLeft 5E9A  
                           _INT0IE 007F94  
                           _INT0IF 007F91  
                           _INT1IE 007F83  
                           _INT1IF 007F80  
                           _INT2IE 007F84  
                           _INT2IF 007F81  
                           _INT1IP 007F86  
                           _INT2IP 007F87  
                        ??_DelayMs 0936  
                        ??_EndMaze 092A  
                           i2u3500 5CA8  
                           i2u3501 5CA4  
                           i2u3510 5CC6  
                           i2u3511 5CC2  
                           i2u3520 5CD4  
                           i2u3521 5CD0  
                           i2u3530 5CF2  
                           i2u3531 5CEE  
                           i2u3490 5C9A  
                           i2u3491 5C96  
                 SolveMaze@tempDir 090C  
                           __Ldata 00080D  
                           ___wmul 5DB4  
                        ??___awmod 0956  
                  ___awmod@divisor 0954  
                    ??_RestoreMaze 091A  
                           _mouseX 000802  
                           _mouseY 000800  
             __end_of_eeprom_write 5F68  
                  ___awmod@counter 0957  
               TurnToDirection@dir 092A  
                _DisableInterrupts 60CC  
                     __mediumconst 0F00  
                       _SteerRight 6040  
                           tblptrh 000FF7  
                           tblptrl 000FF6  
                           tblptru 000FF8  
               ?_DisableInterrupts 092A  
                __end_of_ClearMaze 55D2  
              ??_DisableInterrupts 092A  
                       __accesstop 0080  
                       SolveMaze@a 0912  
                       SolveMaze@b 091A  
                  eeprom_read@addr 092D  
                       _TurnAround 5D2E  
   CheckAdjacentCells@lowestSquare 0938  
      CheckAdjacentCells@topSquare 0936  
        __end_of_DisableInterrupts 60E2  
                __end_of_MazeSetup 4878  
                eeprom_write@value 0942  
              __end_of_RestoreMaze 5316  
                        ?_SaveMaze 0930  
                   ClearMaze@i_160 0922  
                   ClearMaze@i_158 0920  
                   ClearMaze@j_161 0926  
                __end_of_SteerLeft 6040  
                __end_of_SolveMaze 3604  
                          ?___wmul 093A  
                        ?_TurnLeft 0932  
                ??_TurnToDirection 092C  
                __end_of_TurnRight 5F0C  
                          _INTEDG0 007F8E  
                          _INTEDG1 007F8D  
                          _INTEDG2 007F8C  
                      ?_SteerRight 0934  
                ??_SensorTriggered 0959  
                          _DelayMs 5FB2  
                          _EndMaze 5882  
                          __Hdata0 00081D  
                       ??_SaveMaze 0930  
                          __Ldata0 00080D  
                          __Hparam 0967  
                          __Lparam 0900  
                      ?_TurnAround 0932  
            ClearMaze@clearRunTime 091A  
                          ___awmod 5B28  
                       ??_TurnLeft 0932  
                          __ramtop 0F00  
                      _RestoreMaze 5040  
                          _intFlag 000804  
                          _mazeMap 000200  
                 ___awmod@dividend 0952  
                          _wallMap 000000  
                     ??_CheckWalls 092A  
              CheckAdjacentCells@i 0948  
              CheckAdjacentCells@j 0944  
              CheckAdjacentCells@x 092C  
              CheckAdjacentCells@y 092A  
     CheckAdjacentCells@leftSquare 0932  
                    __Lmediumconst 0F00  
                     _eeprom_write 5F0C  
                          int_func 0008  
                          postdec0 000FED  
                          postdec1 000FE5  
                          postinc0 000FEE  
                          postinc1 000FE6  
      __end_of_ConfigureInterrupts 60F8  
               __end_of_CheckWalls 275E  
                   _mouseCellValue 000808  
       __end_of_CheckAdjacentCells 3F36  
                   _mouseDirection 000806  
                    ??_eeprom_read 092F  
                        _ClearMaze 5316  
                   __end_of___wmul 5E28  
                     DelayMs@_dcnt 0937  
                   _switchPosition 00081B  
                        SaveMaze@i 0930  
                        SaveMaze@j 0934  
                      __end_of_LED 60CC  
                        _MazeSetup 4480  
                        __Habsbss0 00080D  
                 _CheckOrientation 5F68  
                        __Labsbss0 000000  
                       ?_ClearMaze 091A  
                  _TurnToDirection 4C60  
                     EndMaze@bsVar 092C  
                         ??___wmul 093E  
              __end_of_eeprom_read 60B6  
                        _SteerLeft 5FFA  
                        _SolveMaze 275E  
    CheckAdjacentCells@rightSquare 0934  
                  _SensorTriggered 5C5A  
                     ??_SteerRight 0934  
    CheckAdjacentCells@lowestFound 093A  
                       ?_MazeSetup 090C  
                        _TurnRight 5E9A  
                 eeprom_write@addr 0940  
                         ?_DelayMs 0935  
                         ?_EndMaze 092A  
                     ??_TurnAround 0932  
               __end_of_SteerRight 6086  
                         ?___awmod 0952  
                       ?_SteerLeft 0934  
                       ?_SolveMaze 090C  
                     ?_RestoreMaze 091A  
                      __smallconst 0F00  
             ClearMaze@clearEeprom 091C  
                       ?_TurnRight 0932  
                        _mazeStart 000817  
               __end_of_TurnAround 5DB4  
          __end_of_TurnToDirection 5040  
                   ___wmul@product 093E  
                         DelayMs@i 0936  
                      _eeprom_read 6086  
                         EndMaze@i 092A  
                      ??_ClearMaze 091E  
          __end_of_SensorTriggered 5D2E  
                        main@i_111 0902  
                ___wmul@multiplier 093A  
                  main@buttonCount 0904  
                      ??_MazeSetup 090C  
               _CheckAdjacentCells 3604  
                       _EECON1bits 000FA6  
                         __Hparam9 0967  
                         _SaveMaze 55D2  
                         __Lparam9 0900  
                     __Lsmallconst 0F00  
              ?_CheckAdjacentCells 092A  
         __end_of_CheckOrientation 5FB2  
                     RestoreMaze@i 091A  
                     RestoreMaze@j 091E  
                      ??_SteerLeft 0934  
                         _TurnLeft 5E28  
                      ??_SolveMaze 090C  
                         _backMove 000400  
                         __config1 00FDFF  
                         __config2 00FEF9  
                         __config3 00FDFF  
                         __config4 00FF7A  
                         __config5 00FFFF  
                         __config6 00FFFF  
                         __config7 00FFFF  
                      ??_TurnRight 0932  
             ??_CheckAdjacentCells 092E  
                 ?_TurnToDirection 092A  
                    _directionFlag 00080A  
                 ?_SensorTriggered 0959  
                       DelayMs@cnt 0935  
                       ClearMaze@i 091E  
                       ClearMaze@j 0924  
                         intlevel2 60F8  
   CheckAdjacentCells@bottomSquare 092E  
          TurnToDirection@dirCount 092C  
                    ?_eeprom_write 0940  
          TurnToDirection@fixedDir 092E  
                     ?_eeprom_read 092D  
                 RestoreMaze@i_170 091C  
                 RestoreMaze@j_171 0920  
                      _runTimeMode 000819  
